
tftpsrv:     file format elf32-tradbigmips

Disassembly of section .text:

00401880 <main-0x9304>:
  401880:	04100001 	bltzal	zero,401888 <_init+0x94>
  401884:	00000000 	nop
  401888:	3c1c0fc0 	lui	gp,0xfc0
  40188c:	279c7a08 	addiu	gp,gp,31240
  401890:	039fe021 	addu	gp,gp,ra
  401894:	0000f821 	move	ra,zero
  401898:	8f848118 	lw	a0,-32488(gp)
  40189c:	8fa50000 	lw	a1,0(sp)
  4018a0:	27a60004 	addiu	a2,sp,4
  4018a4:	3c01ffff 	lui	at,0xffff
  4018a8:	3421fff8 	ori	at,at,0xfff8
  4018ac:	03a1e824 	and	sp,sp,at
  4018b0:	27bdffe0 	addiu	sp,sp,-32
  4018b4:	8f8781d8 	lw	a3,-32296(gp)
  4018b8:	8f8880f8 	lw	t0,-32520(gp)
  4018bc:	00000000 	nop
  4018c0:	afa80010 	sw	t0,16(sp)
  4018c4:	afa20014 	sw	v0,20(sp)
  4018c8:	afbd0018 	sw	sp,24(sp)
  4018cc:	8f99810c 	lw	t9,-32500(gp) <__libc_start_main>
  4018d0:	00000000 	nop
  4018d4:	0320f809 	jalr	t9
  4018d8:	00000000 	nop
  4018dc:	1000ffff 	b	4018dc <_init+0xe8>
  4018e0:	00000000 	nop
	...
  4018f0:	3c1c0fc0 	lui	gp,0xfc0
  4018f4:	279c79a0 	addiu	gp,gp,31136
  4018f8:	0399e021 	addu	gp,gp,t9
  4018fc:	27bdffe0 	addiu	sp,sp,-32
  401900:	afbc0010 	sw	gp,16(sp)
  401904:	afbf001c 	sw	ra,28(sp)
  401908:	8f828034 	lw	v0,-32716(gp)
  40190c:	00000000 	nop
  401910:	10400005 	beqz	v0,401928 <_init+0x134>
  401914:	afbc0018 	sw	gp,24(sp)
  401918:	0040c821 	move	t9,v0
  40191c:	0320f809 	jalr	t9
  401920:	00000000 	nop
  401924:	8fbc0010 	lw	gp,16(sp)
  401928:	8fbf001c 	lw	ra,28(sp)
  40192c:	00000000 	nop
  401930:	03e00008 	jr	ra
  401934:	27bd0020 	addiu	sp,sp,32
	...
  401940:	3c1c0fc0 	lui	gp,0xfc0
  401944:	279c7950 	addiu	gp,gp,31056
  401948:	0399e021 	addu	gp,gp,t9
  40194c:	27bdffd8 	addiu	sp,sp,-40
  401950:	afbc0010 	sw	gp,16(sp)
  401954:	afbf0020 	sw	ra,32(sp)
  401958:	afbc001c 	sw	gp,28(sp)
  40195c:	8f82801c 	lw	v0,-32740(gp)
  401960:	00000000 	nop
  401964:	24420014 	addiu	v0,v0,20
  401968:	8c420000 	lw	v0,0(v0)
  40196c:	00000000 	nop
  401970:	1440002d 	bnez	v0,401a28 <_init+0x234>
  401974:	afb00018 	sw	s0,24(sp)
  401978:	8f82801c 	lw	v0,-32740(gp)
  40197c:	00000000 	nop
  401980:	24420010 	addiu	v0,v0,16
  401984:	8c420000 	lw	v0,0(v0)
  401988:	00000000 	nop
  40198c:	8c430000 	lw	v1,0(v0)
  401990:	8f9081b0 	lw	s0,-32336(gp)
  401994:	10600015 	beqz	v1,4019ec <_init+0x1f8>
  401998:	24420004 	addiu	v0,v0,4
  40199c:	8f81801c 	lw	at,-32740(gp)
  4019a0:	00000000 	nop
  4019a4:	24210010 	addiu	at,at,16
  4019a8:	ac220000 	sw	v0,0(at)
  4019ac:	8c43fffc 	lw	v1,-4(v0)
  4019b0:	00000000 	nop
  4019b4:	0060c821 	move	t9,v1
  4019b8:	0320f809 	jalr	t9
  4019bc:	00000000 	nop
  4019c0:	8fbc0010 	lw	gp,16(sp)
  4019c4:	00000000 	nop
  4019c8:	8f82801c 	lw	v0,-32740(gp)
  4019cc:	00000000 	nop
  4019d0:	24420010 	addiu	v0,v0,16
  4019d4:	8c420000 	lw	v0,0(v0)
  4019d8:	00000000 	nop
  4019dc:	8c430000 	lw	v1,0(v0)
  4019e0:	00000000 	nop
  4019e4:	1460ffed 	bnez	v1,40199c <_init+0x1a8>
  4019e8:	24420004 	addiu	v0,v0,4
  4019ec:	1200000a 	beqz	s0,401a18 <_init+0x224>
  4019f0:	24020001 	li	v0,1
  4019f4:	8f84801c 	lw	a0,-32740(gp)
  4019f8:	00000000 	nop
  4019fc:	24841284 	addiu	a0,a0,4740
  401a00:	8f9981b0 	lw	t9,-32336(gp) <__deregister_frame_info>
  401a04:	00000000 	nop
  401a08:	0320f809 	jalr	t9
  401a0c:	00000000 	nop
  401a10:	8fbc0010 	lw	gp,16(sp)
  401a14:	24020001 	li	v0,1
  401a18:	8f81801c 	lw	at,-32740(gp)
  401a1c:	00000000 	nop
  401a20:	24210014 	addiu	at,at,20
  401a24:	ac220000 	sw	v0,0(at)
  401a28:	8fbf0020 	lw	ra,32(sp)
  401a2c:	8fb00018 	lw	s0,24(sp)
  401a30:	03e00008 	jr	ra
  401a34:	27bd0028 	addiu	sp,sp,40
  401a38:	3c1c0fc0 	lui	gp,0xfc0
  401a3c:	279c7858 	addiu	gp,gp,30808
  401a40:	0399e021 	addu	gp,gp,t9
  401a44:	27bdffe0 	addiu	sp,sp,-32
  401a48:	afbc0010 	sw	gp,16(sp)
  401a4c:	afbf001c 	sw	ra,28(sp)
  401a50:	afbc0018 	sw	gp,24(sp)
  401a54:	8fbf001c 	lw	ra,28(sp)
  401a58:	00000000 	nop
  401a5c:	03e00008 	jr	ra
  401a60:	27bd0020 	addiu	sp,sp,32
  401a64:	3c1c0fc0 	lui	gp,0xfc0
  401a68:	279c782c 	addiu	gp,gp,30764
  401a6c:	0399e021 	addu	gp,gp,t9
  401a70:	27bdffe0 	addiu	sp,sp,-32
  401a74:	afbc0010 	sw	gp,16(sp)
  401a78:	afbf001c 	sw	ra,28(sp)
  401a7c:	8f828250 	lw	v0,-32176(gp)
  401a80:	00000000 	nop
  401a84:	1040000c 	beqz	v0,401ab8 <_init+0x2c4>
  401a88:	afbc0018 	sw	gp,24(sp)
  401a8c:	8f84801c 	lw	a0,-32740(gp)
  401a90:	00000000 	nop
  401a94:	24841284 	addiu	a0,a0,4740
  401a98:	8f85801c 	lw	a1,-32740(gp)
  401a9c:	00000000 	nop
  401aa0:	24a51560 	addiu	a1,a1,5472
  401aa4:	8f998250 	lw	t9,-32176(gp) <__register_frame_info>
  401aa8:	00000000 	nop
  401aac:	0320f809 	jalr	t9
  401ab0:	00000000 	nop
  401ab4:	8fbc0010 	lw	gp,16(sp)
  401ab8:	8fbf001c 	lw	ra,28(sp)
  401abc:	00000000 	nop
  401ac0:	03e00008 	jr	ra
  401ac4:	27bd0020 	addiu	sp,sp,32
  401ac8:	3c1c0fc0 	lui	gp,0xfc0
  401acc:	279c77c8 	addiu	gp,gp,30664
  401ad0:	0399e021 	addu	gp,gp,t9
  401ad4:	27bdffe0 	addiu	sp,sp,-32
  401ad8:	afbc0010 	sw	gp,16(sp)
  401adc:	afbf001c 	sw	ra,28(sp)
  401ae0:	afbc0018 	sw	gp,24(sp)
  401ae4:	8fbf001c 	lw	ra,28(sp)
  401ae8:	00000000 	nop
  401aec:	03e00008 	jr	ra
  401af0:	27bd0020 	addiu	sp,sp,32
	...
  401b00:	3c1c0fc0 	lui	gp,0xfc0
  401b04:	279c7790 	addiu	gp,gp,30608
  401b08:	0399e021 	addu	gp,gp,t9
  401b0c:	24c6ffff 	addiu	a2,a2,-1
  401b10:	04c0000f 	bltz	a2,401b50 <_init+0x35c>
  401b14:	00000000 	nop
  401b18:	90a20000 	lbu	v0,0(a1)
  401b1c:	24a50001 	addiu	a1,a1,1
  401b20:	24c6ffff 	addiu	a2,a2,-1
  401b24:	00821026 	xor	v0,a0,v0
  401b28:	304200ff 	andi	v0,v0,0xff
  401b2c:	00021080 	sll	v0,v0,0x2
  401b30:	8f83801c 	lw	v1,-32740(gp)
  401b34:	00000000 	nop
  401b38:	24630df8 	addiu	v1,v1,3576
  401b3c:	00621821 	addu	v1,v1,v0
  401b40:	8c630000 	lw	v1,0(v1)
  401b44:	00041202 	srl	v0,a0,0x8
  401b48:	04c1fff3 	bgez	a2,401b18 <_init+0x324>
  401b4c:	00622026 	xor	a0,v1,v0
  401b50:	03e00008 	jr	ra
  401b54:	00801021 	move	v0,a0
  401b58:	3c1c0fc0 	lui	gp,0xfc0
  401b5c:	279c7738 	addiu	gp,gp,30520
  401b60:	0399e021 	addu	gp,gp,t9
  401b64:	8c830000 	lw	v1,0(a0)
  401b68:	00000000 	nop
  401b6c:	04600004 	bltz	v1,401b80 <_init+0x38c>
  401b70:	00a01021 	move	v0,a1
  401b74:	14660004 	bne	v1,a2,401b88 <_init+0x394>
  401b78:	00000000 	nop
  401b7c:	8c820008 	lw	v0,8(a0)
  401b80:	03e00008 	jr	ra
  401b84:	00000000 	nop
  401b88:	2484000c 	addiu	a0,a0,12
  401b8c:	8c830000 	lw	v1,0(a0)
  401b90:	00000000 	nop
  401b94:	0461fff7 	bgez	v1,401b74 <_init+0x380>
  401b98:	00000000 	nop
  401b9c:	03e00008 	jr	ra
  401ba0:	00000000 	nop
  401ba4:	3c1c0fc0 	lui	gp,0xfc0
  401ba8:	279c76ec 	addiu	gp,gp,30444
  401bac:	0399e021 	addu	gp,gp,t9
  401bb0:	27bdffe0 	addiu	sp,sp,-32
  401bb4:	afbc0010 	sw	gp,16(sp)
  401bb8:	afbf001c 	sw	ra,28(sp)
  401bbc:	afbc0018 	sw	gp,24(sp)
  401bc0:	00803021 	move	a2,a0
  401bc4:	8f84801c 	lw	a0,-32740(gp)
  401bc8:	00000000 	nop
  401bcc:	248401a0 	addiu	a0,a0,416
  401bd0:	8f858020 	lw	a1,-32736(gp)
  401bd4:	00000000 	nop
  401bd8:	24a53270 	addiu	a1,a1,12912		# "Unknown Compression"
  401bdc:	8f998018 	lw	t9,-32744(gp)
  401be0:	00000000 	nop
  401be4:	27391b58 	addiu	t9,t9,7000		# 0x401b58
  401be8:	00000000 	nop
  401bec:	0320f809 	jalr	t9
  401bf0:	00000000 	nop
  401bf4:	8fbc0010 	lw	gp,16(sp)
  401bf8:	8fbf001c 	lw	ra,28(sp)
  401bfc:	00000000 	nop
  401c00:	03e00008 	jr	ra
  401c04:	27bd0020 	addiu	sp,sp,32
  401c08:	3c1c0fc0 	lui	gp,0xfc0
  401c0c:	279c7688 	addiu	gp,gp,30344
  401c10:	0399e021 	addu	gp,gp,t9
  401c14:	27bdffe0 	addiu	sp,sp,-32
  401c18:	afbc0010 	sw	gp,16(sp)
  401c1c:	afbf001c 	sw	ra,28(sp)
  401c20:	afbc0018 	sw	gp,24(sp)
  401c24:	00803021 	move	a2,a0
  401c28:	8f84801c 	lw	a0,-32740(gp)
  401c2c:	00000000 	nop
  401c30:	24840020 	addiu	a0,a0,32
  401c34:	8f858020 	lw	a1,-32736(gp)
  401c38:	00000000 	nop
  401c3c:	24a53284 	addiu	a1,a1,12932		# "Unknown Architecture"
  401c40:	8f998018 	lw	t9,-32744(gp)
  401c44:	00000000 	nop
  401c48:	27391b58 	addiu	t9,t9,7000		# 0x401b58
  401c4c:	00000000 	nop
  401c50:	0320f809 	jalr	t9
  401c54:	00000000 	nop
  401c58:	8fbc0010 	lw	gp,16(sp)
  401c5c:	8fbf001c 	lw	ra,28(sp)
  401c60:	00000000 	nop
  401c64:	03e00008 	jr	ra
  401c68:	27bd0020 	addiu	sp,sp,32
  401c6c:	3c1c0fc0 	lui	gp,0xfc0
  401c70:	279c7624 	addiu	gp,gp,30244
  401c74:	0399e021 	addu	gp,gp,t9
  401c78:	27bdffe0 	addiu	sp,sp,-32
  401c7c:	afbc0010 	sw	gp,16(sp)
  401c80:	afbf001c 	sw	ra,28(sp)
  401c84:	afbc0018 	sw	gp,24(sp)
  401c88:	00803021 	move	a2,a0
  401c8c:	8f84801c 	lw	a0,-32740(gp)
  401c90:	00000000 	nop
  401c94:	24840050 	addiu	a0,a0,80
  401c98:	8f858020 	lw	a1,-32736(gp)
  401c9c:	00000000 	nop
  401ca0:	24a5329c 	addiu	a1,a1,12956		# "Unknown OS"
  401ca4:	8f998018 	lw	t9,-32744(gp)
  401ca8:	00000000 	nop
  401cac:	27391b58 	addiu	t9,t9,7000		# 0x401b58
  401cb0:	00000000 	nop
  401cb4:	0320f809 	jalr	t9
  401cb8:	00000000 	nop
  401cbc:	8fbc0010 	lw	gp,16(sp)
  401cc0:	8fbf001c 	lw	ra,28(sp)
  401cc4:	00000000 	nop
  401cc8:	03e00008 	jr	ra
  401ccc:	27bd0020 	addiu	sp,sp,32
  401cd0:	3c1c0fc0 	lui	gp,0xfc0
  401cd4:	279c75c0 	addiu	gp,gp,30144
  401cd8:	0399e021 	addu	gp,gp,t9
  401cdc:	27bdffe0 	addiu	sp,sp,-32
  401ce0:	afbc0010 	sw	gp,16(sp)
  401ce4:	afbf001c 	sw	ra,28(sp)
  401ce8:	afbc0018 	sw	gp,24(sp)
  401cec:	00803021 	move	a2,a0
  401cf0:	8f84801c 	lw	a0,-32740(gp)
  401cf4:	00000000 	nop
  401cf8:	248400b0 	addiu	a0,a0,176
  401cfc:	8f858020 	lw	a1,-32736(gp)
  401d00:	00000000 	nop
  401d04:	24a532a8 	addiu	a1,a1,12968		# "Unknown Image"
  401d08:	8f998018 	lw	t9,-32744(gp)
  401d0c:	00000000 	nop
  401d10:	27391b58 	addiu	t9,t9,7000		# 0x401b58
  401d14:	00000000 	nop
  401d18:	0320f809 	jalr	t9
  401d1c:	00000000 	nop
  401d20:	8fbc0010 	lw	gp,16(sp)
  401d24:	8fbf001c 	lw	ra,28(sp)
  401d28:	00000000 	nop
  401d2c:	03e00008 	jr	ra
  401d30:	27bd0020 	addiu	sp,sp,32
  401d34:	3c1c0fc0 	lui	gp,0xfc0
  401d38:	279c755c 	addiu	gp,gp,30044
  401d3c:	0399e021 	addu	gp,gp,t9
  401d40:	27bdffc8 	addiu	sp,sp,-56
  401d44:	afbc0018 	sw	gp,24(sp)
  401d48:	afbf0030 	sw	ra,48(sp)
  401d4c:	afbc002c 	sw	gp,44(sp)
  401d50:	afb20028 	sw	s2,40(sp)
  401d54:	afb10024 	sw	s1,36(sp)
  401d58:	afb00020 	sw	s0,32(sp)
  401d5c:	00808021 	move	s0,a0
  401d60:	9204001d 	lbu	a0,29(s0)
  401d64:	8f998018 	lw	t9,-32744(gp)
  401d68:	00000000 	nop
  401d6c:	27391c08 	addiu	t9,t9,7176		# 0x401c08
  401d70:	00000000 	nop
  401d74:	0320f809 	jalr	t9
  401d78:	00000000 	nop
  401d7c:	8fbc0018 	lw	gp,24(sp)
  401d80:	9204001c 	lbu	a0,28(s0)
  401d84:	00409021 	move	s2,v0
  401d88:	8f998018 	lw	t9,-32744(gp)
  401d8c:	00000000 	nop
  401d90:	27391c6c 	addiu	t9,t9,7276		# 0x401c6c
  401d94:	00000000 	nop
  401d98:	0320f809 	jalr	t9
  401d9c:	00000000 	nop
  401da0:	8fbc0018 	lw	gp,24(sp)
  401da4:	9204001e 	lbu	a0,30(s0)
  401da8:	00408821 	move	s1,v0
  401dac:	8f998018 	lw	t9,-32744(gp)
  401db0:	00000000 	nop
  401db4:	27391cd0 	addiu	t9,t9,7376		# 0x401cd0
  401db8:	00000000 	nop
  401dbc:	0320f809 	jalr	t9
  401dc0:	00000000 	nop
  401dc4:	8fbc0018 	lw	gp,24(sp)
  401dc8:	9204001f 	lbu	a0,31(s0)
  401dcc:	00408021 	move	s0,v0
  401dd0:	8f998018 	lw	t9,-32744(gp)
  401dd4:	00000000 	nop
  401dd8:	27391ba4 	addiu	t9,t9,7076		# 0x401ba4
  401ddc:	00000000 	nop
  401de0:	0320f809 	jalr	t9
  401de4:	00000000 	nop
  401de8:	8fbc0018 	lw	gp,24(sp)
  401dec:	afa20010 	sw	v0,16(sp)
  401df0:	8f848020 	lw	a0,-32736(gp)
  401df4:	00000000 	nop
  401df8:	248432b8 	addiu	a0,a0,12984		# "%s %s %s (%s)"
  401dfc:	02402821 	move	a1,s2
  401e00:	02203021 	move	a2,s1
  401e04:	02003821 	move	a3,s0
  401e08:	8f998100 	lw	t9,-32512(gp) <printf>
  401e0c:	00000000 	nop
  401e10:	0320f809 	jalr	t9
  401e14:	00000000 	nop
  401e18:	8fbc0018 	lw	gp,24(sp)
  401e1c:	8fbf0030 	lw	ra,48(sp)
  401e20:	8fb20028 	lw	s2,40(sp)
  401e24:	8fb10024 	lw	s1,36(sp)
  401e28:	8fb00020 	lw	s0,32(sp)
  401e2c:	03e00008 	jr	ra
  401e30:	27bd0038 	addiu	sp,sp,56
  
  401e34:	3c1c0fc0 	lui	gp,0xfc0
  401e38:	279c745c 	addiu	gp,gp,29788
  401e3c:	0399e021 	addu	gp,gp,t9
  401e40:	27bdff38 	addiu	sp,sp,-200
  401e44:	afbc0010 	sw	gp,16(sp)
  401e48:	afbf00c4 	sw	ra,196(sp)
  401e4c:	afbc00c0 	sw	gp,192(sp)
  401e50:	afb300bc 	sw	s3,188(sp)
  401e54:	afb200b8 	sw	s2,184(sp)
  401e58:	afb100b4 	sw	s1,180(sp)
  401e5c:	afb000b0 	sw	s0,176(sp)
  401e60:	00809021 	move	s2,a0
  401e64:	24040003 	li	a0,3
  401e68:	8f858020 	lw	a1,-32736(gp)
  401e6c:	00000000 	nop
  401e70:	24a532c8 	addiu	a1,a1,13000		# "/var/run/sip.pid"
  401e74:	27b30018 	addiu	s3,sp,24
  401e78:	02603021 	move	a2,s3
  401e7c:	8f998194 	lw	t9,-32364(gp) <__xstat>
  401e80:	00000000 	nop
  401e84:	0320f809 	jalr	t9
  401e88:	00000000 	nop
  401e8c:	8fbc0010 	lw	gp,16(sp)
  401e90:	2403ffff 	li	v1,-1
  401e94:	104300df 	beq	v0,v1,402214 <_init+0xa20>
  401e98:	00000000 	nop
  401e9c:	8f848020 	lw	a0,-32736(gp)
  401ea0:	00000000 	nop
  401ea4:	248432c8 	addiu	a0,a0,13000		# "/var/run/sip.pid"
  401ea8:	8f858020 	lw	a1,-32736(gp)
  401eac:	00000000 	nop
  401eb0:	24a532dc 	addiu	a1,a1,13020
  401eb4:	8f99813c 	lw	t9,-32452(gp) <fopen>
  401eb8:	00000000 	nop
  401ebc:	0320f809 	jalr	t9
  401ec0:	00000000 	nop
  401ec4:	8fbc0010 	lw	gp,16(sp)
  401ec8:	00408821 	move	s1,v0
  401ecc:	122000d1 	beqz	s1,402214 <_init+0xa20>
  401ed0:	00000000 	nop
  401ed4:	8fa40048 	lw	a0,72(sp)
  401ed8:	8f998138 	lw	t9,-32456(gp) <my_malloc>
  401edc:	00000000 	nop
  401ee0:	0320f809 	jalr	t9
  401ee4:	00000000 	nop
  401ee8:	8fbc0010 	lw	gp,16(sp)
  401eec:	00408021 	move	s0,v0
  401ef0:	12000009 	beqz	s0,401f18 <_init+0x724>
  401ef4:	02002021 	move	a0,s0
  401ef8:	24050001 	li	a1,1
  401efc:	8fa60048 	lw	a2,72(sp)
  401f00:	02203821 	move	a3,s1
  401f04:	8f9981c0 	lw	t9,-32320(gp) <fread>
  401f08:	00000000 	nop
  401f0c:	0320f809 	jalr	t9
  401f10:	00000000 	nop
  401f14:	8fbc0010 	lw	gp,16(sp)
  401f18:	02202021 	move	a0,s1
  401f1c:	8f998130 	lw	t9,-32464(gp) <fclose>
  401f20:	00000000 	nop
  401f24:	0320f809 	jalr	t9
  401f28:	00000000 	nop
  401f2c:	8fbc0010 	lw	gp,16(sp)
  401f30:	120000b8 	beqz	s0,402214 <_init+0xa20>
  401f34:	02002021 	move	a0,s0
  401f38:	8f858020 	lw	a1,-32736(gp)
  401f3c:	00000000 	nop
  401f40:	24a532e0 	addiu	a1,a1,13024
  401f44:	27a600a8 	addiu	a2,sp,168
  401f48:	8f9980a4 	lw	t9,-32604(gp) <sscanf>
  401f4c:	00000000 	nop
  401f50:	0320f809 	jalr	t9
  401f54:	00000000 	nop
  401f58:	8fbc0010 	lw	gp,16(sp)
  401f5c:	02002021 	move	a0,s0
  401f60:	8f9981b4 	lw	t9,-32332(gp) <my_free>
  401f64:	00000000 	nop
  401f68:	0320f809 	jalr	t9
  401f6c:	00000000 	nop
  401f70:	8fbc0010 	lw	gp,16(sp)
  401f74:	24020001 	li	v0,1
  401f78:	12420033 	beq	s2,v0,402048 <_init+0x854>
  401f7c:	24020004 	li	v0,4
  401f80:	1642000b 	bne	s2,v0,401fb0 <_init+0x7bc>
  401f84:	24020005 	li	v0,5
  401f88:	8f848020 	lw	a0,-32736(gp)
  401f8c:	00000000 	nop
  401f90:	248432e4 	addiu	a0,a0,13028		# "echo 1 > /tmp/pass_chg"
  401f94:	8f9981ec 	lw	t9,-32276(gp) <system>
  401f98:	00000000 	nop
  401f9c:	0320f809 	jalr	t9
  401fa0:	00000000 	nop
  401fa4:	8fbc0010 	lw	gp,16(sp)
  401fa8:	10000027 	b	402048 <_init+0x854>
  401fac:	00000000 	nop
  401fb0:	1642000b 	bne	s2,v0,401fe0 <_init+0x7ec>
  401fb4:	24020006 	li	v0,6
  401fb8:	8f848020 	lw	a0,-32736(gp)
  401fbc:	00000000 	nop
  401fc0:	248432fc 	addiu	a0,a0,13052		# "echo 1 > /tmp/mp3_hold"
  401fc4:	8f9981ec 	lw	t9,-32276(gp) <system>
  401fc8:	00000000 	nop
  401fcc:	0320f809 	jalr	t9
  401fd0:	00000000 	nop
  401fd4:	8fbc0010 	lw	gp,16(sp)
  401fd8:	1000001b 	b	402048 <_init+0x854>
  401fdc:	00000000 	nop
  401fe0:	1642000b 	bne	s2,v0,402010 <_init+0x81c>
  401fe4:	24020007 	li	v0,7
  401fe8:	8f848020 	lw	a0,-32736(gp)
  401fec:	00000000 	nop
  401ff0:	24843314 	addiu	a0,a0,13076		# "echo 2 > /tmp/mp3_ring"
  401ff4:	8f9981ec 	lw	t9,-32276(gp) <system>
  401ff8:	00000000 	nop
  401ffc:	0320f809 	jalr	t9
  402000:	00000000 	nop
  402004:	8fbc0010 	lw	gp,16(sp)
  402008:	1000000f 	b	402048 <_init+0x854>
  40200c:	00000000 	nop
  402010:	1642000b 	bne	s2,v0,402040 <_init+0x84c>
  402014:	24020008 	li	v0,8
  402018:	8f848020 	lw	a0,-32736(gp)
  40201c:	00000000 	nop
  402020:	2484332c 	addiu	a0,a0,13100		# "echo 1 > /tmp/misc_chg"
  402024:	8f9981ec 	lw	t9,-32276(gp) <system>
  402028:	00000000 	nop
  40202c:	0320f809 	jalr	t9
  402030:	00000000 	nop
  402034:	8fbc0010 	lw	gp,16(sp)
  402038:	10000003 	b	402048 <_init+0x854>
  40203c:	00000000 	nop
  402040:	1642000a 	bne	s2,v0,40206c <_init+0x878>
  402044:	24020003 	li	v0,3
  402048:	8fa400a8 	lw	a0,168(sp)
  40204c:	2405001f 	li	a1,31
  402050:	8f998070 	lw	t9,-32656(gp) <kill>
  402054:	00000000 	nop
  402058:	0320f809 	jalr	t9
  40205c:	00000000 	nop
  402060:	8fbc0010 	lw	gp,16(sp)
  402064:	1000006b 	b	402214 <_init+0xa20>
  402068:	00000000 	nop
  40206c:	1642000a 	bne	s2,v0,402098 <_init+0x8a4>
  402070:	24050010 	li	a1,16
  402074:	8fa400a8 	lw	a0,168(sp)
  402078:	2405001e 	li	a1,30
  40207c:	8f998070 	lw	t9,-32656(gp) <kill>
  402080:	00000000 	nop
  402084:	0320f809 	jalr	t9
  402088:	00000000 	nop
  40208c:	8fbc0010 	lw	gp,16(sp)
  402090:	10000060 	b	402214 <_init+0xa20>
  402094:	00000000 	nop
  402098:	8fa400a8 	lw	a0,168(sp)
  40209c:	8f998070 	lw	t9,-32656(gp) <kill>
  4020a0:	00000000 	nop
  4020a4:	0320f809 	jalr	t9
  4020a8:	00000000 	nop
  4020ac:	8fbc0010 	lw	gp,16(sp)
  4020b0:	14400058 	bnez	v0,402214 <_init+0xa20>
  4020b4:	00008021 	move	s0,zero
  4020b8:	10000014 	b	40210c <_init+0x918>
  4020bc:	24040003 	li	a0,3
  4020c0:	34426667 	ori	v0,v0,0x6667
  4020c4:	02020018 	mult	s0,v0
  4020c8:	00101fc3 	sra	v1,s0,0x1f
  4020cc:	00001010 	mfhi	v0
  4020d0:	00021083 	sra	v0,v0,0x2
  4020d4:	00431023 	subu	v0,v0,v1
  4020d8:	2403000a 	li	v1,10
  4020dc:	00430018 	mult	v0,v1
  4020e0:	00001012 	mflo	v0
  4020e4:	16020009 	bne	s0,v0,40210c <_init+0x918>
  4020e8:	24040003 	li	a0,3
  4020ec:	8fa400a8 	lw	a0,168(sp)
  4020f0:	2405000f 	li	a1,15
  4020f4:	8f998070 	lw	t9,-32656(gp) <kill>
  4020f8:	00000000 	nop
  4020fc:	0320f809 	jalr	t9
  402100:	00000000 	nop
  402104:	8fbc0010 	lw	gp,16(sp)
  402108:	24040003 	li	a0,3
  40210c:	8f858020 	lw	a1,-32736(gp)
  402110:	00000000 	nop
  402114:	24a532c8 	addiu	a1,a1,13000		# "/var/run/sip.pid"
  402118:	02603021 	move	a2,s3
  40211c:	8f998194 	lw	t9,-32364(gp) <__xstat>
  402120:	00000000 	nop
  402124:	0320f809 	jalr	t9
  402128:	00000000 	nop
  40212c:	8fbc0010 	lw	gp,16(sp)
  402130:	2403ffff 	li	v1,-1
  402134:	10430037 	beq	v0,v1,402214 <_init+0xa20>
  402138:	24040001 	li	a0,1
  40213c:	8f998140 	lw	t9,-32448(gp) <sleep>
  402140:	00000000 	nop
  402144:	0320f809 	jalr	t9
  402148:	00000000 	nop
  40214c:	8fbc0010 	lw	gp,16(sp)
  402150:	26100001 	addiu	s0,s0,1
  402154:	2a02003d 	slti	v0,s0,61
  402158:	1440ffd9 	bnez	v0,4020c0 <_init+0x8cc>
  40215c:	3c026666 	lui	v0,0x6666
  402160:	8fa500a8 	lw	a1,168(sp)
  402164:	8f848020 	lw	a0,-32736(gp)
  402168:	00000000 	nop
  40216c:	24843344 	addiu	a0,a0,13124		# "Cannot kill act_sip process: %d"
  402170:	8f998100 	lw	t9,-32512(gp) <printf>
  402174:	00000000 	nop
  402178:	0320f809 	jalr	t9
  40217c:	00000000 	nop
  402180:	8fbc0010 	lw	gp,16(sp)
  402184:	00000000 	nop
  402188:	8f8480d4 	lw	a0,-32556(gp)
  40218c:	8f908224 	lw	s0,-32220(gp)
  402190:	00000000 	nop
  402194:	02002821 	move	a1,s0
  402198:	8f998018 	lw	t9,-32744(gp)
  40219c:	00000000 	nop
  4021a0:	27392838 	addiu	t9,t9,10296		# 0x402838
  4021a4:	00000000 	nop
  4021a8:	0320f809 	jalr	t9
  4021ac:	00000000 	nop
  4021b0:	8fbc0010 	lw	gp,16(sp)
  4021b4:	24040bb8 	li	a0,3000
  4021b8:	8f9981e8 	lw	t9,-32280(gp) <sys_sleep>
  4021bc:	00000000 	nop
  4021c0:	0320f809 	jalr	t9
  4021c4:	00000000 	nop
  4021c8:	8fbc0010 	lw	gp,16(sp)
  4021cc:	00000000 	nop
  4021d0:	8f8480e8 	lw	a0,-32536(gp)
  4021d4:	02002821 	move	a1,s0
  4021d8:	8f998018 	lw	t9,-32744(gp)
  4021dc:	00000000 	nop
  4021e0:	27392838 	addiu	t9,t9,10296		# 0x402838
  4021e4:	00000000 	nop
  4021e8:	0320f809 	jalr	t9
  4021ec:	00000000 	nop
  4021f0:	8fbc0010 	lw	gp,16(sp)
  4021f4:	00000000 	nop
  4021f8:	8f998018 	lw	t9,-32744(gp)
  4021fc:	00000000 	nop
  402200:	273929a0 	addiu	t9,t9,10656		# 0x4029a0
  402204:	00000000 	nop
  402208:	0320f809 	jalr	t9
  40220c:	00000000 	nop
  402210:	8fbc0010 	lw	gp,16(sp)
  402214:	8fbf00c4 	lw	ra,196(sp)
  402218:	8fb300bc 	lw	s3,188(sp)
  40221c:	8fb200b8 	lw	s2,184(sp)
  402220:	8fb100b4 	lw	s1,180(sp)
  402224:	8fb000b0 	lw	s0,176(sp)
  402228:	03e00008 	jr	ra
  40222c:	27bd00c8 	addiu	sp,sp,200
  
00402230 <probe_recv>:
  402230:	3c1c0fc0 	lui	gp,0xfc0
  402234:	279c7060 	addiu	gp,gp,28768
  402238:	0399e021 	addu	gp,gp,t9
  40223c:	27bdfe18 	addiu	sp,sp,-488
  402240:	afbc0018 	sw	gp,24(sp)
  402244:	afbf01e0 	sw	ra,480(sp)
  402248:	afbc01dc 	sw	gp,476(sp)
  40224c:	afb601d8 	sw	s6,472(sp)
  402250:	afb501d4 	sw	s5,468(sp)
  402254:	afb401d0 	sw	s4,464(sp)
  402258:	afb301cc 	sw	s3,460(sp)
  40225c:	afb201c8 	sw	s2,456(sp)
  402260:	afb101c4 	sw	s1,452(sp)
  402264:	afb001c0 	sw	s0,448(sp)
  402268:	0080a821 	move	s5,a0
  40226c:	8f848020 	lw	a0,-32736(gp)
  402270:	00000000 	nop
  402274:	24843368 	addiu	a0,a0,13160		# "probe_recv(%d)"
  402278:	00a09021 	move	s2,a1
  40227c:	00c08821 	move	s1,a2
  402280:	02202821 	move	a1,s1
  402284:	00e0b021 	move	s6,a3
  402288:	8f998100 	lw	t9,-32512(gp) <printf>
  40228c:	00000000 	nop
  402290:	0320f809 	jalr	t9
  402294:	00000000 	nop
  402298:	8fbc0018 	lw	gp,24(sp)
  40229c:	1a20015c 	blez	s1,402810 <_init+0x101c>
  4022a0:	24020001 	li	v0,1
  4022a4:	16220028 	bne	s1,v0,402348 <_init+0xb54>
  4022a8:	2402003f 	li	v0,63
  4022ac:	82430000 	lb	v1,0(s2)
  4022b0:	00000000 	nop
  4022b4:	14620026 	bne	v1,v0,402350 <_init+0xb5c>
  4022b8:	24020040 	li	v0,64
  4022bc:	27a40020 	addiu	a0,sp,32
  4022c0:	8f858020 	lw	a1,-32736(gp)
  4022c4:	00000000 	nop
  4022c8:	24a53378 	addiu	a1,a1,13176
  4022cc:	8f828184 	lw	v0,-32380(gp)
  4022d0:	00000000 	nop
  4022d4:	2442008c 	addiu	v0,v0,140
  4022d8:	80430001 	lb	v1,1(v0)
  4022dc:	8f868020 	lw	a2,-32736(gp)
  4022e0:	00000000 	nop
  4022e4:	24c6339c 	addiu	a2,a2,13212		# "DPH-128MS"
  4022e8:	afa30010 	sw	v1,16(sp)
  4022ec:	80430002 	lb	v1,2(v0)
  4022f0:	80470000 	lb	a3,0(v0)
  4022f4:	afa30014 	sw	v1,20(sp)
  4022f8:	8f998060 	lw	t9,-32672(gp) <sprintf>
  4022fc:	00000000 	nop
  402300:	0320f809 	jalr	t9
  402304:	00000000 	nop
  402308:	8fbc0018 	lw	gp,24(sp)
  40230c:	27a40020 	addiu	a0,sp,32
  402310:	8f998144 	lw	t9,-32444(gp) <strlen>
  402314:	00000000 	nop
  402318:	0320f809 	jalr	t9
  40231c:	00000000 	nop
  402320:	8fbc0018 	lw	gp,24(sp)
  402324:	02a02021 	move	a0,s5
  402328:	27a50020 	addiu	a1,sp,32
  40232c:	00403021 	move	a2,v0
  402330:	02c03821 	move	a3,s6
  402334:	8f998264 	lw	t9,-32156(gp) <udp_sendto>
  402338:	00000000 	nop
  40233c:	0320f809 	jalr	t9
  402340:	00000000 	nop
  402344:	8fbc0018 	lw	gp,24(sp)
  402348:	82430000 	lb	v1,0(s2)
  40234c:	24020040 	li	v0,64
  402350:	10620003 	beq	v1,v0,402360 <_init+0xb6c>
  402354:	24020023 	li	v0,35
  402358:	1462012d 	bne	v1,v0,402810 <_init+0x101c>
  40235c:	00000000 	nop
  402360:	27b00020 	addiu	s0,sp,32
  402364:	02002021 	move	a0,s0
  402368:	00002821 	move	a1,zero
  40236c:	24060100 	li	a2,256
  402370:	38620040 	xori	v0,v1,0x40
  402374:	0002a02b 	sltu	s4,zero,v0
  402378:	8f998090 	lw	t9,-32624(gp) <memset>
  40237c:	00000000 	nop
  402380:	0320f809 	jalr	t9
  402384:	00000000 	nop
  402388:	8fbc0018 	lw	gp,24(sp)
  40238c:	02002021 	move	a0,s0
  402390:	26450002 	addiu	a1,s2,2
  402394:	2631fffe 	addiu	s1,s1,-2
  402398:	02203021 	move	a2,s1
  40239c:	8f9980ec 	lw	t9,-32532(gp) <memcpy>
  4023a0:	00000000 	nop
  4023a4:	0320f809 	jalr	t9
  4023a8:	00000000 	nop
  4023ac:	8fbc0018 	lw	gp,24(sp)
  4023b0:	02002021 	move	a0,s0
  4023b4:	8f858020 	lw	a1,-32736(gp)
  4023b8:	00000000 	nop
  4023bc:	24a5339c 	addiu	a1,a1,13212		# "DPH-128MS"
  4023c0:	02203021 	move	a2,s1
  4023c4:	8f9981c8 	lw	t9,-32312(gp) <RC4Cry>
  4023c8:	00000000 	nop
  4023cc:	0320f809 	jalr	t9
  4023d0:	00000000 	nop
  4023d4:	8fbc0018 	lw	gp,24(sp)
  4023d8:	00009021 	move	s2,zero
  4023dc:	00008021 	move	s0,zero
  4023e0:	27b30120 	addiu	s3,sp,288
  4023e4:	02602021 	move	a0,s3
  4023e8:	00002821 	move	a1,zero
  4023ec:	240600a0 	li	a2,160
  4023f0:	8f998090 	lw	t9,-32624(gp) <memset>
  4023f4:	00000000 	nop
  4023f8:	0320f809 	jalr	t9
  4023fc:	00000000 	nop
  402400:	8fbc0018 	lw	gp,24(sp)
  402404:	1a20003a 	blez	s1,4024f0 <_init+0xcfc>
  402408:	00003821 	move	a3,zero
  40240c:	27a40020 	addiu	a0,sp,32
  402410:	00871021 	addu	v0,a0,a3
  402414:	80460000 	lb	a2,0(v0)
  402418:	2402003b 	li	v0,59
  40241c:	14c20022 	bne	a2,v0,4024a8 <_init+0xcb4>
  402420:	24020028 	li	v0,40
  402424:	00e41021 	addu	v0,a3,a0
  402428:	80450001 	lb	a1,1(v0)
  40242c:	24020021 	li	v0,33
  402430:	14a2001d 	bne	a1,v0,4024a8 <_init+0xcb4>
  402434:	24020028 	li	v0,40
  402438:	00e41021 	addu	v0,a3,a0
  40243c:	80430002 	lb	v1,2(v0)
  402440:	24020073 	li	v0,115
  402444:	14620018 	bne	v1,v0,4024a8 <_init+0xcb4>
  402448:	24020028 	li	v0,40
  40244c:	00e41021 	addu	v0,a3,a0
  402450:	80430003 	lb	v1,3(v0)
  402454:	24020065 	li	v0,101
  402458:	14620013 	bne	v1,v0,4024a8 <_init+0xcb4>
  40245c:	24020028 	li	v0,40
  402460:	00e41021 	addu	v0,a3,a0
  402464:	80430004 	lb	v1,4(v0)
  402468:	24020070 	li	v0,112
  40246c:	1462000e 	bne	v1,v0,4024a8 <_init+0xcb4>
  402470:	24020028 	li	v0,40
  402474:	00e41021 	addu	v0,a3,a0
  402478:	80420005 	lb	v0,5(v0)
  40247c:	00000000 	nop
  402480:	14450009 	bne	v0,a1,4024a8 <_init+0xcb4>
  402484:	24020028 	li	v0,40
  402488:	00e41021 	addu	v0,a3,a0
  40248c:	80420006 	lb	v0,6(v0)
  402490:	00000000 	nop
  402494:	14460004 	bne	v0,a2,4024a8 <_init+0xcb4>
  402498:	24020028 	li	v0,40
  40249c:	24e70007 	addiu	a3,a3,7
  4024a0:	26100001 	addiu	s0,s0,1
  4024a4:	00009021 	move	s2,zero
  4024a8:	02020018 	mult	s0,v0
  4024ac:	00871821 	addu	v1,a0,a3
  4024b0:	90630000 	lbu	v1,0(v1)
  4024b4:	00001012 	mflo	v0
  4024b8:	02421021 	addu	v0,s2,v0
  4024bc:	02621021 	addu	v0,s3,v0
  4024c0:	a0430000 	sb	v1,0(v0)
  4024c4:	2a020002 	slti	v0,s0,2
  4024c8:	10400003 	beqz	v0,4024d8 <_init+0xce4>
  4024cc:	26520001 	addiu	s2,s2,1
  4024d0:	10000002 	b	4024dc <_init+0xce8>
  4024d4:	2a42001f 	slti	v0,s2,31
  4024d8:	2a42000b 	slti	v0,s2,11
  4024dc:	10400004 	beqz	v0,4024f0 <_init+0xcfc>
  4024e0:	24e70001 	addiu	a3,a3,1
  4024e4:	00f1102a 	slt	v0,a3,s1
  4024e8:	1440ffc9 	bnez	v0,402410 <_init+0xc1c>
  4024ec:	27a40020 	addiu	a0,sp,32
  4024f0:	12800070 	beqz	s4,4026b4 <_init+0xec0>
  4024f4:	27a50120 	addiu	a1,sp,288
  4024f8:	8f908184 	lw	s0,-32380(gp)
  4024fc:	00000000 	nop
  402500:	261014d4 	addiu	s0,s0,5332
  402504:	02002021 	move	a0,s0
  402508:	8f99823c 	lw	t9,-32196(gp) <strcmp>
  40250c:	00000000 	nop
  402510:	0320f809 	jalr	t9
  402514:	00000000 	nop
  402518:	8fbc0018 	lw	gp,24(sp)
  40251c:	1440007a 	bnez	v0,402708 <_init+0xf14>
  402520:	27a40020 	addiu	a0,sp,32
  402524:	2604ec48 	addiu	a0,s0,-5048
  402528:	27a50148 	addiu	a1,sp,328
  40252c:	8f99823c 	lw	t9,-32196(gp) <strcmp>
  402530:	00000000 	nop
  402534:	0320f809 	jalr	t9
  402538:	00000000 	nop
  40253c:	8fbc0018 	lw	gp,24(sp)
  402540:	14400071 	bnez	v0,402708 <_init+0xf14>
  402544:	27a40020 	addiu	a0,sp,32
  402548:	83a20170 	lb	v0,368(sp)
  40254c:	00000000 	nop
  402550:	2447ffd0 	addiu	a3,v0,-48
  402554:	28e20007 	slti	v0,a3,7
  402558:	14400004 	bnez	v0,40256c <_init+0xd78>
  40255c:	2403feff 	li	v1,-257
  402560:	8e02ee74 	lw	v0,-4492(s0)
  402564:	10000004 	b	402578 <_init+0xd84>
  402568:	34420100 	ori	v0,v0,0x100
  40256c:	8e02ee74 	lw	v0,-4492(s0)
  402570:	00000000 	nop
  402574:	00431024 	and	v0,v0,v1
  402578:	ae02ee74 	sw	v0,-4492(s0)
  40257c:	8f848184 	lw	a0,-32380(gp)
  402580:	00000000 	nop
  402584:	24840348 	addiu	a0,a0,840
  402588:	8c830000 	lw	v1,0(a0)
  40258c:	2402ff1f 	li	v0,-225
  402590:	00621824 	and	v1,v1,v0
  402594:	30e20007 	andi	v0,a3,0x7
  402598:	00021140 	sll	v0,v0,0x5
  40259c:	00621825 	or	v1,v1,v0
  4025a0:	83a20171 	lb	v0,369(sp)
  4025a4:	00000000 	nop
  4025a8:	2447ffd0 	addiu	a3,v0,-48
  4025ac:	24020002 	li	v0,2
  4025b0:	14e20007 	bne	a3,v0,4025d0 <_init+0xddc>
  4025b4:	ac830000 	sw	v1,0(a0)
  4025b8:	8c820008 	lw	v0,8(a0)
  4025bc:	2403bfff 	li	v1,-16385
  4025c0:	34420002 	ori	v0,v0,0x2
  4025c4:	00431024 	and	v0,v0,v1
  4025c8:	1000000a 	b	4025f4 <_init+0xe00>
  4025cc:	ac820008 	sw	v0,8(a0)
  4025d0:	8c830008 	lw	v1,8(a0)
  4025d4:	2402fffd 	li	v0,-3
  4025d8:	00621824 	and	v1,v1,v0
  4025dc:	2402bfff 	li	v0,-16385
  4025e0:	00621824 	and	v1,v1,v0
  4025e4:	30e20001 	andi	v0,a3,0x1
  4025e8:	00021380 	sll	v0,v0,0xe
  4025ec:	00621825 	or	v1,v1,v0
  4025f0:	ac830008 	sw	v1,8(a0)
  4025f4:	3c08fffe 	lui	t0,0xfffe
  4025f8:	3508ffff 	ori	t0,t0,0xffff
  4025fc:	8f898184 	lw	t1,-32380(gp)
  402600:	00000000 	nop
  402604:	2529033c 	addiu	t1,t1,828
  402608:	2524fcc4 	addiu	a0,t1,-828
  40260c:	24051550 	li	a1,5456
  402610:	00003021 	move	a2,zero
  402614:	83a20172 	lb	v0,370(sp)
  402618:	8d230000 	lw	v1,0(t1)
  40261c:	2447ffd0 	addiu	a3,v0,-48
  402620:	2402fffe 	li	v0,-2
  402624:	00621824 	and	v1,v1,v0
  402628:	30e20001 	andi	v0,a3,0x1
  40262c:	00621825 	or	v1,v1,v0
  402630:	83a70173 	lb	a3,371(sp)
  402634:	00681824 	and	v1,v1,t0
  402638:	24e7ffd0 	addiu	a3,a3,-48
  40263c:	30e20001 	andi	v0,a3,0x1
  402640:	00021400 	sll	v0,v0,0x10
  402644:	00621825 	or	v1,v1,v0
  402648:	ad230000 	sw	v1,0(t1)
  40264c:	8f998020 	lw	t9,-32736(gp)
  402650:	00000000 	nop
  402654:	273992e4 	addiu	t9,t9,-27932
  402658:	00000000 	nop
  40265c:	0320f809 	jalr	t9
  402660:	00000000 	nop
  402664:	8fbc0018 	lw	gp,24(sp)
  402668:	24040007 	li	a0,7
  40266c:	8f998018 	lw	t9,-32744(gp)
  402670:	00000000 	nop
  402674:	27391e34 	addiu	t9,t9,7732		# 0x401e34
  402678:	00000000 	nop
  40267c:	0320f809 	jalr	t9
  402680:	00000000 	nop
  402684:	8fbc0018 	lw	gp,24(sp)
  402688:	27a40020 	addiu	a0,sp,32
  40268c:	8f858020 	lw	a1,-32736(gp)
  402690:	00000000 	nop
  402694:	24a533b8 	addiu	a1,a1,13240
  402698:	8f998060 	lw	t9,-32672(gp) <sprintf>
  40269c:	00000000 	nop
  4026a0:	0320f809 	jalr	t9
  4026a4:	00000000 	nop
  4026a8:	8fbc0018 	lw	gp,24(sp)
  4026ac:	1000004a 	b	4027d8 <_init+0xfe4>
  4026b0:	27a40020 	addiu	a0,sp,32
  4026b4:	8f908184 	lw	s0,-32380(gp)
  4026b8:	00000000 	nop
  4026bc:	261014d4 	addiu	s0,s0,5332
  4026c0:	02002021 	move	a0,s0
  4026c4:	8f99823c 	lw	t9,-32196(gp) <strcmp>
  4026c8:	00000000 	nop
  4026cc:	0320f809 	jalr	t9
  4026d0:	00000000 	nop
  4026d4:	8fbc0018 	lw	gp,24(sp)
  4026d8:	1440000b 	bnez	v0,402708 <_init+0xf14>
  4026dc:	27a40020 	addiu	a0,sp,32
  4026e0:	2611ec48 	addiu	s1,s0,-5048
  4026e4:	02202021 	move	a0,s1
  4026e8:	27a50170 	addiu	a1,sp,368
  4026ec:	8f99823c 	lw	t9,-32196(gp) <strcmp>
  4026f0:	00000000 	nop
  4026f4:	0320f809 	jalr	t9
  4026f8:	00000000 	nop
  4026fc:	8fbc0018 	lw	gp,24(sp)
  402700:	1040000b 	beqz	v0,402730 <_init+0xf3c>
  402704:	27a40020 	addiu	a0,sp,32
  402708:	8f858020 	lw	a1,-32736(gp)
  40270c:	00000000 	nop
  402710:	24a533a8 	addiu	a1,a1,13224
  402714:	8f998060 	lw	t9,-32672(gp) <sprintf>
  402718:	00000000 	nop
  40271c:	0320f809 	jalr	t9
  402720:	00000000 	nop
  402724:	8fbc0018 	lw	gp,24(sp)
  402728:	1000002b 	b	4027d8 <_init+0xfe4>
  40272c:	27a40020 	addiu	a0,sp,32
  402730:	02002021 	move	a0,s0
  402734:	27a50148 	addiu	a1,sp,328
  402738:	8f998030 	lw	t9,-32720(gp) <strcpy>
  40273c:	00000000 	nop
  402740:	0320f809 	jalr	t9
  402744:	00000000 	nop
  402748:	8fbc0018 	lw	gp,24(sp)
  40274c:	02202021 	move	a0,s1
  402750:	27a50198 	addiu	a1,sp,408
  402754:	8f998030 	lw	t9,-32720(gp) <strcpy>
  402758:	00000000 	nop
  40275c:	0320f809 	jalr	t9
  402760:	00000000 	nop
  402764:	8fbc0018 	lw	gp,24(sp)
  402768:	2604eb2c 	addiu	a0,s0,-5332
  40276c:	24051550 	li	a1,5456
  402770:	00003021 	move	a2,zero
  402774:	8f998020 	lw	t9,-32736(gp)
  402778:	00000000 	nop
  40277c:	273992e4 	addiu	t9,t9,-27932
  402780:	00000000 	nop
  402784:	0320f809 	jalr	t9
  402788:	00000000 	nop
  40278c:	8fbc0018 	lw	gp,24(sp)
  402790:	24040004 	li	a0,4
  402794:	8f998018 	lw	t9,-32744(gp)
  402798:	00000000 	nop
  40279c:	27391e34 	addiu	t9,t9,7732		# 0x401e34
  4027a0:	00000000 	nop
  4027a4:	0320f809 	jalr	t9
  4027a8:	00000000 	nop
  4027ac:	8fbc0018 	lw	gp,24(sp)
  4027b0:	27a40020 	addiu	a0,sp,32
  4027b4:	8f858020 	lw	a1,-32736(gp)
  4027b8:	00000000 	nop
  4027bc:	24a533b8 	addiu	a1,a1,13240
  4027c0:	8f998060 	lw	t9,-32672(gp) <sprintf>
  4027c4:	00000000 	nop
  4027c8:	0320f809 	jalr	t9
  4027cc:	00000000 	nop
  4027d0:	8fbc0018 	lw	gp,24(sp)
  4027d4:	27a40020 	addiu	a0,sp,32
  4027d8:	8f998144 	lw	t9,-32444(gp) <strlen>
  4027dc:	00000000 	nop
  4027e0:	0320f809 	jalr	t9
  4027e4:	00000000 	nop
  4027e8:	8fbc0018 	lw	gp,24(sp)
  4027ec:	02a02021 	move	a0,s5
  4027f0:	27a50020 	addiu	a1,sp,32
  4027f4:	00403021 	move	a2,v0
  4027f8:	02c03821 	move	a3,s6
  4027fc:	8f998264 	lw	t9,-32156(gp) <udp_sendto>
  402800:	00000000 	nop
  402804:	0320f809 	jalr	t9
  402808:	00000000 	nop
  40280c:	8fbc0018 	lw	gp,24(sp)
  402810:	8fbf01e0 	lw	ra,480(sp)
  402814:	8fb601d8 	lw	s6,472(sp)
  402818:	8fb501d4 	lw	s5,468(sp)
  40281c:	8fb401d0 	lw	s4,464(sp)
  402820:	8fb301cc 	lw	s3,460(sp)
  402824:	8fb201c8 	lw	s2,456(sp)
  402828:	8fb101c4 	lw	s1,452(sp)
  40282c:	8fb001c0 	lw	s0,448(sp)
  402830:	03e00008 	jr	ra
  402834:	27bd01e8 	addiu	sp,sp,488
  
  
  402838:	3c1c0fc0 	lui	gp,0xfc0
  40283c:	279c6a58 	addiu	gp,gp,27224
  402840:	0399e021 	addu	gp,gp,t9
  402844:	27bdffd0 	addiu	sp,sp,-48
  402848:	afbc0010 	sw	gp,16(sp)
  40284c:	afbf0028 	sw	ra,40(sp)
  402850:	afbc0024 	sw	gp,36(sp)
  402854:	afb20020 	sw	s2,32(sp)
  402858:	afb1001c 	sw	s1,28(sp)
  40285c:	afb00018 	sw	s0,24(sp)
  402860:	00808021 	move	s0,a0
  402864:	00002021 	move	a0,zero
  402868:	00a09021 	move	s2,a1
  40286c:	8f9981ac 	lw	t9,-32340(gp) <FillScreen>
  402870:	00000000 	nop
  402874:	0320f809 	jalr	t9
  402878:	00000000 	nop
  40287c:	8fbc0010 	lw	gp,16(sp)
  402880:	12400028 	beqz	s2,402924 <_init+0x1130>
  402884:	02002021 	move	a0,s0
  402888:	8f998144 	lw	t9,-32444(gp) <strlen>
  40288c:	00000000 	nop
  402890:	0320f809 	jalr	t9
  402894:	00000000 	nop
  402898:	8fbc0010 	lw	gp,16(sp)
  40289c:	24050014 	li	a1,20
  4028a0:	24110006 	li	s1,6
  4028a4:	00510018 	mult	v0,s1
  4028a8:	02003021 	move	a2,s0
  4028ac:	00003821 	move	a3,zero
  4028b0:	24100080 	li	s0,128
  4028b4:	00001012 	mflo	v0
  4028b8:	02021023 	subu	v0,s0,v0
  4028bc:	00022042 	srl	a0,v0,0x1
  4028c0:	8f99824c 	lw	t9,-32180(gp) <LCDDrawString>
  4028c4:	00000000 	nop
  4028c8:	0320f809 	jalr	t9
  4028cc:	00000000 	nop
  4028d0:	8fbc0010 	lw	gp,16(sp)
  4028d4:	02402021 	move	a0,s2
  4028d8:	8f998144 	lw	t9,-32444(gp) <strlen>
  4028dc:	00000000 	nop
  4028e0:	0320f809 	jalr	t9
  4028e4:	00000000 	nop
  4028e8:	8fbc0010 	lw	gp,16(sp)
  4028ec:	00510018 	mult	v0,s1
  4028f0:	24050020 	li	a1,32
  4028f4:	02403021 	move	a2,s2
  4028f8:	00003821 	move	a3,zero
  4028fc:	00001012 	mflo	v0
  402900:	02028023 	subu	s0,s0,v0
  402904:	00102042 	srl	a0,s0,0x1
  402908:	8f99824c 	lw	t9,-32180(gp) <LCDDrawString>
  40290c:	00000000 	nop
  402910:	0320f809 	jalr	t9
  402914:	00000000 	nop
  402918:	8fbc0010 	lw	gp,16(sp)
  40291c:	10000015 	b	402974 <_init+0x1180>
  402920:	00000000 	nop
  402924:	8f998144 	lw	t9,-32444(gp) <strlen>
  402928:	00000000 	nop
  40292c:	0320f809 	jalr	t9
  402930:	00000000 	nop
  402934:	8fbc0010 	lw	gp,16(sp)
  402938:	2405001a 	li	a1,26
  40293c:	24030006 	li	v1,6
  402940:	00430018 	mult	v0,v1
  402944:	02003021 	move	a2,s0
  402948:	00003821 	move	a3,zero
  40294c:	24040080 	li	a0,128
  402950:	00001012 	mflo	v0
  402954:	00822023 	subu	a0,a0,v0
  402958:	00042042 	srl	a0,a0,0x1
  40295c:	8f99824c 	lw	t9,-32180(gp) <LCDDrawString>
  402960:	00000000 	nop
  402964:	0320f809 	jalr	t9
  402968:	00000000 	nop
  40296c:	8fbc0010 	lw	gp,16(sp)
  402970:	00000000 	nop
  402974:	8f998178 	lw	t9,-32392(gp) <LCDFlushScreen>
  402978:	00000000 	nop
  40297c:	0320f809 	jalr	t9
  402980:	00000000 	nop
  402984:	8fbc0010 	lw	gp,16(sp)
  402988:	8fbf0028 	lw	ra,40(sp)
  40298c:	8fb20020 	lw	s2,32(sp)
  402990:	8fb1001c 	lw	s1,28(sp)
  402994:	8fb00018 	lw	s0,24(sp)
  402998:	03e00008 	jr	ra
  40299c:	27bd0030 	addiu	sp,sp,48
  4029a0:	3c1c0fc0 	lui	gp,0xfc0
  4029a4:	279c68f0 	addiu	gp,gp,26864
  4029a8:	0399e021 	addu	gp,gp,t9
  4029ac:	27bdffe0 	addiu	sp,sp,-32
  4029b0:	afbc0010 	sw	gp,16(sp)
  4029b4:	afbf001c 	sw	ra,28(sp)
  4029b8:	8f84807c 	lw	a0,-32644(gp)
  4029bc:	00000000 	nop
  4029c0:	8c840000 	lw	a0,0(a0)
  4029c4:	00000000 	nop
  4029c8:	10800014 	beqz	a0,402a1c <_init+0x1228>
  4029cc:	afbc0018 	sw	gp,24(sp)
  4029d0:	8f998114 	lw	t9,-32492(gp) <shmdt>
  4029d4:	00000000 	nop
  4029d8:	0320f809 	jalr	t9
  4029dc:	00000000 	nop
  4029e0:	8fbc0010 	lw	gp,16(sp)
  4029e4:	00000000 	nop
  4029e8:	8f81807c 	lw	at,-32644(gp)
  4029ec:	00000000 	nop
  4029f0:	ac200000 	sw	zero,0(at)
  4029f4:	8f8480bc 	lw	a0,-32580(gp)
  4029f8:	00000000 	nop
  4029fc:	8c840000 	lw	a0,0(a0)
  402a00:	00002821 	move	a1,zero
  402a04:	00003021 	move	a2,zero
  402a08:	8f9980e0 	lw	t9,-32544(gp) <shmctl>
  402a0c:	00000000 	nop
  402a10:	0320f809 	jalr	t9
  402a14:	00000000 	nop
  402a18:	8fbc0010 	lw	gp,16(sp)
  402a1c:	24040001 	li	a0,1
  402a20:	8f998258 	lw	t9,-32168(gp) <LED_Switch_all>
  402a24:	00000000 	nop
  402a28:	0320f809 	jalr	t9
  402a2c:	00000000 	nop
  402a30:	8fbc0010 	lw	gp,16(sp)
  402a34:	00000000 	nop
  402a38:	8f848020 	lw	a0,-32736(gp)
  402a3c:	00000000 	nop
  402a40:	248433c4 	addiu	a0,a0,13252		# "reboot"
  402a44:	8f9981ec 	lw	t9,-32276(gp) <system>
  402a48:	00000000 	nop
  402a4c:	0320f809 	jalr	t9
  402a50:	00000000 	nop
  402a54:	8fbc0010 	lw	gp,16(sp)
  402a58:	24040001 	li	a0,1
  402a5c:	8f998140 	lw	t9,-32448(gp) <sleep>
  402a60:	00000000 	nop
  402a64:	0320f809 	jalr	t9
  402a68:	00000000 	nop
  402a6c:	8fbc0010 	lw	gp,16(sp)
  402a70:	1000fffa 	b	402a5c <_init+0x1268>
  402a74:	24040001 	li	a0,1
  402a78:	3c1c0fc0 	lui	gp,0xfc0
  402a7c:	279c6818 	addiu	gp,gp,26648
  402a80:	0399e021 	addu	gp,gp,t9
  402a84:	27bdff90 	addiu	sp,sp,-112
  402a88:	afbc0010 	sw	gp,16(sp)
  402a8c:	afbf0068 	sw	ra,104(sp)
  402a90:	afbc0064 	sw	gp,100(sp)
  402a94:	afb20060 	sw	s2,96(sp)
  402a98:	afb1005c 	sw	s1,92(sp)
  402a9c:	afb00058 	sw	s0,88(sp)
  402aa0:	00809021 	move	s2,a0
  402aa4:	27a40018 	addiu	a0,sp,24
  402aa8:	00a08021 	move	s0,a1
  402aac:	8f858020 	lw	a1,-32736(gp)
  402ab0:	00000000 	nop
  402ab4:	24a533cc 	addiu	a1,a1,13260		# "/tmp/%s"
  402ab8:	00c08821 	move	s1,a2
  402abc:	02403021 	move	a2,s2
  402ac0:	8f998060 	lw	t9,-32672(gp) <sprintf>
  402ac4:	00000000 	nop
  402ac8:	0320f809 	jalr	t9
  402acc:	00000000 	nop
  402ad0:	8fbc0010 	lw	gp,16(sp)
  402ad4:	27a40018 	addiu	a0,sp,24
  402ad8:	8f858020 	lw	a1,-32736(gp)
  402adc:	00000000 	nop
  402ae0:	24a533d4 	addiu	a1,a1,13268
  402ae4:	8f99813c 	lw	t9,-32452(gp) <fopen>
  402ae8:	00000000 	nop
  402aec:	0320f809 	jalr	t9
  402af0:	00000000 	nop
  402af4:	8fbc0010 	lw	gp,16(sp)
  402af8:	26040040 	addiu	a0,s0,64
  402afc:	24050001 	li	a1,1
  402b00:	2626ffc0 	addiu	a2,s1,-64
  402b04:	00408021 	move	s0,v0
  402b08:	02003821 	move	a3,s0
  402b0c:	8f99805c 	lw	t9,-32676(gp) <fwrite>
  402b10:	00000000 	nop
  402b14:	0320f809 	jalr	t9
  402b18:	00000000 	nop
  402b1c:	8fbc0010 	lw	gp,16(sp)
  402b20:	02002021 	move	a0,s0
  402b24:	8f99821c 	lw	t9,-32228(gp) <fflush>
  402b28:	00000000 	nop
  402b2c:	0320f809 	jalr	t9
  402b30:	00000000 	nop
  402b34:	8fbc0010 	lw	gp,16(sp)
  402b38:	02002021 	move	a0,s0
  402b3c:	8f998130 	lw	t9,-32464(gp) <fclose>
  402b40:	00000000 	nop
  402b44:	0320f809 	jalr	t9
  402b48:	00000000 	nop
  402b4c:	8fbc0010 	lw	gp,16(sp)
  402b50:	27a40018 	addiu	a0,sp,24
  402b54:	8f858020 	lw	a1,-32736(gp)
  402b58:	00000000 	nop
  402b5c:	24a533fc 	addiu	a1,a1,13308		# "sync;chmod 777 /tmp/%s"
  402b60:	02403021 	move	a2,s2
  402b64:	8f998060 	lw	t9,-32672(gp) <sprintf>
  402b68:	00000000 	nop
  402b6c:	0320f809 	jalr	t9
  402b70:	00000000 	nop
  402b74:	8fbc0010 	lw	gp,16(sp)
  402b78:	27a40018 	addiu	a0,sp,24
  402b7c:	8f9981ec 	lw	t9,-32276(gp) <system>
  402b80:	00000000 	nop
  402b84:	0320f809 	jalr	t9
  402b88:	00000000 	nop
  402b8c:	8fbc0010 	lw	gp,16(sp)
  402b90:	8fbf0068 	lw	ra,104(sp)
  402b94:	8fb20060 	lw	s2,96(sp)
  402b98:	8fb1005c 	lw	s1,92(sp)
  402b9c:	8fb00058 	lw	s0,88(sp)
  402ba0:	00001021 	move	v0,zero
  402ba4:	03e00008 	jr	ra
  402ba8:	27bd0070 	addiu	sp,sp,112
  402bac:	3c1c0fc0 	lui	gp,0xfc0
  402bb0:	279c66e4 	addiu	gp,gp,26340
  402bb4:	0399e021 	addu	gp,gp,t9
  402bb8:	27bdff80 	addiu	sp,sp,-128
  402bbc:	afbc0010 	sw	gp,16(sp)
  402bc0:	afbf007c 	sw	ra,124(sp)
  402bc4:	afbc0078 	sw	gp,120(sp)
  402bc8:	afb70074 	sw	s7,116(sp)
  402bcc:	afb60070 	sw	s6,112(sp)
  402bd0:	afb5006c 	sw	s5,108(sp)
  402bd4:	afb40068 	sw	s4,104(sp)
  402bd8:	afb30064 	sw	s3,100(sp)
  402bdc:	afb20060 	sw	s2,96(sp)
  402be0:	afb1005c 	sw	s1,92(sp)
  402be4:	afb00058 	sw	s0,88(sp)
  402be8:	00809821 	move	s3,a0
  402bec:	00a0b821 	move	s7,a1
  402bf0:	00c0b021 	move	s6,a2
  402bf4:	8f998018 	lw	t9,-32744(gp)
  402bf8:	00000000 	nop
  402bfc:	27395b44 	addiu	t9,t9,23364		# 0x405b44
  402c00:	00000000 	nop
  402c04:	0320f809 	jalr	t9
  402c08:	00000000 	nop
  402c0c:	8fbc0010 	lw	gp,16(sp)
  402c10:	00023280 	sll	a2,v0,0xa
  402c14:	00d6102a 	slt	v0,a2,s6
  402c18:	1040000d 	beqz	v0,402c50 <_init+0x145c>
  402c1c:	0000a021 	move	s4,zero
  402c20:	8f848020 	lw	a0,-32736(gp)
  402c24:	00000000 	nop
  402c28:	24843414 	addiu	a0,a0,13332		# "!9 Write (%s) to Jffs full (free:%d, write:%d)!!"
  402c2c:	02602821 	move	a1,s3
  402c30:	02c03821 	move	a3,s6
  402c34:	8f998100 	lw	t9,-32512(gp) <printf>
  402c38:	00000000 	nop
  402c3c:	0320f809 	jalr	t9
  402c40:	00000000 	nop
  402c44:	8fbc0010 	lw	gp,16(sp)
  402c48:	100000ba 	b	402f34 <_init+0x1740>
  402c4c:	2402ffff 	li	v0,-1
  402c50:	26940001 	addiu	s4,s4,1
  402c54:	2a820004 	slti	v0,s4,4
  402c58:	1440000c 	bnez	v0,402c8c <_init+0x1498>
  402c5c:	27a40018 	addiu	a0,sp,24
  402c60:	8f848020 	lw	a0,-32736(gp)
  402c64:	00000000 	nop
  402c68:	24843448 	addiu	a0,a0,13384		# "!9 Write (%s) to Jffs retry Error (%d)!!"
  402c6c:	02602821 	move	a1,s3
  402c70:	02803021 	move	a2,s4
  402c74:	8f998100 	lw	t9,-32512(gp) <printf>
  402c78:	00000000 	nop
  402c7c:	0320f809 	jalr	t9
  402c80:	00000000 	nop
  402c84:	8fbc0010 	lw	gp,16(sp)
  402c88:	27a40018 	addiu	a0,sp,24
  402c8c:	8f908020 	lw	s0,-32736(gp)
  402c90:	00000000 	nop
  402c94:	26103474 	addiu	s0,s0,13428		# "/sip/%s"
  402c98:	00000000 	nop
  402c9c:	02002821 	move	a1,s0
  402ca0:	02603021 	move	a2,s3
  402ca4:	8f998060 	lw	t9,-32672(gp) <sprintf>
  402ca8:	00000000 	nop
  402cac:	0320f809 	jalr	t9
  402cb0:	00000000 	nop
  402cb4:	8fbc0010 	lw	gp,16(sp)
  402cb8:	27a40018 	addiu	a0,sp,24
  402cbc:	8f858020 	lw	a1,-32736(gp)
  402cc0:	00000000 	nop
  402cc4:	24a533d4 	addiu	a1,a1,13268
  402cc8:	8f99813c 	lw	t9,-32452(gp) <fopen>
  402ccc:	00000000 	nop
  402cd0:	0320f809 	jalr	t9
  402cd4:	00000000 	nop
  402cd8:	8fbc0010 	lw	gp,16(sp)
  402cdc:	00408821 	move	s1,v0
  402ce0:	26f50040 	addiu	s5,s7,64
  402ce4:	02a02021 	move	a0,s5
  402ce8:	24050001 	li	a1,1
  402cec:	26d2ffc0 	addiu	s2,s6,-64
  402cf0:	02403021 	move	a2,s2
  402cf4:	02203821 	move	a3,s1
  402cf8:	8f99805c 	lw	t9,-32676(gp) <fwrite>
  402cfc:	00000000 	nop
  402d00:	0320f809 	jalr	t9
  402d04:	00000000 	nop
  402d08:	8fbc0010 	lw	gp,16(sp)
  402d0c:	02202021 	move	a0,s1
  402d10:	8f99821c 	lw	t9,-32228(gp) <fflush>
  402d14:	00000000 	nop
  402d18:	0320f809 	jalr	t9
  402d1c:	00000000 	nop
  402d20:	8fbc0010 	lw	gp,16(sp)
  402d24:	02202021 	move	a0,s1
  402d28:	8f998130 	lw	t9,-32464(gp) <fclose>
  402d2c:	00000000 	nop
  402d30:	0320f809 	jalr	t9
  402d34:	00000000 	nop
  402d38:	8fbc0010 	lw	gp,16(sp)
  402d3c:	27a40018 	addiu	a0,sp,24
  402d40:	8f858020 	lw	a1,-32736(gp)
  402d44:	00000000 	nop
  402d48:	24a534a0 	addiu	a1,a1,13472		# "sync;chmod 777 /sip/%s"
  402d4c:	02603021 	move	a2,s3
  402d50:	8f998060 	lw	t9,-32672(gp) <sprintf>
  402d54:	00000000 	nop
  402d58:	0320f809 	jalr	t9
  402d5c:	00000000 	nop
  402d60:	8fbc0010 	lw	gp,16(sp)
  402d64:	27a40018 	addiu	a0,sp,24
  402d68:	8f9981ec 	lw	t9,-32276(gp) <system>
  402d6c:	00000000 	nop
  402d70:	0320f809 	jalr	t9
  402d74:	00000000 	nop
  402d78:	8fbc0010 	lw	gp,16(sp)
  402d7c:	00000000 	nop
  402d80:	8f998038 	lw	t9,-32712(gp) <sync>
  402d84:	00000000 	nop
  402d88:	0320f809 	jalr	t9
  402d8c:	00000000 	nop
  402d90:	8fbc0010 	lw	gp,16(sp)
  402d94:	240401f4 	li	a0,500
  402d98:	8f9981e8 	lw	t9,-32280(gp) <sys_sleep>
  402d9c:	00000000 	nop
  402da0:	0320f809 	jalr	t9
  402da4:	00000000 	nop
  402da8:	8fbc0010 	lw	gp,16(sp)
  402dac:	27a40018 	addiu	a0,sp,24
  402db0:	02002821 	move	a1,s0
  402db4:	02603021 	move	a2,s3
  402db8:	8f998060 	lw	t9,-32672(gp) <sprintf>
  402dbc:	00000000 	nop
  402dc0:	0320f809 	jalr	t9
  402dc4:	00000000 	nop
  402dc8:	8fbc0010 	lw	gp,16(sp)
  402dcc:	27a40018 	addiu	a0,sp,24
  402dd0:	8f858020 	lw	a1,-32736(gp)
  402dd4:	00000000 	nop
  402dd8:	24a532dc 	addiu	a1,a1,13020
  402ddc:	8f99813c 	lw	t9,-32452(gp) <fopen>
  402de0:	00000000 	nop
  402de4:	0320f809 	jalr	t9
  402de8:	00000000 	nop
  402dec:	8fbc0010 	lw	gp,16(sp)
  402df0:	00408821 	move	s1,v0
  402df4:	8f848020 	lw	a0,-32736(gp)
  402df8:	00000000 	nop
  402dfc:	248434b8 	addiu	a0,a0,13496		# "!9 Write (%s) To Jffs read error!!"
  402e00:	1220000e 	beqz	s1,402e3c <_init+0x1648>
  402e04:	27a50018 	addiu	a1,sp,24
  402e08:	02402021 	move	a0,s2
  402e0c:	8f998138 	lw	t9,-32456(gp) <my_malloc>
  402e10:	00000000 	nop
  402e14:	0320f809 	jalr	t9
  402e18:	00000000 	nop
  402e1c:	8fbc0010 	lw	gp,16(sp)
  402e20:	00408021 	move	s0,v0
  402e24:	1600000c 	bnez	s0,402e58 <_init+0x1664>
  402e28:	02002021 	move	a0,s0
  402e2c:	8f848020 	lw	a0,-32736(gp)
  402e30:	00000000 	nop
  402e34:	248434dc 	addiu	a0,a0,13532		# "!9 Write (%s) To Jffs Alloc memory error!!"
  402e38:	27a50018 	addiu	a1,sp,24
  402e3c:	8f998100 	lw	t9,-32512(gp) <printf>
  402e40:	00000000 	nop
  402e44:	0320f809 	jalr	t9
  402e48:	00000000 	nop
  402e4c:	8fbc0010 	lw	gp,16(sp)
  402e50:	1000ff80 	b	402c54 <_init+0x1460>
  402e54:	26940001 	addiu	s4,s4,1
  402e58:	24050001 	li	a1,1
  402e5c:	02403021 	move	a2,s2
  402e60:	02203821 	move	a3,s1
  402e64:	8f9981c0 	lw	t9,-32320(gp) <fread>
  402e68:	00000000 	nop
  402e6c:	0320f809 	jalr	t9
  402e70:	00000000 	nop
  402e74:	8fbc0010 	lw	gp,16(sp)
  402e78:	02202021 	move	a0,s1
  402e7c:	8f998130 	lw	t9,-32464(gp) <fclose>
  402e80:	00000000 	nop
  402e84:	0320f809 	jalr	t9
  402e88:	00000000 	nop
  402e8c:	8fbc0010 	lw	gp,16(sp)
  402e90:	02002021 	move	a0,s0
  402e94:	02a02821 	move	a1,s5
  402e98:	02403021 	move	a2,s2
  402e9c:	8f99811c 	lw	t9,-32484(gp) <memcmp>
  402ea0:	00000000 	nop
  402ea4:	0320f809 	jalr	t9
  402ea8:	00000000 	nop
  402eac:	8fbc0010 	lw	gp,16(sp)
  402eb0:	10400011 	beqz	v0,402ef8 <_init+0x1704>
  402eb4:	27a50018 	addiu	a1,sp,24
  402eb8:	8f848020 	lw	a0,-32736(gp)
  402ebc:	00000000 	nop
  402ec0:	248434dc 	addiu	a0,a0,13532		# "!9 Write (%s) To Jffs Alloc memory error!!"
  402ec4:	8f998100 	lw	t9,-32512(gp) <printf>
  402ec8:	00000000 	nop
  402ecc:	0320f809 	jalr	t9
  402ed0:	00000000 	nop
  402ed4:	8fbc0010 	lw	gp,16(sp)
  402ed8:	02002021 	move	a0,s0
  402edc:	8f9981b4 	lw	t9,-32332(gp) <my_free>
  402ee0:	00000000 	nop
  402ee4:	0320f809 	jalr	t9
  402ee8:	00000000 	nop
  402eec:	8fbc0010 	lw	gp,16(sp)
  402ef0:	10000010 	b	402f34 <_init+0x1740>
  402ef4:	2402ffff 	li	v0,-1
  402ef8:	8f848020 	lw	a0,-32736(gp)
  402efc:	00000000 	nop
  402f00:	24843508 	addiu	a0,a0,13576		# "!9 Write (%s) To Jffs Check OK !!"
  402f04:	8f998100 	lw	t9,-32512(gp) <printf>
  402f08:	00000000 	nop
  402f0c:	0320f809 	jalr	t9
  402f10:	00000000 	nop
  402f14:	8fbc0010 	lw	gp,16(sp)
  402f18:	02002021 	move	a0,s0
  402f1c:	8f9981b4 	lw	t9,-32332(gp) <my_free>
  402f20:	00000000 	nop
  402f24:	0320f809 	jalr	t9
  402f28:	00000000 	nop
  402f2c:	8fbc0010 	lw	gp,16(sp)
  402f30:	00001021 	move	v0,zero
  402f34:	8fbf007c 	lw	ra,124(sp)
  402f38:	8fb70074 	lw	s7,116(sp)
  402f3c:	8fb60070 	lw	s6,112(sp)
  402f40:	8fb5006c 	lw	s5,108(sp)
  402f44:	8fb40068 	lw	s4,104(sp)
  402f48:	8fb30064 	lw	s3,100(sp)
  402f4c:	8fb20060 	lw	s2,96(sp)
  402f50:	8fb1005c 	lw	s1,92(sp)
  402f54:	8fb00058 	lw	s0,88(sp)
  402f58:	03e00008 	jr	ra
  402f5c:	27bd0080 	addiu	sp,sp,128
  402f60:	3c1c0fc0 	lui	gp,0xfc0
  402f64:	279c6330 	addiu	gp,gp,25392
  402f68:	0399e021 	addu	gp,gp,t9
  402f6c:	27bdff40 	addiu	sp,sp,-192
  402f70:	afbc0020 	sw	gp,32(sp)
  402f74:	afbf00b8 	sw	ra,184(sp)
  402f78:	afbc00b4 	sw	gp,180(sp)
  402f7c:	afb200b0 	sw	s2,176(sp)
  402f80:	afb100ac 	sw	s1,172(sp)
  402f84:	afb000a8 	sw	s0,168(sp)
  402f88:	00809021 	move	s2,a0
  402f8c:	27b10048 	addiu	s1,sp,72
  402f90:	02202021 	move	a0,s1
  402f94:	00a08021 	move	s0,a1
  402f98:	8f858020 	lw	a1,-32736(gp)
  402f9c:	00000000 	nop
  402fa0:	24a5352c 	addiu	a1,a1,13612		# "ifconfig %s down"
  402fa4:	02403021 	move	a2,s2
  402fa8:	8f998060 	lw	t9,-32672(gp) <sprintf>
  402fac:	00000000 	nop
  402fb0:	0320f809 	jalr	t9
  402fb4:	00000000 	nop
  402fb8:	8fbc0020 	lw	gp,32(sp)
  402fbc:	02202021 	move	a0,s1
  402fc0:	8f9981ec 	lw	t9,-32276(gp) <system>
  402fc4:	00000000 	nop
  402fc8:	0320f809 	jalr	t9
  402fcc:	00000000 	nop
  402fd0:	8fbc0020 	lw	gp,32(sp)
  402fd4:	16000008 	bnez	s0,402ff8 <_init+0x1804>
  402fd8:	27a40028 	addiu	a0,sp,40
  402fdc:	8f998150 	lw	t9,-32432(gp) <sys_lan_mac>
  402fe0:	00000000 	nop
  402fe4:	0320f809 	jalr	t9
  402fe8:	00000000 	nop
  402fec:	8fbc0020 	lw	gp,32(sp)
  402ff0:	10000007 	b	403010 <_init+0x181c>
  402ff4:	27b00030 	addiu	s0,sp,48
  402ff8:	8f9981f8 	lw	t9,-32264(gp) <sys_net_mac>
  402ffc:	00000000 	nop
  403000:	0320f809 	jalr	t9
  403004:	00000000 	nop
  403008:	8fbc0020 	lw	gp,32(sp)
  40300c:	27b00030 	addiu	s0,sp,48
  403010:	02002021 	move	a0,s0
  403014:	8f858020 	lw	a1,-32736(gp)
  403018:	00000000 	nop
  40301c:	24a53540 	addiu	a1,a1,13632		# "%.2x:%.2x:%.2x:%.2x:%.2x:%.2x"
  403020:	93a2002a 	lbu	v0,42(sp)
  403024:	93a3002b 	lbu	v1,43(sp)
  403028:	93a60028 	lbu	a2,40(sp)
  40302c:	93a70029 	lbu	a3,41(sp)
  403030:	afa20010 	sw	v0,16(sp)
  403034:	afa30014 	sw	v1,20(sp)
  403038:	93a2002c 	lbu	v0,44(sp)
  40303c:	93a3002d 	lbu	v1,45(sp)
  403040:	afa20018 	sw	v0,24(sp)
  403044:	afa3001c 	sw	v1,28(sp)
  403048:	8f998060 	lw	t9,-32672(gp) <sprintf>
  40304c:	00000000 	nop
  403050:	0320f809 	jalr	t9
  403054:	00000000 	nop
  403058:	8fbc0020 	lw	gp,32(sp)
  40305c:	02202021 	move	a0,s1
  403060:	8f858020 	lw	a1,-32736(gp)
  403064:	00000000 	nop
  403068:	24a53560 	addiu	a1,a1,13664		# "ifconfig %s hw ether %s"
  40306c:	02403021 	move	a2,s2
  403070:	02003821 	move	a3,s0
  403074:	8f998060 	lw	t9,-32672(gp) <sprintf>
  403078:	00000000 	nop
  40307c:	0320f809 	jalr	t9
  403080:	00000000 	nop
  403084:	8fbc0020 	lw	gp,32(sp)
  403088:	02202021 	move	a0,s1
  40308c:	8f9981ec 	lw	t9,-32276(gp) <system>
  403090:	00000000 	nop
  403094:	0320f809 	jalr	t9
  403098:	00000000 	nop
  40309c:	8fbc0020 	lw	gp,32(sp)
  4030a0:	02202021 	move	a0,s1
  4030a4:	8f858020 	lw	a1,-32736(gp)
  4030a8:	00000000 	nop
  4030ac:	24a53578 	addiu	a1,a1,13688		# "ifconfig %s 0.0.0.0 up"
  4030b0:	02403021 	move	a2,s2
  4030b4:	8f998060 	lw	t9,-32672(gp) <sprintf>
  4030b8:	00000000 	nop
  4030bc:	0320f809 	jalr	t9
  4030c0:	00000000 	nop
  4030c4:	8fbc0020 	lw	gp,32(sp)
  4030c8:	02202021 	move	a0,s1
  4030cc:	8f9981ec 	lw	t9,-32276(gp) <system>
  4030d0:	00000000 	nop
  4030d4:	0320f809 	jalr	t9
  4030d8:	00000000 	nop
  4030dc:	8fbc0020 	lw	gp,32(sp)
  4030e0:	8fbf00b8 	lw	ra,184(sp)
  4030e4:	8fb200b0 	lw	s2,176(sp)
  4030e8:	8fb100ac 	lw	s1,172(sp)
  4030ec:	8fb000a8 	lw	s0,168(sp)
  4030f0:	03e00008 	jr	ra
  4030f4:	27bd00c0 	addiu	sp,sp,192
  
  4030f8:	3c1c0fc0 	lui	gp,0xfc0
  4030fc:	279c6198 	addiu	gp,gp,24984
  403100:	0399e021 	addu	gp,gp,t9
  403104:	27bdff30 	addiu	sp,sp,-208
  403108:	afbc0010 	sw	gp,16(sp)
  40310c:	afbf00cc 	sw	ra,204(sp)
  403110:	afbc00c8 	sw	gp,200(sp)
  403114:	afb500c4 	sw	s5,196(sp)
  403118:	afb400c0 	sw	s4,192(sp)
  40311c:	afb300bc 	sw	s3,188(sp)
  403120:	afb200b8 	sw	s2,184(sp)
  403124:	afb100b4 	sw	s1,180(sp)
  403128:	afb000b0 	sw	s0,176(sp)
  40312c:	0080a821 	move	s5,a0
  403130:	24040002 	li	a0,2
  403134:	24050001 	li	a1,1
  403138:	00003021 	move	a2,zero
  40313c:	8f998050 	lw	t9,-32688(gp) <socket>
  403140:	00000000 	nop
  403144:	0320f809 	jalr	t9
  403148:	00000000 	nop
  40314c:	8fbc0010 	lw	gp,16(sp)
  403150:	00408821 	move	s1,v0
  403154:	0621000b 	bgez	s1,403184 <_init+0x1990>
  403158:	27b00038 	addiu	s0,sp,56
  40315c:	8f848020 	lw	a0,-32736(gp)
  403160:	00000000 	nop
  403164:	248435c0 	addiu	a0,a0,13760		# "socket open error"
  403168:	8f998154 	lw	t9,-32428(gp) <act_printf>
  40316c:	00000000 	nop
  403170:	0320f809 	jalr	t9
  403174:	00000000 	nop
  403178:	8fbc0010 	lw	gp,16(sp)
  40317c:	100000d2 	b	4034c8 <_init+0x1cd4>
  403180:	2402ffff 	li	v0,-1
  403184:	02002021 	move	a0,s0
  403188:	00002821 	move	a1,zero
  40318c:	24060020 	li	a2,32
  403190:	8f998090 	lw	t9,-32624(gp) <memset>
  403194:	00000000 	nop
  403198:	0320f809 	jalr	t9
  40319c:	00000000 	nop
  4031a0:	8fbc0010 	lw	gp,16(sp)
  4031a4:	02002021 	move	a0,s0
  4031a8:	02a02821 	move	a1,s5
  4031ac:	8f998030 	lw	t9,-32720(gp) <strcpy>
  4031b0:	00000000 	nop
  4031b4:	0320f809 	jalr	t9
  4031b8:	00000000 	nop
  4031bc:	8fbc0010 	lw	gp,16(sp)
  4031c0:	24140002 	li	s4,2
  4031c4:	a7b40048 	sh	s4,72(sp)
  4031c8:	27a40018 	addiu	a0,sp,24
  4031cc:	8f858020 	lw	a1,-32736(gp)
  4031d0:	00000000 	nop
  4031d4:	24a53590 	addiu	a1,a1,13712		# "192.168.15.1"
  4031d8:	27b20048 	addiu	s2,sp,72
  4031dc:	8f998030 	lw	t9,-32720(gp) <strcpy>
  4031e0:	00000000 	nop
  4031e4:	0320f809 	jalr	t9
  4031e8:	00000000 	nop
  4031ec:	8fbc0010 	lw	gp,16(sp)
  4031f0:	24040002 	li	a0,2
  4031f4:	27a50018 	addiu	a1,sp,24
  4031f8:	27b3004c 	addiu	s3,sp,76
  4031fc:	02603021 	move	a2,s3
  403200:	8f998234 	lw	t9,-32204(gp) <inet_pton>
  403204:	00000000 	nop
  403208:	0320f809 	jalr	t9
  40320c:	00000000 	nop
  403210:	8fbc0010 	lw	gp,16(sp)
  403214:	0441000a 	bgez	v0,403240 <_init+0x1a4c>
  403218:	02202021 	move	a0,s1
  40321c:	8f848020 	lw	a0,-32736(gp)
  403220:	00000000 	nop
  403224:	248435d4 	addiu	a0,a0,13780		# "!9 inet_pton error"
  403228:	8f998154 	lw	t9,-32428(gp) <act_printf>
  40322c:	00000000 	nop
  403230:	0320f809 	jalr	t9
  403234:	00000000 	nop
  403238:	8fbc0010 	lw	gp,16(sp)
  40323c:	02202021 	move	a0,s1
  403240:	34058916 	li	a1,0x8916
  403244:	02003021 	move	a2,s0
  403248:	8f998094 	lw	t9,-32620(gp) <ioctl>
  40324c:	00000000 	nop
  403250:	0320f809 	jalr	t9
  403254:	00000000 	nop
  403258:	8fbc0010 	lw	gp,16(sp)
  40325c:	00000000 	nop
  403260:	8f848020 	lw	a0,-32736(gp)
  403264:	00000000 	nop
  403268:	248435e8 	addiu	a0,a0,13800		# "device error, can't set ip"
  40326c:	0440008a 	bltz	v0,403498 <_init+0x1ca4>
  403270:	00000000 	nop
  403274:	27a40018 	addiu	a0,sp,24
  403278:	8f858020 	lw	a1,-32736(gp)
  40327c:	00000000 	nop
  403280:	24a535a0 	addiu	a1,a1,13728		# "255.255.255.0"
  403284:	8f998030 	lw	t9,-32720(gp) <strcpy>
  403288:	00000000 	nop
  40328c:	0320f809 	jalr	t9
  403290:	00000000 	nop
  403294:	8fbc0010 	lw	gp,16(sp)
  403298:	24040002 	li	a0,2
  40329c:	27a50018 	addiu	a1,sp,24
  4032a0:	02603021 	move	a2,s3
  4032a4:	8f998234 	lw	t9,-32204(gp) <inet_pton>
  4032a8:	00000000 	nop
  4032ac:	0320f809 	jalr	t9
  4032b0:	00000000 	nop
  4032b4:	8fbc0010 	lw	gp,16(sp)
  4032b8:	0441000a 	bgez	v0,4032e4 <_init+0x1af0>
  4032bc:	02202021 	move	a0,s1
  4032c0:	8f848020 	lw	a0,-32736(gp)
  4032c4:	00000000 	nop
  4032c8:	248435d4 	addiu	a0,a0,13780		# "!9 inet_pton error"
  4032cc:	8f998154 	lw	t9,-32428(gp) <act_printf>
  4032d0:	00000000 	nop
  4032d4:	0320f809 	jalr	t9
  4032d8:	00000000 	nop
  4032dc:	8fbc0010 	lw	gp,16(sp)
  4032e0:	02202021 	move	a0,s1
  4032e4:	3405891c 	li	a1,0x891c
  4032e8:	02003021 	move	a2,s0
  4032ec:	8f998094 	lw	t9,-32620(gp) <ioctl>
  4032f0:	00000000 	nop
  4032f4:	0320f809 	jalr	t9
  4032f8:	00000000 	nop
  4032fc:	8fbc0010 	lw	gp,16(sp)
  403300:	00000000 	nop
  403304:	8f848020 	lw	a0,-32736(gp)
  403308:	00000000 	nop
  40330c:	248435e8 	addiu	a0,a0,13800		# "device error, can't set ip"
  403310:	04400061 	bltz	v0,403498 <_init+0x1ca4>
  403314:	34058913 	li	a1,0x8913
  403318:	02202021 	move	a0,s1
  40331c:	02003021 	move	a2,s0
  403320:	8f998094 	lw	t9,-32620(gp) <ioctl>
  403324:	00000000 	nop
  403328:	0320f809 	jalr	t9
  40332c:	00000000 	nop
  403330:	8fbc0010 	lw	gp,16(sp)
  403334:	0440005d 	bltz	v0,4034ac <_init+0x1cb8>
  403338:	02202021 	move	a0,s1
  40333c:	34058914 	li	a1,0x8914
  403340:	97a20048 	lhu	v0,72(sp)
  403344:	02003021 	move	a2,s0
  403348:	34420041 	ori	v0,v0,0x41
  40334c:	a7a20048 	sh	v0,72(sp)
  403350:	8f998094 	lw	t9,-32620(gp) <ioctl>
  403354:	00000000 	nop
  403358:	0320f809 	jalr	t9
  40335c:	00000000 	nop
  403360:	8fbc0010 	lw	gp,16(sp)
  403364:	04400051 	bltz	v0,4034ac <_init+0x1cb8>
  403368:	27b00058 	addiu	s0,sp,88
  40336c:	02002021 	move	a0,s0
  403370:	00002821 	move	a1,zero
  403374:	24060054 	li	a2,84
  403378:	8f998090 	lw	t9,-32624(gp) <memset>
  40337c:	00000000 	nop
  403380:	0320f809 	jalr	t9
  403384:	00000000 	nop
  403388:	8fbc0010 	lw	gp,16(sp)
  40338c:	a7b40048 	sh	s4,72(sp)
  403390:	24020003 	li	v0,3
  403394:	a7a2008c 	sh	v0,140(sp)
  403398:	8f848020 	lw	a0,-32736(gp)
  40339c:	00000000 	nop
  4033a0:	24843604 	addiu	a0,a0,13828		# "0.0.0.0"
  4033a4:	02602821 	move	a1,s3
  4033a8:	8f99818c 	lw	t9,-32372(gp) <inet_aton>
  4033ac:	00000000 	nop
  4033b0:	0320f809 	jalr	t9
  4033b4:	00000000 	nop
  4033b8:	8fbc0010 	lw	gp,16(sp)
  4033bc:	8fa20048 	lw	v0,72(sp)
  4033c0:	00000000 	nop
  4033c4:	afa2005c 	sw	v0,92(sp)
  4033c8:	8e420004 	lw	v0,4(s2)
  4033cc:	00000000 	nop
  4033d0:	afa20060 	sw	v0,96(sp)
  4033d4:	8e420008 	lw	v0,8(s2)
  4033d8:	27a40018 	addiu	a0,sp,24
  4033dc:	afa20064 	sw	v0,100(sp)
  4033e0:	8e42000c 	lw	v0,12(s2)
  4033e4:	8f858020 	lw	a1,-32736(gp)
  4033e8:	00000000 	nop
  4033ec:	24a535b0 	addiu	a1,a1,13744		# "192.168.15.254"
  4033f0:	afa20068 	sw	v0,104(sp)
  4033f4:	8f998030 	lw	t9,-32720(gp) <strcpy>
  4033f8:	00000000 	nop
  4033fc:	0320f809 	jalr	t9
  403400:	00000000 	nop
  403404:	8fbc0010 	lw	gp,16(sp)
  403408:	27a40018 	addiu	a0,sp,24
  40340c:	02602821 	move	a1,s3
  403410:	8f99818c 	lw	t9,-32372(gp) <inet_aton>
  403414:	00000000 	nop
  403418:	0320f809 	jalr	t9
  40341c:	00000000 	nop
  403420:	8fbc0010 	lw	gp,16(sp)
  403424:	8fa20048 	lw	v0,72(sp)
  403428:	02202021 	move	a0,s1
  40342c:	afa2006c 	sw	v0,108(sp)
  403430:	8e420004 	lw	v0,4(s2)
  403434:	3405890b 	li	a1,0x890b
  403438:	afa20070 	sw	v0,112(sp)
  40343c:	8e420008 	lw	v0,8(s2)
  403440:	02003021 	move	a2,s0
  403444:	afa20074 	sw	v0,116(sp)
  403448:	8e42000c 	lw	v0,12(s2)
  40344c:	afb5009c 	sw	s5,156(sp)
  403450:	afa20078 	sw	v0,120(sp)
  403454:	8f998094 	lw	t9,-32620(gp) <ioctl>
  403458:	00000000 	nop
  40345c:	0320f809 	jalr	t9
  403460:	00000000 	nop
  403464:	8fbc0010 	lw	gp,16(sp)
  403468:	04400008 	bltz	v0,40348c <_init+0x1c98>
  40346c:	02202021 	move	a0,s1
  403470:	8f998238 	lw	t9,-32200(gp) <close>
  403474:	00000000 	nop
  403478:	0320f809 	jalr	t9
  40347c:	00000000 	nop
  403480:	8fbc0010 	lw	gp,16(sp)
  403484:	10000010 	b	4034c8 <_init+0x1cd4>
  403488:	00001021 	move	v0,zero
  40348c:	8f848020 	lw	a0,-32736(gp)
  403490:	00000000 	nop
  403494:	2484360c 	addiu	a0,a0,13836		# "SIOCADDRT error"
  403498:	8f998154 	lw	t9,-32428(gp) <act_printf>
  40349c:	00000000 	nop
  4034a0:	0320f809 	jalr	t9
  4034a4:	00000000 	nop
  4034a8:	8fbc0010 	lw	gp,16(sp)
  4034ac:	02202021 	move	a0,s1
  4034b0:	8f998238 	lw	t9,-32200(gp) <close>
  4034b4:	00000000 	nop
  4034b8:	0320f809 	jalr	t9
  4034bc:	00000000 	nop
  4034c0:	8fbc0010 	lw	gp,16(sp)
  4034c4:	2402ffff 	li	v0,-1
  4034c8:	8fbf00cc 	lw	ra,204(sp)
  4034cc:	8fb500c4 	lw	s5,196(sp)
  4034d0:	8fb400c0 	lw	s4,192(sp)
  4034d4:	8fb300bc 	lw	s3,188(sp)
  4034d8:	8fb200b8 	lw	s2,184(sp)
  4034dc:	8fb100b4 	lw	s1,180(sp)
  4034e0:	8fb000b0 	lw	s0,176(sp)
  4034e4:	03e00008 	jr	ra
  4034e8:	27bd00d0 	addiu	sp,sp,208
  4034ec:	3c1c0fc0 	lui	gp,0xfc0
  4034f0:	279c5da4 	addiu	gp,gp,23972
  4034f4:	0399e021 	addu	gp,gp,t9
  4034f8:	27bdffc0 	addiu	sp,sp,-64
  4034fc:	afbc0010 	sw	gp,16(sp)
  403500:	afbf003c 	sw	ra,60(sp)
  403504:	afbc0038 	sw	gp,56(sp)
  403508:	afb10034 	sw	s1,52(sp)
  40350c:	afb00030 	sw	s0,48(sp)
  403510:	afa00028 	sw	zero,40(sp)
  403514:	24040014 	li	a0,20
  403518:	2405000d 	li	a1,13
  40351c:	24060021 	li	a2,33
  403520:	8f9980dc 	lw	t9,-32548(gp) <p125_mii_write>
  403524:	00000000 	nop
  403528:	0320f809 	jalr	t9
  40352c:	00000000 	nop
  403530:	8fbc0010 	lw	gp,16(sp)
  403534:	24040016 	li	a0,22
  403538:	00002821 	move	a1,zero
  40353c:	2406017f 	li	a2,383
  403540:	8f9980dc 	lw	t9,-32548(gp) <p125_mii_write>
  403544:	00000000 	nop
  403548:	0320f809 	jalr	t9
  40354c:	00000000 	nop
  403550:	8fbc0010 	lw	gp,16(sp)
  403554:	24040016 	li	a0,22
  403558:	24050004 	li	a1,4
  40355c:	24060001 	li	a2,1
  403560:	8f9980dc 	lw	t9,-32548(gp) <p125_mii_write>
  403564:	00000000 	nop
  403568:	0320f809 	jalr	t9
  40356c:	00000000 	nop
  403570:	8fbc0010 	lw	gp,16(sp)
  403574:	24040016 	li	a0,22
  403578:	24050006 	li	a1,6
  40357c:	24060002 	li	a2,2
  403580:	8f9980dc 	lw	t9,-32548(gp) <p125_mii_write>
  403584:	00000000 	nop
  403588:	0320f809 	jalr	t9
  40358c:	00000000 	nop
  403590:	8fbc0010 	lw	gp,16(sp)
  403594:	24040016 	li	a0,22
  403598:	2405000a 	li	a1,10
  40359c:	24060003 	li	a2,3
  4035a0:	8f9980dc 	lw	t9,-32548(gp) <p125_mii_write>
  4035a4:	00000000 	nop
  4035a8:	0320f809 	jalr	t9
  4035ac:	00000000 	nop
  4035b0:	8fbc0010 	lw	gp,16(sp)
  4035b4:	24040016 	li	a0,22
  4035b8:	2405000e 	li	a1,14
  4035bc:	24061001 	li	a2,4097
  4035c0:	8f9980dc 	lw	t9,-32548(gp) <p125_mii_write>
  4035c4:	00000000 	nop
  4035c8:	0320f809 	jalr	t9
  4035cc:	00000000 	nop
  4035d0:	8fbc0010 	lw	gp,16(sp)
  4035d4:	24040016 	li	a0,22
  4035d8:	2405000f 	li	a1,15
  4035dc:	24062002 	li	a2,8194
  4035e0:	8f9980dc 	lw	t9,-32548(gp) <p125_mii_write>
  4035e4:	00000000 	nop
  4035e8:	0320f809 	jalr	t9
  4035ec:	00000000 	nop
  4035f0:	8fbc0010 	lw	gp,16(sp)
  4035f4:	24040017 	li	a0,23
  4035f8:	00002821 	move	a1,zero
  4035fc:	24062421 	li	a2,9249
  403600:	8f9980dc 	lw	t9,-32548(gp) <p125_mii_write>
  403604:	00000000 	nop
  403608:	0320f809 	jalr	t9
  40360c:	00000000 	nop
  403610:	8fbc0010 	lw	gp,16(sp)
  403614:	24040017 	li	a0,23
  403618:	24050008 	li	a1,8
  40361c:	24062020 	li	a2,8224
  403620:	8f9980dc 	lw	t9,-32548(gp) <p125_mii_write>
  403624:	00000000 	nop
  403628:	0320f809 	jalr	t9
  40362c:	00000000 	nop
  403630:	8fbc0010 	lw	gp,16(sp)
  403634:	24040017 	li	a0,23
  403638:	24050010 	li	a1,16
  40363c:	24060505 	li	a2,1285
  403640:	8f9980dc 	lw	t9,-32548(gp) <p125_mii_write>
  403644:	00000000 	nop
  403648:	0320f809 	jalr	t9
  40364c:	00000000 	nop
  403650:	8fbc0010 	lw	gp,16(sp)
  403654:	00000000 	nop
  403658:	8f848020 	lw	a0,-32736(gp)
  40365c:	00000000 	nop
  403660:	24843620 	addiu	a0,a0,13856		# "eth0"
  403664:	00002821 	move	a1,zero
  403668:	8f998018 	lw	t9,-32744(gp)
  40366c:	00000000 	nop
  403670:	27392f60 	addiu	t9,t9,12128		# 0x402f60
  403674:	00000000 	nop
  403678:	0320f809 	jalr	t9
  40367c:	00000000 	nop
  403680:	8fbc0010 	lw	gp,16(sp)
  403684:	00000000 	nop
  403688:	8f848020 	lw	a0,-32736(gp)
  40368c:	00000000 	nop
  403690:	24843628 	addiu	a0,a0,13864		# "vconfig add eth0 1"
  403694:	8f9981ec 	lw	t9,-32276(gp) <system>
  403698:	00000000 	nop
  40369c:	0320f809 	jalr	t9
  4036a0:	00000000 	nop
  4036a4:	8fbc0010 	lw	gp,16(sp)
  4036a8:	00000000 	nop
  4036ac:	8f908020 	lw	s0,-32736(gp)
  4036b0:	00000000 	nop
  4036b4:	2610363c 	addiu	s0,s0,13884		# "eth0.1"
  4036b8:	00000000 	nop
  4036bc:	02002021 	move	a0,s0
  4036c0:	00002821 	move	a1,zero
  4036c4:	8f998018 	lw	t9,-32744(gp)
  4036c8:	00000000 	nop
  4036cc:	27392f60 	addiu	t9,t9,12128		# 0x402f60
  4036d0:	00000000 	nop
  4036d4:	0320f809 	jalr	t9
  4036d8:	00000000 	nop
  4036dc:	8fbc0010 	lw	gp,16(sp)
  4036e0:	00000000 	nop
  4036e4:	8f848020 	lw	a0,-32736(gp)
  4036e8:	00000000 	nop
  4036ec:	24843644 	addiu	a0,a0,13892		# "vconfig add eth0 2"
  4036f0:	8f9981ec 	lw	t9,-32276(gp) <system>
  4036f4:	00000000 	nop
  4036f8:	0320f809 	jalr	t9
  4036fc:	00000000 	nop
  403700:	8fbc0010 	lw	gp,16(sp)
  403704:	00000000 	nop
  403708:	8f848020 	lw	a0,-32736(gp)
  40370c:	00000000 	nop
  403710:	24843658 	addiu	a0,a0,13912		# "eth0.2"
  403714:	24050001 	li	a1,1
  403718:	8f998018 	lw	t9,-32744(gp)
  40371c:	00000000 	nop
  403720:	27392f60 	addiu	t9,t9,12128		# 0x402f60
  403724:	00000000 	nop
  403728:	0320f809 	jalr	t9
  40372c:	00000000 	nop
  403730:	8fbc0010 	lw	gp,16(sp)
  403734:	02002021 	move	a0,s0
  403738:	8f998018 	lw	t9,-32744(gp)
  40373c:	00000000 	nop
  403740:	273930f8 	addiu	t9,t9,12536		# 0x4030f8
  403744:	00000000 	nop
  403748:	0320f809 	jalr	t9
  40374c:	00000000 	nop
  403750:	8fbc0010 	lw	gp,16(sp)
  403754:	24040400 	li	a0,1024
  403758:	8f998138 	lw	t9,-32456(gp) <my_malloc>
  40375c:	00000000 	nop
  403760:	0320f809 	jalr	t9
  403764:	00000000 	nop
  403768:	8fbc0010 	lw	gp,16(sp)
  40376c:	00408821 	move	s1,v0
  403770:	16200003 	bnez	s1,403780 <_init+0x1f8c>
  403774:	02202021 	move	a0,s1
  403778:	10000080 	b	40397c <_init+0x2188>
  40377c:	00001021 	move	v0,zero
  403780:	27b00028 	addiu	s0,sp,40
  403784:	02002821 	move	a1,s0
  403788:	8f868020 	lw	a2,-32736(gp)
  40378c:	00000000 	nop
  403790:	24c63660 	addiu	a2,a2,13920		# "start 192.168.15.2"
  403794:	8f9981a0 	lw	t9,-32352(gp) <data_printf>
  403798:	00000000 	nop
  40379c:	0320f809 	jalr	t9
  4037a0:	00000000 	nop
  4037a4:	8fbc0010 	lw	gp,16(sp)
  4037a8:	02202021 	move	a0,s1
  4037ac:	02002821 	move	a1,s0
  4037b0:	8f868020 	lw	a2,-32736(gp)
  4037b4:	00000000 	nop
  4037b8:	24c63678 	addiu	a2,a2,13944		# "end 192.168.15.10"
  4037bc:	8f9981a0 	lw	t9,-32352(gp) <data_printf>
  4037c0:	00000000 	nop
  4037c4:	0320f809 	jalr	t9
  4037c8:	00000000 	nop
  4037cc:	8fbc0010 	lw	gp,16(sp)
  4037d0:	02202021 	move	a0,s1
  4037d4:	02002821 	move	a1,s0
  4037d8:	8f868020 	lw	a2,-32736(gp)
  4037dc:	00000000 	nop
  4037e0:	24c6368c 	addiu	a2,a2,13964		# "interface eth0.1"
  4037e4:	8f9981a0 	lw	t9,-32352(gp) <data_printf>
  4037e8:	00000000 	nop
  4037ec:	0320f809 	jalr	t9
  4037f0:	00000000 	nop
  4037f4:	8fbc0010 	lw	gp,16(sp)
  4037f8:	02202021 	move	a0,s1
  4037fc:	02002821 	move	a1,s0
  403800:	8f868020 	lw	a2,-32736(gp)
  403804:	00000000 	nop
  403808:	24c636a0 	addiu	a2,a2,13984		# "opt subnet 255.255.255.0"
  40380c:	8f9981a0 	lw	t9,-32352(gp) <data_printf>
  403810:	00000000 	nop
  403814:	0320f809 	jalr	t9
  403818:	00000000 	nop
  40381c:	8fbc0010 	lw	gp,16(sp)
  403820:	27a40018 	addiu	a0,sp,24
  403824:	8f858020 	lw	a1,-32736(gp)
  403828:	00000000 	nop
  40382c:	24a53590 	addiu	a1,a1,13712		# "192.168.15.1"
  403830:	8f998060 	lw	t9,-32672(gp) <sprintf>
  403834:	00000000 	nop
  403838:	0320f809 	jalr	t9
  40383c:	00000000 	nop
  403840:	8fbc0010 	lw	gp,16(sp)
  403844:	02202021 	move	a0,s1
  403848:	02002821 	move	a1,s0
  40384c:	8f868020 	lw	a2,-32736(gp)
  403850:	00000000 	nop
  403854:	24c636bc 	addiu	a2,a2,14012		# "opt router %s"
  403858:	27a70018 	addiu	a3,sp,24
  40385c:	8f9981a0 	lw	t9,-32352(gp) <data_printf>
  403860:	00000000 	nop
  403864:	0320f809 	jalr	t9
  403868:	00000000 	nop
  40386c:	8fbc0010 	lw	gp,16(sp)
  403870:	02202021 	move	a0,s1
  403874:	02002821 	move	a1,s0
  403878:	8f868020 	lw	a2,-32736(gp)
  40387c:	00000000 	nop
  403880:	24c636cc 	addiu	a2,a2,14028		# "opt dns %s"
  403884:	27a70018 	addiu	a3,sp,24
  403888:	8f9981a0 	lw	t9,-32352(gp) <data_printf>
  40388c:	00000000 	nop
  403890:	0320f809 	jalr	t9
  403894:	00000000 	nop
  403898:	8fbc0010 	lw	gp,16(sp)
  40389c:	02202021 	move	a0,s1
  4038a0:	02002821 	move	a1,s0
  4038a4:	8f868020 	lw	a2,-32736(gp)
  4038a8:	00000000 	nop
  4038ac:	24c636dc 	addiu	a2,a2,14044		# "opt lease 86400"
  4038b0:	8f9981a0 	lw	t9,-32352(gp) <data_printf>
  4038b4:	00000000 	nop
  4038b8:	0320f809 	jalr	t9
  4038bc:	00000000 	nop
  4038c0:	8fbc0010 	lw	gp,16(sp)
  4038c4:	00000000 	nop
  4038c8:	8f848020 	lw	a0,-32736(gp)
  4038cc:	00000000 	nop
  4038d0:	248436f0 	addiu	a0,a0,14064		# "/etc/udhcpd.conf"
  4038d4:	8f858020 	lw	a1,-32736(gp)
  4038d8:	00000000 	nop
  4038dc:	24a53704 	addiu	a1,a1,14084
  4038e0:	8f99813c 	lw	t9,-32452(gp) <fopen>
  4038e4:	00000000 	nop
  4038e8:	0320f809 	jalr	t9
  4038ec:	00000000 	nop
  4038f0:	8fbc0010 	lw	gp,16(sp)
  4038f4:	02202021 	move	a0,s1
  4038f8:	24050001 	li	a1,1
  4038fc:	8fa60028 	lw	a2,40(sp)
  403900:	00408021 	move	s0,v0
  403904:	02003821 	move	a3,s0
  403908:	8f99805c 	lw	t9,-32676(gp) <fwrite>
  40390c:	00000000 	nop
  403910:	0320f809 	jalr	t9
  403914:	00000000 	nop
  403918:	8fbc0010 	lw	gp,16(sp)
  40391c:	02002021 	move	a0,s0
  403920:	8f998130 	lw	t9,-32464(gp) <fclose>
  403924:	00000000 	nop
  403928:	0320f809 	jalr	t9
  40392c:	00000000 	nop
  403930:	8fbc0010 	lw	gp,16(sp)
  403934:	00000000 	nop
  403938:	8f848020 	lw	a0,-32736(gp)
  40393c:	00000000 	nop
  403940:	24843708 	addiu	a0,a0,14088		# "/sbin/udhcpd /etc/udhcpd.conf"
  403944:	8f9981ec 	lw	t9,-32276(gp) <system>
  403948:	00000000 	nop
  40394c:	0320f809 	jalr	t9
  403950:	00000000 	nop
  403954:	8fbc0010 	lw	gp,16(sp)
  403958:	00000000 	nop
  40395c:	8f848020 	lw	a0,-32736(gp)
  403960:	00000000 	nop
  403964:	24843728 	addiu	a0,a0,14120		# "ifconfig eth0.2 down"
  403968:	8f9981ec 	lw	t9,-32276(gp) <system>
  40396c:	00000000 	nop
  403970:	0320f809 	jalr	t9
  403974:	00000000 	nop
  403978:	8fbc0010 	lw	gp,16(sp)
  40397c:	8fbf003c 	lw	ra,60(sp)
  403980:	8fb10034 	lw	s1,52(sp)
  403984:	8fb00030 	lw	s0,48(sp)
  403988:	03e00008 	jr	ra
  40398c:	27bd0040 	addiu	sp,sp,64
  403990:	3c1c0fc0 	lui	gp,0xfc0
  403994:	279c5900 	addiu	gp,gp,22784
  403998:	0399e021 	addu	gp,gp,t9
  40399c:	27bdffe0 	addiu	sp,sp,-32
  4039a0:	afbc0010 	sw	gp,16(sp)
  4039a4:	afbf001c 	sw	ra,28(sp)
  4039a8:	afbc0018 	sw	gp,24(sp)
  4039ac:	24040015 	li	a0,21
  4039b0:	24050008 	li	a1,8
  4039b4:	24060001 	li	a2,1
  4039b8:	8f9980dc 	lw	t9,-32548(gp) <p125_mii_write>
  4039bc:	00000000 	nop
  4039c0:	0320f809 	jalr	t9
  4039c4:	00000000 	nop
  4039c8:	8fbc0010 	lw	gp,16(sp)
  4039cc:	24040015 	li	a0,21
  4039d0:	24050009 	li	a1,9
  4039d4:	24060700 	li	a2,1792
  4039d8:	8f9980dc 	lw	t9,-32548(gp) <p125_mii_write>
  4039dc:	00000000 	nop
  4039e0:	0320f809 	jalr	t9
  4039e4:	00000000 	nop
  4039e8:	8fbc0010 	lw	gp,16(sp)
  4039ec:	24040015 	li	a0,21
  4039f0:	2405000a 	li	a1,10
  4039f4:	00003021 	move	a2,zero
  4039f8:	8f9980dc 	lw	t9,-32548(gp) <p125_mii_write>
  4039fc:	00000000 	nop
  403a00:	0320f809 	jalr	t9
  403a04:	00000000 	nop
  403a08:	8fbc0010 	lw	gp,16(sp)
  403a0c:	24040015 	li	a0,21
  403a10:	2405000c 	li	a1,12
  403a14:	2406030a 	li	a2,778
  403a18:	8f9980dc 	lw	t9,-32548(gp) <p125_mii_write>
  403a1c:	00000000 	nop
  403a20:	0320f809 	jalr	t9
  403a24:	00000000 	nop
  403a28:	8fbc0010 	lw	gp,16(sp)
  403a2c:	24040014 	li	a0,20
  403a30:	24050005 	li	a1,5
  403a34:	00003021 	move	a2,zero
  403a38:	24070001 	li	a3,1
  403a3c:	8f998278 	lw	t9,-32136(gp) <p125_mii_write_bit>
  403a40:	00000000 	nop
  403a44:	0320f809 	jalr	t9
  403a48:	00000000 	nop
  403a4c:	8fbc0010 	lw	gp,16(sp)
  403a50:	24040014 	li	a0,20
  403a54:	24050005 	li	a1,5
  403a58:	24060001 	li	a2,1
  403a5c:	24070001 	li	a3,1
  403a60:	8f998278 	lw	t9,-32136(gp) <p125_mii_write_bit>
  403a64:	00000000 	nop
  403a68:	0320f809 	jalr	t9
  403a6c:	00000000 	nop
  403a70:	8fbc0010 	lw	gp,16(sp)
  403a74:	00002021 	move	a0,zero
  403a78:	00002821 	move	a1,zero
  403a7c:	24060009 	li	a2,9
  403a80:	24070001 	li	a3,1
  403a84:	8f998278 	lw	t9,-32136(gp) <p125_mii_write_bit>
  403a88:	00000000 	nop
  403a8c:	0320f809 	jalr	t9
  403a90:	00000000 	nop
  403a94:	8fbc0010 	lw	gp,16(sp)
  403a98:	8fbf001c 	lw	ra,28(sp)
  403a9c:	00000000 	nop
  403aa0:	03e00008 	jr	ra
  403aa4:	27bd0020 	addiu	sp,sp,32
  403aa8:	3c1c0fc0 	lui	gp,0xfc0
  403aac:	279c57e8 	addiu	gp,gp,22504
  403ab0:	0399e021 	addu	gp,gp,t9
  403ab4:	27bdffe0 	addiu	sp,sp,-32
  403ab8:	afbc0010 	sw	gp,16(sp)
  403abc:	afbf001c 	sw	ra,28(sp)
  403ac0:	8f84807c 	lw	a0,-32644(gp)
  403ac4:	00000000 	nop
  403ac8:	8c840000 	lw	a0,0(a0)
  403acc:	00000000 	nop
  403ad0:	10800015 	beqz	a0,403b28 <_init+0x2334>
  403ad4:	afbc0018 	sw	gp,24(sp)
  403ad8:	8f998114 	lw	t9,-32492(gp) <shmdt>
  403adc:	00000000 	nop
  403ae0:	0320f809 	jalr	t9
  403ae4:	00000000 	nop
  403ae8:	8fbc0010 	lw	gp,16(sp)
  403aec:	00000000 	nop
  403af0:	8f81807c 	lw	at,-32644(gp)
  403af4:	00000000 	nop
  403af8:	ac200000 	sw	zero,0(at)
  403afc:	8f8480bc 	lw	a0,-32580(gp)
  403b00:	00000000 	nop
  403b04:	8c840000 	lw	a0,0(a0)
  403b08:	00002821 	move	a1,zero
  403b0c:	00003021 	move	a2,zero
  403b10:	8f9980e0 	lw	t9,-32544(gp) <shmctl>
  403b14:	00000000 	nop
  403b18:	0320f809 	jalr	t9
  403b1c:	00000000 	nop
  403b20:	8fbc0010 	lw	gp,16(sp)
  403b24:	00000000 	nop
  403b28:	8f84801c 	lw	a0,-32740(gp)
  403b2c:	00000000 	nop
  403b30:	248401f0 	addiu	a0,a0,496
  403b34:	8c840000 	lw	a0,0(a0)
  403b38:	00000000 	nop
  403b3c:	10800016 	beqz	a0,403b98 <_init+0x23a4>
  403b40:	00000000 	nop
  403b44:	8f998114 	lw	t9,-32492(gp) <shmdt>
  403b48:	00000000 	nop
  403b4c:	0320f809 	jalr	t9
  403b50:	00000000 	nop
  403b54:	8fbc0010 	lw	gp,16(sp)
  403b58:	00000000 	nop
  403b5c:	8f848080 	lw	a0,-32640(gp)
  403b60:	00000000 	nop
  403b64:	8c840000 	lw	a0,0(a0)
  403b68:	00002821 	move	a1,zero
  403b6c:	00003021 	move	a2,zero
  403b70:	8f9980e0 	lw	t9,-32544(gp) <shmctl>
  403b74:	00000000 	nop
  403b78:	0320f809 	jalr	t9
  403b7c:	00000000 	nop
  403b80:	8fbc0010 	lw	gp,16(sp)
  403b84:	00000000 	nop
  403b88:	8f81801c 	lw	at,-32740(gp)
  403b8c:	00000000 	nop
  403b90:	242101f0 	addiu	at,at,496
  403b94:	ac200000 	sw	zero,0(at)
  403b98:	8f848020 	lw	a0,-32736(gp)
  403b9c:	00000000 	nop
  403ba0:	24843740 	addiu	a0,a0,14144		# "mount -t jffs2 /dev/mtdblock0 /mnt/jffs2;mv /sbin/ring.mp3 /sip/ring.mp3;mv /sbin/hold.mp3 /sip/hold.mp3"
  403ba4:	8f9981ec 	lw	t9,-32276(gp) <system>
  403ba8:	00000000 	nop
  403bac:	0320f809 	jalr	t9
  403bb0:	00000000 	nop
  403bb4:	8fbc0010 	lw	gp,16(sp)
  403bb8:	8fbf001c 	lw	ra,28(sp)
  403bbc:	00000000 	nop
  403bc0:	03e00008 	jr	ra
  403bc4:	27bd0020 	addiu	sp,sp,32
  403bc8:	3c1c0fc0 	lui	gp,0xfc0
  403bcc:	279c56c8 	addiu	gp,gp,22216
  403bd0:	0399e021 	addu	gp,gp,t9
  403bd4:	27bdff40 	addiu	sp,sp,-192
  403bd8:	afbc0010 	sw	gp,16(sp)
  403bdc:	afbf00bc 	sw	ra,188(sp)
  403be0:	afbc00b8 	sw	gp,184(sp)
  403be4:	afb300b4 	sw	s3,180(sp)
  403be8:	afb200b0 	sw	s2,176(sp)
  403bec:	afb100ac 	sw	s1,172(sp)
  403bf0:	afb000a8 	sw	s0,168(sp)
  403bf4:	24120001 	li	s2,1
  403bf8:	00a08021 	move	s0,a1
  403bfc:	00c08821 	move	s1,a2
  403c00:	2484fffe 	addiu	a0,a0,-2
  403c04:	2c820011 	sltiu	v0,a0,17
  403c08:	1040013a 	beqz	v0,4040f4 <_init+0x2900>
  403c0c:	00e09821 	move	s3,a3
  403c10:	00041080 	sll	v0,a0,0x2
  403c14:	8f818020 	lw	at,-32736(gp)
  403c18:	00000000 	nop
  403c1c:	24213a78 	addiu	at,at,14968
  403c20:	00220821 	addu	at,at,v0
  403c24:	8c220000 	lw	v0,0(at)
  403c28:	00000000 	nop
  403c2c:	005c1021 	addu	v0,v0,gp
  403c30:	00400008 	jr	v0
  403c34:	00000000 	nop
  403c38:	8f848020 	lw	a0,-32736(gp)
  403c3c:	00000000 	nop
  403c40:	248437ac 	addiu	a0,a0,14252		# "/sip/tftpsrv.gz"
  403c44:	8f998218 	lw	t9,-32232(gp) <unlink>
  403c48:	00000000 	nop
  403c4c:	0320f809 	jalr	t9
  403c50:	00000000 	nop
  403c54:	8fbc0010 	lw	gp,16(sp)
  403c58:	00000000 	nop
  403c5c:	8f998038 	lw	t9,-32712(gp) <sync>
  403c60:	00000000 	nop
  403c64:	0320f809 	jalr	t9
  403c68:	00000000 	nop
  403c6c:	8fbc0010 	lw	gp,16(sp)
  403c70:	00000000 	nop
  403c74:	8f998018 	lw	t9,-32744(gp)
  403c78:	00000000 	nop
  403c7c:	27394948 	addiu	t9,t9,18760		# 0x404948
  403c80:	00000000 	nop
  403c84:	0320f809 	jalr	t9
  403c88:	00000000 	nop
  403c8c:	8fbc0010 	lw	gp,16(sp)
  403c90:	00000000 	nop
  403c94:	8f848020 	lw	a0,-32736(gp)
  403c98:	00000000 	nop
  403c9c:	248437bc 	addiu	a0,a0,14268		# "mv /sip/ring.mp3 /sbin/ring.mp3;mv /sip/hold.mp3 /sbin/hold.mp3;/bin/umount /dev/mtdblock0"
  403ca0:	8f9981ec 	lw	t9,-32276(gp) <system>
  403ca4:	00000000 	nop
  403ca8:	0320f809 	jalr	t9
  403cac:	00000000 	nop
  403cb0:	8fbc0010 	lw	gp,16(sp)
  403cb4:	02002021 	move	a0,s0
  403cb8:	02202821 	move	a1,s1
  403cbc:	8f998018 	lw	t9,-32744(gp)
  403cc0:	00000000 	nop
  403cc4:	27395288 	addiu	t9,t9,21128		# 0x405288
  403cc8:	00000000 	nop
  403ccc:	0320f809 	jalr	t9
  403cd0:	00000000 	nop
  403cd4:	8fbc0010 	lw	gp,16(sp)
  403cd8:	04400029 	bltz	v0,403d80 <_init+0x258c>
  403cdc:	00000000 	nop
  403ce0:	10000030 	b	403da4 <_init+0x25b0>
  403ce4:	00000000 	nop
  403ce8:	02002021 	move	a0,s0
  403cec:	02202821 	move	a1,s1
  403cf0:	8f998018 	lw	t9,-32744(gp)
  403cf4:	00000000 	nop
  403cf8:	273965dc 	addiu	t9,t9,26076		# 0x4065dc
  403cfc:	00000000 	nop
  403d00:	0320f809 	jalr	t9
  403d04:	00000000 	nop
  403d08:	8fbc0010 	lw	gp,16(sp)
  403d0c:	10000069 	b	403eb4 <_init+0x26c0>
  403d10:	00000000 	nop
  403d14:	8f998018 	lw	t9,-32744(gp)
  403d18:	00000000 	nop
  403d1c:	27394948 	addiu	t9,t9,18760		# 0x404948
  403d20:	00000000 	nop
  403d24:	0320f809 	jalr	t9
  403d28:	00000000 	nop
  403d2c:	8fbc0010 	lw	gp,16(sp)
  403d30:	00000000 	nop
  403d34:	8f848020 	lw	a0,-32736(gp)
  403d38:	00000000 	nop
  403d3c:	248437bc 	addiu	a0,a0,14268		# "mv /sip/ring.mp3 /sbin/ring.mp3;mv /sip/hold.mp3 /sbin/hold.mp3;/bin/umount /dev/mtdblock0"
  403d40:	8f9981ec 	lw	t9,-32276(gp) <system>
  403d44:	00000000 	nop
  403d48:	0320f809 	jalr	t9
  403d4c:	00000000 	nop
  403d50:	8fbc0010 	lw	gp,16(sp)
  403d54:	02002021 	move	a0,s0
  403d58:	02202821 	move	a1,s1
  403d5c:	8f998018 	lw	t9,-32744(gp)
  403d60:	00000000 	nop
  403d64:	27395720 	addiu	t9,t9,22304		# 0x405720
  403d68:	00000000 	nop
  403d6c:	0320f809 	jalr	t9
  403d70:	00000000 	nop
  403d74:	8fbc0010 	lw	gp,16(sp)
  403d78:	0441000a 	bgez	v0,403da4 <_init+0x25b0>
  403d7c:	00000000 	nop
  403d80:	8f998018 	lw	t9,-32744(gp)
  403d84:	00000000 	nop
  403d88:	27393aa8 	addiu	t9,t9,15016		# 0x403aa8
  403d8c:	00000000 	nop
  403d90:	0320f809 	jalr	t9
  403d94:	00000000 	nop
  403d98:	8fbc0010 	lw	gp,16(sp)
  403d9c:	100000ff 	b	40419c <_init+0x29a8>
  403da0:	2402ffff 	li	v0,-1
  403da4:	8f998018 	lw	t9,-32744(gp)
  403da8:	00000000 	nop
  403dac:	27393aa8 	addiu	t9,t9,15016		# 0x403aa8
  403db0:	00000000 	nop
  403db4:	0320f809 	jalr	t9
  403db8:	00000000 	nop
  403dbc:	8fbc0010 	lw	gp,16(sp)
  403dc0:	100000cc 	b	4040f4 <_init+0x2900>
  403dc4:	00000000 	nop
  403dc8:	8f848020 	lw	a0,-32736(gp)
  403dcc:	00000000 	nop
  403dd0:	24843818 	addiu	a0,a0,14360		# "/sip/act_sip.gz"
  403dd4:	8f998218 	lw	t9,-32232(gp) <unlink>
  403dd8:	00000000 	nop
  403ddc:	0320f809 	jalr	t9
  403de0:	00000000 	nop
  403de4:	8fbc0010 	lw	gp,16(sp)
  403de8:	00000000 	nop
  403dec:	8f848020 	lw	a0,-32736(gp)
  403df0:	00000000 	nop
  403df4:	24843828 	addiu	a0,a0,14376		# "act_sip.gz"
  403df8:	10000026 	b	403e94 <_init+0x26a0>
  403dfc:	02002821 	move	a1,s0
  403e00:	8f848020 	lw	a0,-32736(gp)
  403e04:	00000000 	nop
  403e08:	24843834 	addiu	a0,a0,14388		# "tftpsrv.gz"
  403e0c:	10000021 	b	403e94 <_init+0x26a0>
  403e10:	02002821 	move	a1,s0
  403e14:	8f848020 	lw	a0,-32736(gp)
  403e18:	00000000 	nop
  403e1c:	24843840 	addiu	a0,a0,14400		# "ecr_client.gz"
  403e20:	02002821 	move	a1,s0
  403e24:	02203021 	move	a2,s1
  403e28:	8f998018 	lw	t9,-32744(gp)
  403e2c:	00000000 	nop
  403e30:	27392bac 	addiu	t9,t9,11180		# 0x402bac
  403e34:	00000000 	nop
  403e38:	0320f809 	jalr	t9
  403e3c:	00000000 	nop
  403e40:	8fbc0010 	lw	gp,16(sp)
  403e44:	044000d5 	bltz	v0,40419c <_init+0x29a8>
  403e48:	2402ffff 	li	v0,-1
  403e4c:	8f848020 	lw	a0,-32736(gp)
  403e50:	00000000 	nop
  403e54:	24843850 	addiu	a0,a0,14416		# "Installing Ecr_client.."
  403e58:	8f998100 	lw	t9,-32512(gp) <printf>
  403e5c:	00000000 	nop
  403e60:	0320f809 	jalr	t9
  403e64:	00000000 	nop
  403e68:	8fbc0010 	lw	gp,16(sp)
  403e6c:	00000000 	nop
  403e70:	8f848020 	lw	a0,-32736(gp)
  403e74:	00000000 	nop
  403e78:	2484386c 	addiu	a0,a0,14444		# "cd /sip;gunzip -f ecr_client.gz"
  403e7c:	1000007f 	b	40407c <_init+0x2888>
  403e80:	00000000 	nop
  403e84:	8f848020 	lw	a0,-32736(gp)
  403e88:	00000000 	nop
  403e8c:	24843894 	addiu	a0,a0,14484		# "dhcpcd.gz"
  403e90:	02002821 	move	a1,s0
  403e94:	02203021 	move	a2,s1
  403e98:	8f998018 	lw	t9,-32744(gp)
  403e9c:	00000000 	nop
  403ea0:	27392bac 	addiu	t9,t9,11180		# 0x402bac
  403ea4:	00000000 	nop
  403ea8:	0320f809 	jalr	t9
  403eac:	00000000 	nop
  403eb0:	8fbc0010 	lw	gp,16(sp)
  403eb4:	0441008f 	bgez	v0,4040f4 <_init+0x2900>
  403eb8:	2402ffff 	li	v0,-1
  403ebc:	100000b7 	b	40419c <_init+0x29a8>
  403ec0:	00000000 	nop
  403ec4:	8f848020 	lw	a0,-32736(gp)
  403ec8:	00000000 	nop
  403ecc:	248438a0 	addiu	a0,a0,14496		# "msg.tar.gz"
  403ed0:	02002821 	move	a1,s0
  403ed4:	02203021 	move	a2,s1
  403ed8:	8f998018 	lw	t9,-32744(gp)
  403edc:	00000000 	nop
  403ee0:	27392bac 	addiu	t9,t9,11180		# 0x402bac
  403ee4:	00000000 	nop
  403ee8:	0320f809 	jalr	t9
  403eec:	00000000 	nop
  403ef0:	8fbc0010 	lw	gp,16(sp)
  403ef4:	044000a9 	bltz	v0,40419c <_init+0x29a8>
  403ef8:	2402ffff 	li	v0,-1
  403efc:	8f848020 	lw	a0,-32736(gp)
  403f00:	00000000 	nop
  403f04:	248438ac 	addiu	a0,a0,14508		# "Installing Msg.."
  403f08:	8f998100 	lw	t9,-32512(gp) <printf>
  403f0c:	00000000 	nop
  403f10:	0320f809 	jalr	t9
  403f14:	00000000 	nop
  403f18:	8fbc0010 	lw	gp,16(sp)
  403f1c:	00000000 	nop
  403f20:	8f848020 	lw	a0,-32736(gp)
  403f24:	00000000 	nop
  403f28:	248438c0 	addiu	a0,a0,14528		# "cd /sip;gunzip -f msg.tar.gz;tar -xf msg.tar;rm -f msg.tar"
  403f2c:	10000053 	b	40407c <_init+0x2888>
  403f30:	00000000 	nop
  403f34:	8f848020 	lw	a0,-32736(gp)
  403f38:	00000000 	nop
  403f3c:	248438fc 	addiu	a0,a0,14588		# "htm.tar.gz"
  403f40:	02002821 	move	a1,s0
  403f44:	02203021 	move	a2,s1
  403f48:	8f998018 	lw	t9,-32744(gp)
  403f4c:	00000000 	nop
  403f50:	27392bac 	addiu	t9,t9,11180		# 0x402bac
  403f54:	00000000 	nop
  403f58:	0320f809 	jalr	t9
  403f5c:	00000000 	nop
  403f60:	8fbc0010 	lw	gp,16(sp)
  403f64:	0440008d 	bltz	v0,40419c <_init+0x29a8>
  403f68:	2402ffff 	li	v0,-1
  403f6c:	8f848020 	lw	a0,-32736(gp)
  403f70:	00000000 	nop
  403f74:	24843908 	addiu	a0,a0,14600		# "Installing Htm.."
  403f78:	8f998100 	lw	t9,-32512(gp) <printf>
  403f7c:	00000000 	nop
  403f80:	0320f809 	jalr	t9
  403f84:	00000000 	nop
  403f88:	8fbc0010 	lw	gp,16(sp)
  403f8c:	00000000 	nop
  403f90:	8f848020 	lw	a0,-32736(gp)
  403f94:	00000000 	nop
  403f98:	2484391c 	addiu	a0,a0,14620		# "mv /sip/htm.tar.gz /tmp;cd /tmp;gunzip -f htm.tar.gz;tar -xf htm.tar;rm -fr /sip/htm;mv htm /sip"
  403f9c:	10000037 	b	40407c <_init+0x2888>
  403fa0:	00000000 	nop
  403fa4:	8f848020 	lw	a0,-32736(gp)
  403fa8:	00000000 	nop
  403fac:	24843980 	addiu	a0,a0,14720		# "dsp.tar.gz"
  403fb0:	02002821 	move	a1,s0
  403fb4:	02203021 	move	a2,s1
  403fb8:	8f998018 	lw	t9,-32744(gp)
  403fbc:	00000000 	nop
  403fc0:	27392bac 	addiu	t9,t9,11180		# 0x402bac
  403fc4:	00000000 	nop
  403fc8:	0320f809 	jalr	t9
  403fcc:	00000000 	nop
  403fd0:	8fbc0010 	lw	gp,16(sp)
  403fd4:	04400071 	bltz	v0,40419c <_init+0x29a8>
  403fd8:	2402ffff 	li	v0,-1
  403fdc:	8f848020 	lw	a0,-32736(gp)
  403fe0:	00000000 	nop
  403fe4:	2484398c 	addiu	a0,a0,14732		# "Installing DSP.."
  403fe8:	8f998100 	lw	t9,-32512(gp) <printf>
  403fec:	00000000 	nop
  403ff0:	0320f809 	jalr	t9
  403ff4:	00000000 	nop
  403ff8:	8fbc0010 	lw	gp,16(sp)
  403ffc:	00000000 	nop
  404000:	8f848020 	lw	a0,-32736(gp)
  404004:	00000000 	nop
  404008:	248439a0 	addiu	a0,a0,14752		# "cd /sip;gunzip -f dsp.tar.gz;tar -xf dsp.tar;mv -f sd_dev/* .;rm sd_dev -rf;rm -f dsp.tar"
  40400c:	1000001b 	b	40407c <_init+0x2888>
  404010:	00000000 	nop
  404014:	8f848020 	lw	a0,-32736(gp)
  404018:	00000000 	nop
  40401c:	248439fc 	addiu	a0,a0,14844		# "melody.tar.gz"
  404020:	02002821 	move	a1,s0
  404024:	02203021 	move	a2,s1
  404028:	8f998018 	lw	t9,-32744(gp)
  40402c:	00000000 	nop
  404030:	27392bac 	addiu	t9,t9,11180		# 0x402bac
  404034:	00000000 	nop
  404038:	0320f809 	jalr	t9
  40403c:	00000000 	nop
  404040:	8fbc0010 	lw	gp,16(sp)
  404044:	04400055 	bltz	v0,40419c <_init+0x29a8>
  404048:	2402ffff 	li	v0,-1
  40404c:	8f848020 	lw	a0,-32736(gp)
  404050:	00000000 	nop
  404054:	24843a0c 	addiu	a0,a0,14860		# "Installing Melody.."
  404058:	8f998100 	lw	t9,-32512(gp) <printf>
  40405c:	00000000 	nop
  404060:	0320f809 	jalr	t9
  404064:	00000000 	nop
  404068:	8fbc0010 	lw	gp,16(sp)
  40406c:	00000000 	nop
  404070:	8f848020 	lw	a0,-32736(gp)
  404074:	00000000 	nop
  404078:	24843a24 	addiu	a0,a0,14884		# "cd /sip;gunzip -f melody.tar.gz;tar -xf melody.tar;rm -f melody.tar"
  40407c:	8f9981ec 	lw	t9,-32276(gp) <system>
  404080:	00000000 	nop
  404084:	0320f809 	jalr	t9
  404088:	00000000 	nop
  40408c:	8fbc0010 	lw	gp,16(sp)
  404090:	00000000 	nop
  404094:	8f848020 	lw	a0,-32736(gp)
  404098:	00000000 	nop
  40409c:	2484388c 	addiu	a0,a0,14476		# "Done."
  4040a0:	8f998100 	lw	t9,-32512(gp) <printf>
  4040a4:	00000000 	nop
  4040a8:	0320f809 	jalr	t9
  4040ac:	00000000 	nop
  4040b0:	8fbc0010 	lw	gp,16(sp)
  4040b4:	1000000f 	b	4040f4 <_init+0x2900>
  4040b8:	00000000 	nop
  4040bc:	8f848020 	lw	a0,-32736(gp)
  4040c0:	00000000 	nop
  4040c4:	24843a68 	addiu	a0,a0,14952		# "test_app"
  4040c8:	02002821 	move	a1,s0
  4040cc:	02203021 	move	a2,s1
  4040d0:	8f998018 	lw	t9,-32744(gp)
  4040d4:	00000000 	nop
  4040d8:	27392a78 	addiu	t9,t9,10872		# 0x402a78
  4040dc:	00000000 	nop
  4040e0:	0320f809 	jalr	t9
  4040e4:	00000000 	nop
  4040e8:	8fbc0010 	lw	gp,16(sp)
  4040ec:	0440ff2b 	bltz	v0,403d9c <_init+0x25a8>
  4040f0:	00009021 	move	s2,zero
  4040f4:	16600011 	bnez	s3,40413c <_init+0x2948>
  4040f8:	240403e8 	li	a0,1000
  4040fc:	8f848108 	lw	a0,-32504(gp)
  404100:	00002821 	move	a1,zero
  404104:	8f998018 	lw	t9,-32744(gp)
  404108:	00000000 	nop
  40410c:	27392838 	addiu	t9,t9,10296		# 0x402838
  404110:	00000000 	nop
  404114:	0320f809 	jalr	t9
  404118:	00000000 	nop
  40411c:	8fbc0010 	lw	gp,16(sp)
  404120:	240403e8 	li	a0,1000
  404124:	8f9981e8 	lw	t9,-32280(gp) <sys_sleep>
  404128:	00000000 	nop
  40412c:	0320f809 	jalr	t9
  404130:	00000000 	nop
  404134:	8fbc0010 	lw	gp,16(sp)
  404138:	240403e8 	li	a0,1000
  40413c:	8f9981e8 	lw	t9,-32280(gp) <sys_sleep>
  404140:	00000000 	nop
  404144:	0320f809 	jalr	t9
  404148:	00000000 	nop
  40414c:	8fbc0010 	lw	gp,16(sp)
  404150:	00000000 	nop
  404154:	8f998038 	lw	t9,-32712(gp) <sync>
  404158:	00000000 	nop
  40415c:	0320f809 	jalr	t9
  404160:	00000000 	nop
  404164:	8fbc0010 	lw	gp,16(sp)
  404168:	240403e8 	li	a0,1000
  40416c:	8f9981e8 	lw	t9,-32280(gp) <sys_sleep>
  404170:	00000000 	nop
  404174:	0320f809 	jalr	t9
  404178:	00000000 	nop
  40417c:	8fbc0010 	lw	gp,16(sp)
  404180:	00000000 	nop
  404184:	8f998038 	lw	t9,-32712(gp) <sync>
  404188:	00000000 	nop
  40418c:	0320f809 	jalr	t9
  404190:	00000000 	nop
  404194:	8fbc0010 	lw	gp,16(sp)
  404198:	02401021 	move	v0,s2
  40419c:	8fbf00bc 	lw	ra,188(sp)
  4041a0:	8fb300b4 	lw	s3,180(sp)
  4041a4:	8fb200b0 	lw	s2,176(sp)
  4041a8:	8fb100ac 	lw	s1,172(sp)
  4041ac:	8fb000a8 	lw	s0,168(sp)
  4041b0:	03e00008 	jr	ra
  4041b4:	27bd00c0 	addiu	sp,sp,192
  4041b8:	3c1c0fc0 	lui	gp,0xfc0
  4041bc:	279c50d8 	addiu	gp,gp,20696
  4041c0:	0399e021 	addu	gp,gp,t9
  4041c4:	28a20004 	slti	v0,a1,4
  4041c8:	1440000e 	bnez	v0,404204 <_init+0x2a10>
  4041cc:	00003021 	move	a2,zero
  4041d0:	24c60004 	addiu	a2,a2,4
  4041d4:	90820003 	lbu	v0,3(a0)
  4041d8:	90830000 	lbu	v1,0(a0)
  4041dc:	a0820000 	sb	v0,0(a0)
  4041e0:	a0830003 	sb	v1,3(a0)
  4041e4:	90820002 	lbu	v0,2(a0)
  4041e8:	90830001 	lbu	v1,1(a0)
  4041ec:	a0820001 	sb	v0,1(a0)
  4041f0:	a0830002 	sb	v1,2(a0)
  4041f4:	24c20004 	addiu	v0,a2,4
  4041f8:	00a2102a 	slt	v0,a1,v0
  4041fc:	1040fff4 	beqz	v0,4041d0 <_init+0x29dc>
  404200:	24840004 	addiu	a0,a0,4
  404204:	03e00008 	jr	ra
  404208:	00000000 	nop
  40420c:	3c1c0fc0 	lui	gp,0xfc0
  404210:	279c5084 	addiu	gp,gp,20612
  404214:	0399e021 	addu	gp,gp,t9
  404218:	27bdffd8 	addiu	sp,sp,-40
  40421c:	afbc0010 	sw	gp,16(sp)
  404220:	afbf0020 	sw	ra,32(sp)
  404224:	afbc001c 	sw	gp,28(sp)
  404228:	afb00018 	sw	s0,24(sp)
  40422c:	8f848020 	lw	a0,-32736(gp)
  404230:	00000000 	nop
  404234:	24843abc 	addiu	a0,a0,15036
  404238:	8f9981ec 	lw	t9,-32276(gp) <system>
  40423c:	00000000 	nop
  404240:	0320f809 	jalr	t9
  404244:	00000000 	nop
  404248:	8fbc0010 	lw	gp,16(sp)
  40424c:	00000000 	nop
  404250:	8f848020 	lw	a0,-32736(gp)
  404254:	00000000 	nop
  404258:	24843ad8 	addiu	a0,a0,15064		# "/dev/flash"
  40425c:	00002821 	move	a1,zero
  404260:	8f9980d0 	lw	t9,-32560(gp) <open>
  404264:	00000000 	nop
  404268:	0320f809 	jalr	t9
  40426c:	00000000 	nop
  404270:	8fbc0010 	lw	gp,16(sp)
  404274:	00408021 	move	s0,v0
  404278:	8f848020 	lw	a0,-32736(gp)
  40427c:	00000000 	nop
  404280:	24843ae4 	addiu	a0,a0,15076		# "Can't open flash device"
  404284:	06000066 	bltz	s0,404420 <_init+0x2c2c>
  404288:	00000000 	nop
  40428c:	8f84801c 	lw	a0,-32740(gp)
  404290:	00000000 	nop
  404294:	248401f4 	addiu	a0,a0,500
  404298:	8c840000 	lw	a0,0(a0)
  40429c:	00000000 	nop
  4042a0:	10800015 	beqz	a0,4042f8 <_init+0x2b04>
  4042a4:	00000000 	nop
  4042a8:	8f998114 	lw	t9,-32492(gp) <shmdt>
  4042ac:	00000000 	nop
  4042b0:	0320f809 	jalr	t9
  4042b4:	00000000 	nop
  4042b8:	8fbc0010 	lw	gp,16(sp)
  4042bc:	00000000 	nop
  4042c0:	8f81801c 	lw	at,-32740(gp)
  4042c4:	00000000 	nop
  4042c8:	242101f4 	addiu	at,at,500
  4042cc:	ac200000 	sw	zero,0(at)
  4042d0:	8f8480bc 	lw	a0,-32580(gp)
  4042d4:	00000000 	nop
  4042d8:	8c840000 	lw	a0,0(a0)
  4042dc:	00002821 	move	a1,zero
  4042e0:	00003021 	move	a2,zero
  4042e4:	8f9980e0 	lw	t9,-32544(gp) <shmctl>
  4042e8:	00000000 	nop
  4042ec:	0320f809 	jalr	t9
  4042f0:	00000000 	nop
  4042f4:	8fbc0010 	lw	gp,16(sp)
  4042f8:	00002021 	move	a0,zero
  4042fc:	3c050040 	lui	a1,0x40
  404300:	24060780 	li	a2,1920
  404304:	8f9981a4 	lw	t9,-32348(gp) <shmget>
  404308:	00000000 	nop
  40430c:	0320f809 	jalr	t9
  404310:	00000000 	nop
  404314:	8fbc0010 	lw	gp,16(sp)
  404318:	00000000 	nop
  40431c:	8f8180bc 	lw	at,-32580(gp)
  404320:	00000000 	nop
  404324:	ac220000 	sw	v0,0(at)
  404328:	0440000f 	bltz	v0,404368 <_init+0x2b74>
  40432c:	00402021 	move	a0,v0
  404330:	00002821 	move	a1,zero
  404334:	00003021 	move	a2,zero
  404338:	8f998040 	lw	t9,-32704(gp) <shmat>
  40433c:	00000000 	nop
  404340:	0320f809 	jalr	t9
  404344:	00000000 	nop
  404348:	8fbc0010 	lw	gp,16(sp)
  40434c:	00000000 	nop
  404350:	8f81801c 	lw	at,-32740(gp)
  404354:	00000000 	nop
  404358:	242101f4 	addiu	at,at,500
  40435c:	ac220000 	sw	v0,0(at)
  404360:	10000005 	b	404378 <_init+0x2b84>
  404364:	00000000 	nop
  404368:	8f81801c 	lw	at,-32740(gp)
  40436c:	00000000 	nop
  404370:	242101f4 	addiu	at,at,500
  404374:	ac200000 	sw	zero,0(at)
  404378:	8f85801c 	lw	a1,-32740(gp)
  40437c:	00000000 	nop
  404380:	24a501f4 	addiu	a1,a1,500
  404384:	8ca50000 	lw	a1,0(a1)
  404388:	8f848020 	lw	a0,-32736(gp)
  40438c:	00000000 	nop
  404390:	24843afc 	addiu	a0,a0,15100		# "Read flash memory alloc error"
  404394:	10a00022 	beqz	a1,404420 <_init+0x2c2c>
  404398:	3c060040 	lui	a2,0x40
  40439c:	02002021 	move	a0,s0
  4043a0:	8f998048 	lw	t9,-32696(gp) <read>
  4043a4:	00000000 	nop
  4043a8:	0320f809 	jalr	t9
  4043ac:	00000000 	nop
  4043b0:	8fbc0010 	lw	gp,16(sp)
  4043b4:	04400017 	bltz	v0,404414 <_init+0x2c20>
  4043b8:	3c050040 	lui	a1,0x40
  4043bc:	8f84801c 	lw	a0,-32740(gp)
  4043c0:	00000000 	nop
  4043c4:	248401f4 	addiu	a0,a0,500
  4043c8:	8c840000 	lw	a0,0(a0)
  4043cc:	8f998018 	lw	t9,-32744(gp)
  4043d0:	00000000 	nop
  4043d4:	273941b8 	addiu	t9,t9,16824		# 0x4041b8
  4043d8:	00000000 	nop
  4043dc:	0320f809 	jalr	t9
  4043e0:	00000000 	nop
  4043e4:	8fbc0010 	lw	gp,16(sp)
  4043e8:	3c020040 	lui	v0,0x40
  4043ec:	8f81801c 	lw	at,-32740(gp)
  4043f0:	00000000 	nop
  4043f4:	242101e8 	addiu	at,at,488
  4043f8:	ac220000 	sw	v0,0(at)
  4043fc:	8f81801c 	lw	at,-32740(gp)
  404400:	00000000 	nop
  404404:	242101ec 	addiu	at,at,492
  404408:	ac200000 	sw	zero,0(at)
  40440c:	1000000a 	b	404438 <_init+0x2c44>
  404410:	02001021 	move	v0,s0
  404414:	8f848020 	lw	a0,-32736(gp)
  404418:	00000000 	nop
  40441c:	24843b1c 	addiu	a0,a0,15132		# "Read flash device error"
  404420:	8f998230 	lw	t9,-32208(gp) <perror>
  404424:	00000000 	nop
  404428:	0320f809 	jalr	t9
  40442c:	00000000 	nop
  404430:	8fbc0010 	lw	gp,16(sp)
  404434:	2402ffff 	li	v0,-1
  404438:	8fbf0020 	lw	ra,32(sp)
  40443c:	8fb00018 	lw	s0,24(sp)
  404440:	03e00008 	jr	ra
  404444:	27bd0028 	addiu	sp,sp,40
  404448:	3c1c0fc0 	lui	gp,0xfc0
  40444c:	279c4e48 	addiu	gp,gp,20040
  404450:	0399e021 	addu	gp,gp,t9
  404454:	27bdff48 	addiu	sp,sp,-184
  404458:	afbc0010 	sw	gp,16(sp)
  40445c:	afbf00b4 	sw	ra,180(sp)
  404460:	afbc00b0 	sw	gp,176(sp)
  404464:	afb100ac 	sw	s1,172(sp)
  404468:	afb000a8 	sw	s0,168(sp)
  40446c:	00808821 	move	s1,a0
  404470:	24040003 	li	a0,3
  404474:	02202821 	move	a1,s1
  404478:	27a60018 	addiu	a2,sp,24
  40447c:	8f998194 	lw	t9,-32364(gp) <__xstat>
  404480:	00000000 	nop
  404484:	0320f809 	jalr	t9
  404488:	00000000 	nop
  40448c:	8fbc0010 	lw	gp,16(sp)
  404490:	2403ffff 	li	v1,-1
  404494:	1443000b 	bne	v0,v1,4044c4 <_init+0x2cd0>
  404498:	02202821 	move	a1,s1
  40449c:	8f848020 	lw	a0,-32736(gp)
  4044a0:	00000000 	nop
  4044a4:	24843b34 	addiu	a0,a0,15156		# "!3 TFTP: %s doesn't exist"
  4044a8:	8f998100 	lw	t9,-32512(gp) <printf>
  4044ac:	00000000 	nop
  4044b0:	0320f809 	jalr	t9
  4044b4:	00000000 	nop
  4044b8:	8fbc0010 	lw	gp,16(sp)
  4044bc:	10000050 	b	404600 <_init+0x2e0c>
  4044c0:	2402ffff 	li	v0,-1
  4044c4:	8fa30048 	lw	v1,72(sp)
  4044c8:	8f82801c 	lw	v0,-32740(gp)
  4044cc:	00000000 	nop
  4044d0:	244201e4 	addiu	v0,v0,484
  4044d4:	8c420000 	lw	v0,0(v0)
  4044d8:	00000000 	nop
  4044dc:	0043102a 	slt	v0,v0,v1
  4044e0:	1040000b 	beqz	v0,404510 <_init+0x2d1c>
  4044e4:	02202021 	move	a0,s1
  4044e8:	8f848020 	lw	a0,-32736(gp)
  4044ec:	00000000 	nop
  4044f0:	24843b50 	addiu	a0,a0,15184		# "!1 Read buffer too small"
  4044f4:	8f998100 	lw	t9,-32512(gp) <printf>
  4044f8:	00000000 	nop
  4044fc:	0320f809 	jalr	t9
  404500:	00000000 	nop
  404504:	8fbc0010 	lw	gp,16(sp)
  404508:	1000003d 	b	404600 <_init+0x2e0c>
  40450c:	2402ffff 	li	v0,-1
  404510:	8f858020 	lw	a1,-32736(gp)
  404514:	00000000 	nop
  404518:	24a532dc 	addiu	a1,a1,13020
  40451c:	8f99813c 	lw	t9,-32452(gp) <fopen>
  404520:	00000000 	nop
  404524:	0320f809 	jalr	t9
  404528:	00000000 	nop
  40452c:	8fbc0010 	lw	gp,16(sp)
  404530:	00408021 	move	s0,v0
  404534:	16000006 	bnez	s0,404550 <_init+0x2d5c>
  404538:	24050001 	li	a1,1
  40453c:	8f848020 	lw	a0,-32736(gp)
  404540:	00000000 	nop
  404544:	24843b6c 	addiu	a0,a0,15212		# "!3 TFTP: Cannot Read %s"
  404548:	1000ffd7 	b	4044a8 <_init+0x2cb4>
  40454c:	02202821 	move	a1,s1
  404550:	8f81801c 	lw	at,-32740(gp)
  404554:	00000000 	nop
  404558:	242101ec 	addiu	at,at,492
  40455c:	ac200000 	sw	zero,0(at)
  404560:	8f84807c 	lw	a0,-32644(gp)
  404564:	00000000 	nop
  404568:	8c840000 	lw	a0,0(a0)
  40456c:	8fa60048 	lw	a2,72(sp)
  404570:	02003821 	move	a3,s0
  404574:	8f9981c0 	lw	t9,-32320(gp) <fread>
  404578:	00000000 	nop
  40457c:	0320f809 	jalr	t9
  404580:	00000000 	nop
  404584:	8fbc0010 	lw	gp,16(sp)
  404588:	00000000 	nop
  40458c:	8f81801c 	lw	at,-32740(gp)
  404590:	00000000 	nop
  404594:	242101e8 	addiu	at,at,488
  404598:	ac220000 	sw	v0,0(at)
  40459c:	02002021 	move	a0,s0
  4045a0:	8f998130 	lw	t9,-32464(gp) <fclose>
  4045a4:	00000000 	nop
  4045a8:	0320f809 	jalr	t9
  4045ac:	00000000 	nop
  4045b0:	8fbc0010 	lw	gp,16(sp)
  4045b4:	00000000 	nop
  4045b8:	8f86801c 	lw	a2,-32740(gp)
  4045bc:	00000000 	nop
  4045c0:	24c601e8 	addiu	a2,a2,488
  4045c4:	8cc60000 	lw	a2,0(a2)
  4045c8:	00000000 	nop
  4045cc:	18c0000b 	blez	a2,4045fc <_init+0x2e08>
  4045d0:	02202821 	move	a1,s1
  4045d4:	8f848020 	lw	a0,-32736(gp)
  4045d8:	00000000 	nop
  4045dc:	24843b88 	addiu	a0,a0,15240		# "!0 TFTP: Read %s %d bytes"
  4045e0:	8f998100 	lw	t9,-32512(gp) <printf>
  4045e4:	00000000 	nop
  4045e8:	0320f809 	jalr	t9
  4045ec:	00000000 	nop
  4045f0:	8fbc0010 	lw	gp,16(sp)
  4045f4:	10000002 	b	404600 <_init+0x2e0c>
  4045f8:	00001021 	move	v0,zero
  4045fc:	2402ffff 	li	v0,-1
  404600:	8fbf00b4 	lw	ra,180(sp)
  404604:	8fb100ac 	lw	s1,172(sp)
  404608:	8fb000a8 	lw	s0,168(sp)
  40460c:	03e00008 	jr	ra
  404610:	27bd00b8 	addiu	sp,sp,184
  
  404614:	3c1c0fc0 	lui	gp,0xfc0
  404618:	279c4c7c 	addiu	gp,gp,19580
  40461c:	0399e021 	addu	gp,gp,t9
  404620:	27bdffd8 	addiu	sp,sp,-40
  404624:	afbc0010 	sw	gp,16(sp)
  404628:	afbf0020 	sw	ra,32(sp)
  40462c:	afbc001c 	sw	gp,28(sp)
  404630:	8f82801c 	lw	v0,-32740(gp)
  404634:	00000000 	nop
  404638:	244201e8 	addiu	v0,v0,488
  40463c:	8c420000 	lw	v0,0(v0)
  404640:	8f83801c 	lw	v1,-32740(gp)
  404644:	00000000 	nop
  404648:	246301ec 	addiu	v1,v1,492
  40464c:	8c630000 	lw	v1,0(v1)
  404650:	afb00018 	sw	s0,24(sp)
  404654:	00438023 	subu	s0,v0,v1
  404658:	00b0102a 	slt	v0,a1,s0
  40465c:	10400002 	beqz	v0,404668 <_init+0x2e74>
  404660:	00000000 	nop
  404664:	00a08021 	move	s0,a1
  404668:	1a000018 	blez	s0,4046cc <_init+0x2ed8>
  40466c:	2402ffff 	li	v0,-1
  404670:	8f85807c 	lw	a1,-32644(gp)
  404674:	00000000 	nop
  404678:	8ca50000 	lw	a1,0(a1)
  40467c:	00000000 	nop
  404680:	10a00012 	beqz	a1,4046cc <_init+0x2ed8>
  404684:	00a32821 	addu	a1,a1,v1
  404688:	02003021 	move	a2,s0
  40468c:	8f9980ec 	lw	t9,-32532(gp) <memcpy>
  404690:	00000000 	nop
  404694:	0320f809 	jalr	t9
  404698:	00000000 	nop
  40469c:	8fbc0010 	lw	gp,16(sp)
  4046a0:	00000000 	nop
  4046a4:	8f83801c 	lw	v1,-32740(gp)
  4046a8:	00000000 	nop
  4046ac:	246301ec 	addiu	v1,v1,492
  4046b0:	8c630000 	lw	v1,0(v1)
  4046b4:	02001021 	move	v0,s0
  4046b8:	00701821 	addu	v1,v1,s0
  4046bc:	8f81801c 	lw	at,-32740(gp)
  4046c0:	00000000 	nop
  4046c4:	242101ec 	addiu	at,at,492
  4046c8:	ac230000 	sw	v1,0(at)
  4046cc:	8fbf0020 	lw	ra,32(sp)
  4046d0:	8fb00018 	lw	s0,24(sp)
  4046d4:	03e00008 	jr	ra
  4046d8:	27bd0028 	addiu	sp,sp,40
  4046dc:	3c1c0fc0 	lui	gp,0xfc0
  4046e0:	279c4bb4 	addiu	gp,gp,19380
  4046e4:	0399e021 	addu	gp,gp,t9
  4046e8:	27bdffd8 	addiu	sp,sp,-40
  4046ec:	afbc0010 	sw	gp,16(sp)
  4046f0:	afbf0020 	sw	ra,32(sp)
  4046f4:	afbc001c 	sw	gp,28(sp)
  4046f8:	afb00018 	sw	s0,24(sp)
  4046fc:	8f82801c 	lw	v0,-32740(gp)
  404700:	00000000 	nop
  404704:	244201e4 	addiu	v0,v0,484
  404708:	8c420000 	lw	v0,0(v0)
  40470c:	8f83801c 	lw	v1,-32740(gp)
  404710:	00000000 	nop
  404714:	246301ec 	addiu	v1,v1,492
  404718:	8c630000 	lw	v1,0(v1)
  40471c:	00a08021 	move	s0,a1
  404720:	00431023 	subu	v0,v0,v1
  404724:	0050102a 	slt	v0,v0,s0
  404728:	14400007 	bnez	v0,404748 <_init+0x2f54>
  40472c:	00803021 	move	a2,a0
  404730:	8f84807c 	lw	a0,-32644(gp)
  404734:	00000000 	nop
  404738:	8c840000 	lw	a0,0(a0)
  40473c:	00000000 	nop
  404740:	14800003 	bnez	a0,404750 <_init+0x2f5c>
  404744:	00832021 	addu	a0,a0,v1
  404748:	10000013 	b	404798 <_init+0x2fa4>
  40474c:	2402ffff 	li	v0,-1
  404750:	00c02821 	move	a1,a2
  404754:	02003021 	move	a2,s0
  404758:	8f9980ec 	lw	t9,-32532(gp) <memcpy>
  40475c:	00000000 	nop
  404760:	0320f809 	jalr	t9
  404764:	00000000 	nop
  404768:	8fbc0010 	lw	gp,16(sp)
  40476c:	00000000 	nop
  404770:	8f83801c 	lw	v1,-32740(gp)
  404774:	00000000 	nop
  404778:	246301ec 	addiu	v1,v1,492
  40477c:	8c630000 	lw	v1,0(v1)
  404780:	02001021 	move	v0,s0
  404784:	00701821 	addu	v1,v1,s0
  404788:	8f81801c 	lw	at,-32740(gp)
  40478c:	00000000 	nop
  404790:	242101ec 	addiu	at,at,492
  404794:	ac230000 	sw	v1,0(at)
  404798:	8fbf0020 	lw	ra,32(sp)
  40479c:	8fb00018 	lw	s0,24(sp)
  4047a0:	03e00008 	jr	ra
  4047a4:	27bd0028 	addiu	sp,sp,40
  4047a8:	3c1c0fc0 	lui	gp,0xfc0
  4047ac:	279c4ae8 	addiu	gp,gp,19176
  4047b0:	0399e021 	addu	gp,gp,t9
  4047b4:	03e00008 	jr	ra
  4047b8:	3c020001 	lui	v0,0x1
  4047bc:	3c1c0fc0 	lui	gp,0xfc0
  4047c0:	279c4ad4 	addiu	gp,gp,19156
  4047c4:	0399e021 	addu	gp,gp,t9
  4047c8:	27bdffe0 	addiu	sp,sp,-32
  4047cc:	afbc0010 	sw	gp,16(sp)
  4047d0:	afbf001c 	sw	ra,28(sp)
  4047d4:	afbc0018 	sw	gp,24(sp)
  4047d8:	8f848020 	lw	a0,-32736(gp)
  4047dc:	00000000 	nop
  4047e0:	24843ad8 	addiu	a0,a0,15064		# "/dev/flash"
  4047e4:	24050002 	li	a1,2
  4047e8:	8f9980d0 	lw	t9,-32560(gp) <open>
  4047ec:	00000000 	nop
  4047f0:	0320f809 	jalr	t9
  4047f4:	00000000 	nop
  4047f8:	8fbc0010 	lw	gp,16(sp)
  4047fc:	8fbf001c 	lw	ra,28(sp)
  404800:	00000000 	nop
  404804:	03e00008 	jr	ra
  404808:	27bd0020 	addiu	sp,sp,32
  40480c:	3c1c0fc0 	lui	gp,0xfc0
  404810:	279c4a84 	addiu	gp,gp,19076
  404814:	0399e021 	addu	gp,gp,t9
  404818:	27bdffe0 	addiu	sp,sp,-32
  40481c:	afbc0010 	sw	gp,16(sp)
  404820:	afbf001c 	sw	ra,28(sp)
  404824:	afbc0018 	sw	gp,24(sp)
  404828:	8f998238 	lw	t9,-32200(gp) <close>
  40482c:	00000000 	nop
  404830:	0320f809 	jalr	t9
  404834:	00000000 	nop
  404838:	8fbc0010 	lw	gp,16(sp)
  40483c:	8fbf001c 	lw	ra,28(sp)
  404840:	00000000 	nop
  404844:	03e00008 	jr	ra
  404848:	27bd0020 	addiu	sp,sp,32
  40484c:	3c1c0fc0 	lui	gp,0xfc0
  404850:	279c4a44 	addiu	gp,gp,19012
  404854:	0399e021 	addu	gp,gp,t9
  404858:	27bdffe0 	addiu	sp,sp,-32
  40485c:	afbc0010 	sw	gp,16(sp)
  404860:	afbf001c 	sw	ra,28(sp)
  404864:	afbc0018 	sw	gp,24(sp)
  404868:	00a03021 	move	a2,a1
  40486c:	3c054004 	lui	a1,0x4004
  404870:	34a56601 	ori	a1,a1,0x6601
  404874:	8f998094 	lw	t9,-32620(gp) <ioctl>
  404878:	00000000 	nop
  40487c:	0320f809 	jalr	t9
  404880:	00000000 	nop
  404884:	8fbc0010 	lw	gp,16(sp)
  404888:	0441000a 	bgez	v0,4048b4 <_init+0x30c0>
  40488c:	24020001 	li	v0,1
  404890:	8f848020 	lw	a0,-32736(gp)
  404894:	00000000 	nop
  404898:	24843ba4 	addiu	a0,a0,15268		# "Get flash region failure !"
  40489c:	8f998100 	lw	t9,-32512(gp) <printf>
  4048a0:	00000000 	nop
  4048a4:	0320f809 	jalr	t9
  4048a8:	00000000 	nop
  4048ac:	8fbc0010 	lw	gp,16(sp)
  4048b0:	2402ffff 	li	v0,-1
  4048b4:	8fbf001c 	lw	ra,28(sp)
  4048b8:	00000000 	nop
  4048bc:	03e00008 	jr	ra
  4048c0:	27bd0020 	addiu	sp,sp,32
  4048c4:	3c1c0fc0 	lui	gp,0xfc0
  4048c8:	279c49cc 	addiu	gp,gp,18892
  4048cc:	0399e021 	addu	gp,gp,t9
  4048d0:	27bdffd8 	addiu	sp,sp,-40
  4048d4:	afbc0010 	sw	gp,16(sp)
  4048d8:	afbf0024 	sw	ra,36(sp)
  4048dc:	afbc0020 	sw	gp,32(sp)
  4048e0:	3c054004 	lui	a1,0x4004
  4048e4:	34a56602 	ori	a1,a1,0x6602
  4048e8:	27a60018 	addiu	a2,sp,24
  4048ec:	8f998094 	lw	t9,-32620(gp) <ioctl>
  4048f0:	00000000 	nop
  4048f4:	0320f809 	jalr	t9
  4048f8:	00000000 	nop
  4048fc:	8fbc0010 	lw	gp,16(sp)
  404900:	04400004 	bltz	v0,404914 <_init+0x3120>
  404904:	00000000 	nop
  404908:	8fa20018 	lw	v0,24(sp)
  40490c:	1000000a 	b	404938 <_init+0x3144>
  404910:	00000000 	nop
  404914:	8f848020 	lw	a0,-32736(gp)
  404918:	00000000 	nop
  40491c:	24843bc0 	addiu	a0,a0,15296		# "Get flash base address failure !"
  404920:	8f998100 	lw	t9,-32512(gp) <printf>
  404924:	00000000 	nop
  404928:	0320f809 	jalr	t9
  40492c:	00000000 	nop
  404930:	8fbc0010 	lw	gp,16(sp)
  404934:	2402ffff 	li	v0,-1
  404938:	8fbf0024 	lw	ra,36(sp)
  40493c:	00000000 	nop
  404940:	03e00008 	jr	ra
  404944:	27bd0028 	addiu	sp,sp,40
  404948:	3c1c0fc0 	lui	gp,0xfc0
  40494c:	279c4948 	addiu	gp,gp,18760
  404950:	0399e021 	addu	gp,gp,t9
  404954:	27bdfef8 	addiu	sp,sp,-264
  404958:	afbc0010 	sw	gp,16(sp)
  40495c:	afbf0100 	sw	ra,256(sp)
  404960:	afbc00fc 	sw	gp,252(sp)
  404964:	afb200f8 	sw	s2,248(sp)
  404968:	afb100f4 	sw	s1,244(sp)
  40496c:	afb000f0 	sw	s0,240(sp)
  404970:	8f998018 	lw	t9,-32744(gp)
  404974:	00000000 	nop
  404978:	273947bc 	addiu	t9,t9,18364		# 0x4047bc
  40497c:	00000000 	nop
  404980:	0320f809 	jalr	t9
  404984:	00000000 	nop
  404988:	8fbc0010 	lw	gp,16(sp)
  40498c:	00408821 	move	s1,v0
  404990:	0621000b 	bgez	s1,4049c0 <_init+0x31cc>
  404994:	27a40018 	addiu	a0,sp,24
  404998:	8f848020 	lw	a0,-32736(gp)
  40499c:	00000000 	nop
  4049a0:	24843be4 	addiu	a0,a0,15332		# "!3 Can't open flash dev file !"
  4049a4:	8f998100 	lw	t9,-32512(gp) <printf>
  4049a8:	00000000 	nop
  4049ac:	0320f809 	jalr	t9
  4049b0:	00000000 	nop
  4049b4:	8fbc0010 	lw	gp,16(sp)
  4049b8:	100000da 	b	404d24 <_init+0x3530>
  4049bc:	2402ffff 	li	v0,-1
  4049c0:	24050040 	li	a1,64
  4049c4:	8f9980c0 	lw	t9,-32576(gp) <bzero>
  4049c8:	00000000 	nop
  4049cc:	0320f809 	jalr	t9
  4049d0:	00000000 	nop
  4049d4:	8fbc0010 	lw	gp,16(sp)
  4049d8:	24020040 	li	v0,64
  4049dc:	afa20030 	sw	v0,48(sp)
  4049e0:	02202021 	move	a0,s1
  4049e4:	27a50018 	addiu	a1,sp,24
  4049e8:	8f998018 	lw	t9,-32744(gp)
  4049ec:	00000000 	nop
  4049f0:	2739484c 	addiu	t9,t9,18508		# 0x40484c
  4049f4:	00000000 	nop
  4049f8:	0320f809 	jalr	t9
  4049fc:	00000000 	nop
  404a00:	8fbc0010 	lw	gp,16(sp)
  404a04:	044000be 	bltz	v0,404d00 <_init+0x350c>
  404a08:	02202021 	move	a0,s1
  404a0c:	8f998018 	lw	t9,-32744(gp)
  404a10:	00000000 	nop
  404a14:	273948c4 	addiu	t9,t9,18628		# 0x4048c4
  404a18:	00000000 	nop
  404a1c:	0320f809 	jalr	t9
  404a20:	00000000 	nop
  404a24:	8fbc0010 	lw	gp,16(sp)
  404a28:	02202021 	move	a0,s1
  404a2c:	8fa50028 	lw	a1,40(sp)
  404a30:	00003021 	move	a2,zero
  404a34:	00a22823 	subu	a1,a1,v0
  404a38:	8f9980f4 	lw	t9,-32524(gp) <lseek>
  404a3c:	00000000 	nop
  404a40:	0320f809 	jalr	t9
  404a44:	00000000 	nop
  404a48:	8fbc0010 	lw	gp,16(sp)
  404a4c:	00000000 	nop
  404a50:	8f848020 	lw	a0,-32736(gp)
  404a54:	00000000 	nop
  404a58:	24843c04 	addiu	a0,a0,15364		# "cd /sip;tar -cf /tmp/backup.tar *.bin mp3.cfg SMS.dat;cd /tmp;gzip backup.tar"
  404a5c:	8f9981ec 	lw	t9,-32276(gp) <system>
  404a60:	00000000 	nop
  404a64:	0320f809 	jalr	t9
  404a68:	00000000 	nop
  404a6c:	8fbc0010 	lw	gp,16(sp)
  404a70:	24040003 	li	a0,3
  404a74:	8f858020 	lw	a1,-32736(gp)
  404a78:	00000000 	nop
  404a7c:	24a53c54 	addiu	a1,a1,15444		# "/tmp/backup.tar.gz"
  404a80:	27a60058 	addiu	a2,sp,88
  404a84:	8f998194 	lw	t9,-32364(gp) <__xstat>
  404a88:	00000000 	nop
  404a8c:	0320f809 	jalr	t9
  404a90:	00000000 	nop
  404a94:	8fbc0010 	lw	gp,16(sp)
  404a98:	2403ffff 	li	v1,-1
  404a9c:	1443000e 	bne	v0,v1,404ad8 <_init+0x32e4>
  404aa0:	00000000 	nop
  404aa4:	8f848020 	lw	a0,-32736(gp)
  404aa8:	00000000 	nop
  404aac:	24843c68 	addiu	a0,a0,15464		# "!3 Backup: File not found (%s)"
  404ab0:	8f858020 	lw	a1,-32736(gp)
  404ab4:	00000000 	nop
  404ab8:	24a53c54 	addiu	a1,a1,15444		# "/tmp/backup.tar.gz"
  404abc:	8f998100 	lw	t9,-32512(gp) <printf>
  404ac0:	00000000 	nop
  404ac4:	0320f809 	jalr	t9
  404ac8:	00000000 	nop
  404acc:	8fbc0010 	lw	gp,16(sp)
  404ad0:	1000008c 	b	404d04 <_init+0x3510>
  404ad4:	02202021 	move	a0,s1
  404ad8:	8fa2002c 	lw	v0,44(sp)
  404adc:	8fa50088 	lw	a1,136(sp)
  404ae0:	2442fffc 	addiu	v0,v0,-4
  404ae4:	0045102b 	sltu	v0,v0,a1
  404ae8:	1040000b 	beqz	v0,404b18 <_init+0x3324>
  404aec:	00000000 	nop
  404af0:	8f848020 	lw	a0,-32736(gp)
  404af4:	00000000 	nop
  404af8:	24843c88 	addiu	a0,a0,15496		# "!3 Backup: Size too big (%d)"
  404afc:	8f998100 	lw	t9,-32512(gp) <printf>
  404b00:	00000000 	nop
  404b04:	0320f809 	jalr	t9
  404b08:	00000000 	nop
  404b0c:	8fbc0010 	lw	gp,16(sp)
  404b10:	1000007c 	b	404d04 <_init+0x3510>
  404b14:	02202021 	move	a0,s1
  404b18:	8f928020 	lw	s2,-32736(gp)
  404b1c:	00000000 	nop
  404b20:	26523c54 	addiu	s2,s2,15444		# "/tmp/backup.tar.gz"
  404b24:	00000000 	nop
  404b28:	02402021 	move	a0,s2
  404b2c:	8f858020 	lw	a1,-32736(gp)
  404b30:	00000000 	nop
  404b34:	24a532dc 	addiu	a1,a1,13020
  404b38:	8f99813c 	lw	t9,-32452(gp) <fopen>
  404b3c:	00000000 	nop
  404b40:	0320f809 	jalr	t9
  404b44:	00000000 	nop
  404b48:	8fbc0010 	lw	gp,16(sp)
  404b4c:	00408021 	move	s0,v0
  404b50:	1600000b 	bnez	s0,404b80 <_init+0x338c>
  404b54:	02402821 	move	a1,s2
  404b58:	8f848020 	lw	a0,-32736(gp)
  404b5c:	00000000 	nop
  404b60:	24843ca8 	addiu	a0,a0,15528		# "!3 Backup: Cannot Read %s"
  404b64:	8f998100 	lw	t9,-32512(gp) <printf>
  404b68:	00000000 	nop
  404b6c:	0320f809 	jalr	t9
  404b70:	00000000 	nop
  404b74:	8fbc0010 	lw	gp,16(sp)
  404b78:	10000062 	b	404d04 <_init+0x3510>
  404b7c:	02202021 	move	a0,s1
  404b80:	8fa4002c 	lw	a0,44(sp)
  404b84:	8f998138 	lw	t9,-32456(gp) <my_malloc>
  404b88:	00000000 	nop
  404b8c:	0320f809 	jalr	t9
  404b90:	00000000 	nop
  404b94:	8fbc0010 	lw	gp,16(sp)
  404b98:	24050001 	li	a1,1
  404b9c:	00409021 	move	s2,v0
  404ba0:	02003821 	move	a3,s0
  404ba4:	8fa60088 	lw	a2,136(sp)
  404ba8:	8fa4002c 	lw	a0,44(sp)
  404bac:	24c20004 	addiu	v0,a2,4
  404bb0:	00822023 	subu	a0,a0,v0
  404bb4:	02442021 	addu	a0,s2,a0
  404bb8:	8f9981c0 	lw	t9,-32320(gp) <fread>
  404bbc:	00000000 	nop
  404bc0:	0320f809 	jalr	t9
  404bc4:	00000000 	nop
  404bc8:	8fbc0010 	lw	gp,16(sp)
  404bcc:	afa200e8 	sw	v0,232(sp)
  404bd0:	02002021 	move	a0,s0
  404bd4:	8f998130 	lw	t9,-32464(gp) <fclose>
  404bd8:	00000000 	nop
  404bdc:	0320f809 	jalr	t9
  404be0:	00000000 	nop
  404be4:	8fbc0010 	lw	gp,16(sp)
  404be8:	8fa2002c 	lw	v0,44(sp)
  404bec:	8f848020 	lw	a0,-32736(gp)
  404bf0:	00000000 	nop
  404bf4:	24843cc4 	addiu	a0,a0,15556		# "Backup config......"
  404bf8:	00521021 	addu	v0,v0,s2
  404bfc:	83a300e8 	lb	v1,232(sp)
  404c00:	83a500e9 	lb	a1,233(sp)
  404c04:	83a600ea 	lb	a2,234(sp)
  404c08:	83a700eb 	lb	a3,235(sp)
  404c0c:	a043fffc 	sb	v1,-4(v0)
  404c10:	a045fffd 	sb	a1,-3(v0)
  404c14:	a046fffe 	sb	a2,-2(v0)
  404c18:	a047ffff 	sb	a3,-1(v0)
  404c1c:	8f998100 	lw	t9,-32512(gp) <printf>
  404c20:	00000000 	nop
  404c24:	0320f809 	jalr	t9
  404c28:	00000000 	nop
  404c2c:	8fbc0010 	lw	gp,16(sp)
  404c30:	00000000 	nop
  404c34:	8f848020 	lw	a0,-32736(gp)
  404c38:	00000000 	nop
  404c3c:	24843cdc 	addiu	a0,a0,15580		# "Free backup space : %d/%d"
  404c40:	8fa60088 	lw	a2,136(sp)
  404c44:	8fa2002c 	lw	v0,44(sp)
  404c48:	24c50004 	addiu	a1,a2,4
  404c4c:	00452823 	subu	a1,v0,a1
  404c50:	8f998100 	lw	t9,-32512(gp) <printf>
  404c54:	00000000 	nop
  404c58:	0320f809 	jalr	t9
  404c5c:	00000000 	nop
  404c60:	8fbc0010 	lw	gp,16(sp)
  404c64:	02202021 	move	a0,s1
  404c68:	8fa6002c 	lw	a2,44(sp)
  404c6c:	02402821 	move	a1,s2
  404c70:	8f998248 	lw	t9,-32184(gp) <write>
  404c74:	00000000 	nop
  404c78:	0320f809 	jalr	t9
  404c7c:	00000000 	nop
  404c80:	8fbc0010 	lw	gp,16(sp)
  404c84:	04400010 	bltz	v0,404cc8 <_init+0x34d4>
  404c88:	02402021 	move	a0,s2
  404c8c:	8f9981b4 	lw	t9,-32332(gp) <my_free>
  404c90:	00000000 	nop
  404c94:	0320f809 	jalr	t9
  404c98:	00000000 	nop
  404c9c:	8fbc0010 	lw	gp,16(sp)
  404ca0:	02202021 	move	a0,s1
  404ca4:	8f998018 	lw	t9,-32744(gp)
  404ca8:	00000000 	nop
  404cac:	2739480c 	addiu	t9,t9,18444		# 0x40480c
  404cb0:	00000000 	nop
  404cb4:	0320f809 	jalr	t9
  404cb8:	00000000 	nop
  404cbc:	8fbc0010 	lw	gp,16(sp)
  404cc0:	10000018 	b	404d24 <_init+0x3530>
  404cc4:	00001021 	move	v0,zero
  404cc8:	8f848020 	lw	a0,-32736(gp)
  404ccc:	00000000 	nop
  404cd0:	24843cf8 	addiu	a0,a0,15608		# "!3 Backup: Write flash failure !"
  404cd4:	8f998100 	lw	t9,-32512(gp) <printf>
  404cd8:	00000000 	nop
  404cdc:	0320f809 	jalr	t9
  404ce0:	00000000 	nop
  404ce4:	8fbc0010 	lw	gp,16(sp)
  404ce8:	02402021 	move	a0,s2
  404cec:	8f9981b4 	lw	t9,-32332(gp) <my_free>
  404cf0:	00000000 	nop
  404cf4:	0320f809 	jalr	t9
  404cf8:	00000000 	nop
  404cfc:	8fbc0010 	lw	gp,16(sp)
  404d00:	02202021 	move	a0,s1
  404d04:	8f998018 	lw	t9,-32744(gp)
  404d08:	00000000 	nop
  404d0c:	2739480c 	addiu	t9,t9,18444		# 0x40480c
  404d10:	00000000 	nop
  404d14:	0320f809 	jalr	t9
  404d18:	00000000 	nop
  404d1c:	8fbc0010 	lw	gp,16(sp)
  404d20:	2402ffff 	li	v0,-1
  404d24:	8fbf0100 	lw	ra,256(sp)
  404d28:	8fb200f8 	lw	s2,248(sp)
  404d2c:	8fb100f4 	lw	s1,244(sp)
  404d30:	8fb000f0 	lw	s0,240(sp)
  404d34:	03e00008 	jr	ra
  404d38:	27bd0108 	addiu	sp,sp,264
  404d3c:	3c1c0fc0 	lui	gp,0xfc0
  404d40:	279c4554 	addiu	gp,gp,17748
  404d44:	0399e021 	addu	gp,gp,t9
  404d48:	27bdff98 	addiu	sp,sp,-104
  404d4c:	afbc0010 	sw	gp,16(sp)
  404d50:	afbf0064 	sw	ra,100(sp)
  404d54:	afbc0060 	sw	gp,96(sp)
  404d58:	afb1005c 	sw	s1,92(sp)
  404d5c:	afb00058 	sw	s0,88(sp)
  404d60:	8f998018 	lw	t9,-32744(gp)
  404d64:	00000000 	nop
  404d68:	273947bc 	addiu	t9,t9,18364		# 0x4047bc
  404d6c:	00000000 	nop
  404d70:	0320f809 	jalr	t9
  404d74:	00000000 	nop
  404d78:	8fbc0010 	lw	gp,16(sp)
  404d7c:	00408821 	move	s1,v0
  404d80:	0621000b 	bgez	s1,404db0 <_init+0x35bc>
  404d84:	27a40018 	addiu	a0,sp,24
  404d88:	8f848020 	lw	a0,-32736(gp)
  404d8c:	00000000 	nop
  404d90:	24843be4 	addiu	a0,a0,15332		# "!3 Can't open flash dev file !"
  404d94:	8f998100 	lw	t9,-32512(gp) <printf>
  404d98:	00000000 	nop
  404d9c:	0320f809 	jalr	t9
  404da0:	00000000 	nop
  404da4:	8fbc0010 	lw	gp,16(sp)
  404da8:	1000005b 	b	404f18 <_init+0x3724>
  404dac:	2402ffff 	li	v0,-1
  404db0:	24050040 	li	a1,64
  404db4:	8f9980c0 	lw	t9,-32576(gp) <bzero>
  404db8:	00000000 	nop
  404dbc:	0320f809 	jalr	t9
  404dc0:	00000000 	nop
  404dc4:	8fbc0010 	lw	gp,16(sp)
  404dc8:	24020040 	li	v0,64
  404dcc:	afa20030 	sw	v0,48(sp)
  404dd0:	02202021 	move	a0,s1
  404dd4:	27a50018 	addiu	a1,sp,24
  404dd8:	8f998018 	lw	t9,-32744(gp)
  404ddc:	00000000 	nop
  404de0:	2739484c 	addiu	t9,t9,18508		# 0x40484c
  404de4:	00000000 	nop
  404de8:	0320f809 	jalr	t9
  404dec:	00000000 	nop
  404df0:	8fbc0010 	lw	gp,16(sp)
  404df4:	0440003f 	bltz	v0,404ef4 <_init+0x3700>
  404df8:	02202021 	move	a0,s1
  404dfc:	8f998018 	lw	t9,-32744(gp)
  404e00:	00000000 	nop
  404e04:	273948c4 	addiu	t9,t9,18628		# 0x4048c4
  404e08:	00000000 	nop
  404e0c:	0320f809 	jalr	t9
  404e10:	00000000 	nop
  404e14:	8fbc0010 	lw	gp,16(sp)
  404e18:	02202021 	move	a0,s1
  404e1c:	8fa50028 	lw	a1,40(sp)
  404e20:	00003021 	move	a2,zero
  404e24:	00a22823 	subu	a1,a1,v0
  404e28:	8f9980f4 	lw	t9,-32524(gp) <lseek>
  404e2c:	00000000 	nop
  404e30:	0320f809 	jalr	t9
  404e34:	00000000 	nop
  404e38:	8fbc0010 	lw	gp,16(sp)
  404e3c:	8fa4002c 	lw	a0,44(sp)
  404e40:	8f998138 	lw	t9,-32456(gp) <my_malloc>
  404e44:	00000000 	nop
  404e48:	0320f809 	jalr	t9
  404e4c:	00000000 	nop
  404e50:	8fbc0010 	lw	gp,16(sp)
  404e54:	02202021 	move	a0,s1
  404e58:	00408021 	move	s0,v0
  404e5c:	8fa6002c 	lw	a2,44(sp)
  404e60:	02002821 	move	a1,s0
  404e64:	8f998248 	lw	t9,-32184(gp) <write>
  404e68:	00000000 	nop
  404e6c:	0320f809 	jalr	t9
  404e70:	00000000 	nop
  404e74:	8fbc0010 	lw	gp,16(sp)
  404e78:	04400010 	bltz	v0,404ebc <_init+0x36c8>
  404e7c:	02002021 	move	a0,s0
  404e80:	8f9981b4 	lw	t9,-32332(gp) <my_free>
  404e84:	00000000 	nop
  404e88:	0320f809 	jalr	t9
  404e8c:	00000000 	nop
  404e90:	8fbc0010 	lw	gp,16(sp)
  404e94:	02202021 	move	a0,s1
  404e98:	8f998018 	lw	t9,-32744(gp)
  404e9c:	00000000 	nop
  404ea0:	2739480c 	addiu	t9,t9,18444		# 0x40480c
  404ea4:	00000000 	nop
  404ea8:	0320f809 	jalr	t9
  404eac:	00000000 	nop
  404eb0:	8fbc0010 	lw	gp,16(sp)
  404eb4:	10000018 	b	404f18 <_init+0x3724>
  404eb8:	00001021 	move	v0,zero
  404ebc:	8f848020 	lw	a0,-32736(gp)
  404ec0:	00000000 	nop
  404ec4:	24843d1c 	addiu	a0,a0,15644		# "!3 Clear: Write flash failure !"
  404ec8:	8f998100 	lw	t9,-32512(gp) <printf>
  404ecc:	00000000 	nop
  404ed0:	0320f809 	jalr	t9
  404ed4:	00000000 	nop
  404ed8:	8fbc0010 	lw	gp,16(sp)
  404edc:	02002021 	move	a0,s0
  404ee0:	8f9981b4 	lw	t9,-32332(gp) <my_free>
  404ee4:	00000000 	nop
  404ee8:	0320f809 	jalr	t9
  404eec:	00000000 	nop
  404ef0:	8fbc0010 	lw	gp,16(sp)
  404ef4:	02202021 	move	a0,s1
  404ef8:	8f998018 	lw	t9,-32744(gp)
  404efc:	00000000 	nop
  404f00:	2739480c 	addiu	t9,t9,18444		# 0x40480c
  404f04:	00000000 	nop
  404f08:	0320f809 	jalr	t9
  404f0c:	00000000 	nop
  404f10:	8fbc0010 	lw	gp,16(sp)
  404f14:	2402ffff 	li	v0,-1
  404f18:	8fbf0064 	lw	ra,100(sp)
  404f1c:	8fb1005c 	lw	s1,92(sp)
  404f20:	8fb00058 	lw	s0,88(sp)
  404f24:	03e00008 	jr	ra
  404f28:	27bd0068 	addiu	sp,sp,104
  
  404f2c:	3c1c0fc0 	lui	gp,0xfc0
  404f30:	279c4364 	addiu	gp,gp,17252
  404f34:	0399e021 	addu	gp,gp,t9
  404f38:	27bdff88 	addiu	sp,sp,-120
  404f3c:	afbc0010 	sw	gp,16(sp)
  404f40:	afbf0070 	sw	ra,112(sp)
  404f44:	afbc006c 	sw	gp,108(sp)
  404f48:	afb20068 	sw	s2,104(sp)
  404f4c:	afb10064 	sw	s1,100(sp)
  404f50:	afb00060 	sw	s0,96(sp)
  404f54:	8f998018 	lw	t9,-32744(gp)
  404f58:	00000000 	nop
  404f5c:	273947bc 	addiu	t9,t9,18364		# 0x4047bc
  404f60:	00000000 	nop
  404f64:	0320f809 	jalr	t9
  404f68:	00000000 	nop
  404f6c:	8fbc0010 	lw	gp,16(sp)
  404f70:	00408821 	move	s1,v0
  404f74:	8f848020 	lw	a0,-32736(gp)
  404f78:	00000000 	nop
  404f7c:	24843be4 	addiu	a0,a0,15332		# "!3 Can't open flash dev file !"
  404f80:	0620003a 	bltz	s1,40506c <_init+0x3878>
  404f84:	24050040 	li	a1,64
  404f88:	27a40018 	addiu	a0,sp,24
  404f8c:	8f9980c0 	lw	t9,-32576(gp) <bzero>
  404f90:	00000000 	nop
  404f94:	0320f809 	jalr	t9
  404f98:	00000000 	nop
  404f9c:	8fbc0010 	lw	gp,16(sp)
  404fa0:	24020040 	li	v0,64
  404fa4:	afa20030 	sw	v0,48(sp)
  404fa8:	02202021 	move	a0,s1
  404fac:	27a50018 	addiu	a1,sp,24
  404fb0:	8f998018 	lw	t9,-32744(gp)
  404fb4:	00000000 	nop
  404fb8:	2739484c 	addiu	t9,t9,18508		# 0x40484c
  404fbc:	00000000 	nop
  404fc0:	0320f809 	jalr	t9
  404fc4:	00000000 	nop
  404fc8:	8fbc0010 	lw	gp,16(sp)
  404fcc:	04410003 	bgez	v0,404fdc <_init+0x37e8>
  404fd0:	02202021 	move	a0,s1
  404fd4:	100000a6 	b	405270 <_init+0x3a7c>
  404fd8:	2402ffff 	li	v0,-1
  404fdc:	8f998018 	lw	t9,-32744(gp)
  404fe0:	00000000 	nop
  404fe4:	273948c4 	addiu	t9,t9,18628		# 0x4048c4
  404fe8:	00000000 	nop
  404fec:	0320f809 	jalr	t9
  404ff0:	00000000 	nop
  404ff4:	8fbc0010 	lw	gp,16(sp)
  404ff8:	02202021 	move	a0,s1
  404ffc:	8fa50028 	lw	a1,40(sp)
  405000:	00003021 	move	a2,zero
  405004:	00a22823 	subu	a1,a1,v0
  405008:	8f9980f4 	lw	t9,-32524(gp) <lseek>
  40500c:	00000000 	nop
  405010:	0320f809 	jalr	t9
  405014:	00000000 	nop
  405018:	8fbc0010 	lw	gp,16(sp)
  40501c:	8fa4002c 	lw	a0,44(sp)
  405020:	8f998138 	lw	t9,-32456(gp) <my_malloc>
  405024:	00000000 	nop
  405028:	0320f809 	jalr	t9
  40502c:	00000000 	nop
  405030:	8fbc0010 	lw	gp,16(sp)
  405034:	02202021 	move	a0,s1
  405038:	00409021 	move	s2,v0
  40503c:	8fa6002c 	lw	a2,44(sp)
  405040:	02402821 	move	a1,s2
  405044:	8f998048 	lw	t9,-32696(gp) <read>
  405048:	00000000 	nop
  40504c:	0320f809 	jalr	t9
  405050:	00000000 	nop
  405054:	8fbc0010 	lw	gp,16(sp)
  405058:	0441000b 	bgez	v0,405088 <_init+0x3894>
  40505c:	00000000 	nop
  405060:	8f848020 	lw	a0,-32736(gp)
  405064:	00000000 	nop
  405068:	24843d40 	addiu	a0,a0,15680		# "read flash failure !"
  40506c:	8f998100 	lw	t9,-32512(gp) <printf>
  405070:	00000000 	nop
  405074:	0320f809 	jalr	t9
  405078:	00000000 	nop  
  40507c:	8fbc0010 	lw	gp,16(sp)
  405080:	1000007b 	b	405270 <_init+0x3a7c>
  405084:	2402ffff 	li	v0,-1
  405088:	8fa2002c 	lw	v0,44(sp)
  40508c:	afa00058 	sw	zero,88(sp)
  405090:	00521021 	addu	v0,v0,s2
  405094:	8043fffc 	lb	v1,-4(v0)
  405098:	8044fffd 	lb	a0,-3(v0)
  40509c:	8045fffe 	lb	a1,-2(v0)
  4050a0:	8046ffff 	lb	a2,-1(v0)
  4050a4:	a3a30058 	sb	v1,88(sp)
  4050a8:	a3a40059 	sb	a0,89(sp)
  4050ac:	a3a5005a 	sb	a1,90(sp)
  4050b0:	a3a6005b 	sb	a2,91(sp)
  4050b4:	8fa20058 	lw	v0,88(sp)
  4050b8:	00000000 	nop
  4050bc:	14400010 	bnez	v0,405100 <_init+0x390c>
  4050c0:	02402021 	move	a0,s2
  4050c4:	8f9981b4 	lw	t9,-32332(gp) <my_free>
  4050c8:	00000000 	nop
  4050cc:	0320f809 	jalr	t9
  4050d0:	00000000 	nop
  4050d4:	8fbc0010 	lw	gp,16(sp)
  4050d8:	02202021 	move	a0,s1
  4050dc:	8f998018 	lw	t9,-32744(gp)
  4050e0:	00000000 	nop
  4050e4:	2739480c 	addiu	t9,t9,18444		# 0x40480c
  4050e8:	00000000 	nop
  4050ec:	0320f809 	jalr	t9
  4050f0:	00000000 	nop
  4050f4:	8fbc0010 	lw	gp,16(sp)
  4050f8:	1000005d 	b	405270 <_init+0x3a7c>
  4050fc:	00001021 	move	v0,zero
  405100:	8f848020 	lw	a0,-32736(gp)
  405104:	00000000 	nop
  405108:	24843d58 	addiu	a0,a0,15704		# "Restore config......"
  40510c:	8f998100 	lw	t9,-32512(gp) <printf>
  405110:	00000000 	nop
  405114:	0320f809 	jalr	t9
  405118:	00000000 	nop
  40511c:	8fbc0010 	lw	gp,16(sp)
  405120:	00000000 	nop
  405124:	8f848020 	lw	a0,-32736(gp)
  405128:	00000000 	nop
  40512c:	24843c54 	addiu	a0,a0,15444		# "/tmp/backup.tar.gz"
  405130:	8f858020 	lw	a1,-32736(gp)
  405134:	00000000 	nop
  405138:	24a53704 	addiu	a1,a1,14084
  40513c:	8f99813c 	lw	t9,-32452(gp) <fopen>
  405140:	00000000 	nop
  405144:	0320f809 	jalr	t9
  405148:	00000000 	nop
  40514c:	8fbc0010 	lw	gp,16(sp)
  405150:	24050001 	li	a1,1
  405154:	00408021 	move	s0,v0
  405158:	00403821 	move	a3,v0
  40515c:	8fa60058 	lw	a2,88(sp)
  405160:	8fa4002c 	lw	a0,44(sp)
  405164:	24c30004 	addiu	v1,a2,4
  405168:	00832023 	subu	a0,a0,v1
  40516c:	02442021 	addu	a0,s2,a0
  405170:	8f99805c 	lw	t9,-32676(gp) <fwrite>
  405174:	00000000 	nop
  405178:	0320f809 	jalr	t9
  40517c:	00000000 	nop
  405180:	8fbc0010 	lw	gp,16(sp)
  405184:	02002021 	move	a0,s0
  405188:	8f998130 	lw	t9,-32464(gp) <fclose>
  40518c:	00000000 	nop
  405190:	0320f809 	jalr	t9
  405194:	00000000 	nop
  405198:	8fbc0010 	lw	gp,16(sp)
  40519c:	00000000 	nop
  4051a0:	8f998038 	lw	t9,-32712(gp) <sync>
  4051a4:	00000000 	nop
  4051a8:	0320f809 	jalr	t9
  4051ac:	00000000 	nop
  4051b0:	8fbc0010 	lw	gp,16(sp)
  4051b4:	00000000 	nop
  4051b8:	8f998038 	lw	t9,-32712(gp) <sync>
  4051bc:	00000000 	nop
  4051c0:	0320f809 	jalr	t9
  4051c4:	00000000 	nop
  4051c8:	8fbc0010 	lw	gp,16(sp)
  4051cc:	02402021 	move	a0,s2
  4051d0:	8f9981b4 	lw	t9,-32332(gp) <my_free>
  4051d4:	00000000 	nop
  4051d8:	0320f809 	jalr	t9
  4051dc:	00000000 	nop
  4051e0:	8fbc0010 	lw	gp,16(sp)
  4051e4:	02202021 	move	a0,s1
  4051e8:	8f998018 	lw	t9,-32744(gp)
  4051ec:	00000000 	nop
  4051f0:	2739480c 	addiu	t9,t9,18444		# 0x40480c
  4051f4:	00000000 	nop
  4051f8:	0320f809 	jalr	t9
  4051fc:	00000000 	nop
  405200:	8fbc0010 	lw	gp,16(sp)
  405204:	00000000 	nop
  405208:	8f848020 	lw	a0,-32736(gp)
  40520c:	00000000 	nop
  405210:	24843d70 	addiu	a0,a0,15728		# "cd /tmp;gunzip backup.tar.gz;tar -xf backup.tar;rm backup.tar;rm -f /sip/*.bin /sip/mp3.cfg /sip/SMS.dat;mv *.bin /sip;mv mp3.cfg /sip;mv SMS.dat /sip"
  405214:	8f9981ec 	lw	t9,-32276(gp) <system>
  405218:	00000000 	nop
  40521c:	0320f809 	jalr	t9
  405220:	00000000 	nop
  405224:	8fbc0010 	lw	gp,16(sp)
  405228:	00000000 	nop
  40522c:	8f848020 	lw	a0,-32736(gp)
  405230:	00000000 	nop
  405234:	24843e08 	addiu	a0,a0,15880		# "Clear Backup......"
  405238:	8f998100 	lw	t9,-32512(gp) <printf>
  40523c:	00000000 	nop
  405240:	0320f809 	jalr	t9
  405244:	00000000 	nop
  405248:	8fbc0010 	lw	gp,16(sp)
  40524c:	00000000 	nop
  405250:	8f998018 	lw	t9,-32744(gp)
  405254:	00000000 	nop
  405258:	27394d3c 	addiu	t9,t9,19772		# 0x404d3c
  40525c:	00000000 	nop
  405260:	0320f809 	jalr	t9
  405264:	00000000 	nop
  405268:	8fbc0010 	lw	gp,16(sp)
  40526c:	00001021 	move	v0,zero
  405270:	8fbf0070 	lw	ra,112(sp)
  405274:	8fb20068 	lw	s2,104(sp)
  405278:	8fb10064 	lw	s1,100(sp)
  40527c:	8fb00060 	lw	s0,96(sp)
  405280:	03e00008 	jr	ra
  
  
  405284:	27bd0078 	addiu	sp,sp,120
  405288:	3c1c0fc0 	lui	gp,0xfc0
  40528c:	279c4008 	addiu	gp,gp,16392
  405290:	0399e021 	addu	gp,gp,t9
  405294:	27bdff80 	addiu	sp,sp,-128
  405298:	afbc0010 	sw	gp,16(sp)
  40529c:	afbf0078 	sw	ra,120(sp)
  4052a0:	afbc0074 	sw	gp,116(sp)
  4052a4:	afb60070 	sw	s6,112(sp)
  4052a8:	afb5006c 	sw	s5,108(sp)
  4052ac:	afb40068 	sw	s4,104(sp)
  4052b0:	afb30064 	sw	s3,100(sp)
  4052b4:	afb20060 	sw	s2,96(sp)
  4052b8:	afb1005c 	sw	s1,92(sp)
  4052bc:	afb00058 	sw	s0,88(sp)
  4052c0:	00a08021 	move	s0,a1
  4052c4:	0080a821 	move	s5,a0
  4052c8:	8f998018 	lw	t9,-32744(gp)
  4052cc:	00000000 	nop
  4052d0:	273947bc 	addiu	t9,t9,18364		# 0x4047bc
  4052d4:	00000000 	nop
  4052d8:	0320f809 	jalr	t9
  4052dc:	00000000 	nop
  4052e0:	8fbc0010 	lw	gp,16(sp)
  4052e4:	0040a021 	move	s4,v0
  4052e8:	0681000b 	bgez	s4,405318 <_init+0x3b24>
  4052ec:	02802021 	move	a0,s4
  4052f0:	8f848020 	lw	a0,-32736(gp)
  4052f4:	00000000 	nop
  4052f8:	24843be4 	addiu	a0,a0,15332		# "!3 Can't open flash dev file !"
  4052fc:	8f998100 	lw	t9,-32512(gp) <printf>
  405300:	00000000 	nop
  405304:	0320f809 	jalr	t9
  405308:	00000000 	nop
  40530c:	8fbc0010 	lw	gp,16(sp)
  405310:	100000f9 	b	4056f8 <_init+0x3f04>
  405314:	2402ffff 	li	v0,-1
  405318:	8f998018 	lw	t9,-32744(gp)
  40531c:	00000000 	nop
  405320:	273948c4 	addiu	t9,t9,18628		# 0x4048c4
  405324:	00000000 	nop
  405328:	0320f809 	jalr	t9
  40532c:	00000000 	nop
  405330:	8fbc0010 	lw	gp,16(sp)
  405334:	00409821 	move	s3,v0
  405338:	2402ffff 	li	v0,-1
  40533c:	126200e6 	beq	s3,v0,4056d8 <_init+0x3ee4>
  405340:	02802021 	move	a0,s4
  405344:	8f998018 	lw	t9,-32744(gp)
  405348:	00000000 	nop
  40534c:	273947a8 	addiu	t9,t9,18344		# 0x4047a8
  405350:	00000000 	nop
  405354:	0320f809 	jalr	t9
  405358:	00000000 	nop
  40535c:	8fbc0010 	lw	gp,16(sp)
  405360:	27a40018 	addiu	a0,sp,24
  405364:	24050040 	li	a1,64
  405368:	00409021 	move	s2,v0
  40536c:	8f9980c0 	lw	t9,-32576(gp) <bzero>
  405370:	00000000 	nop
  405374:	0320f809 	jalr	t9
  405378:	00000000 	nop
  40537c:	8fbc0010 	lw	gp,16(sp)
  405380:	24020002 	li	v0,2
  405384:	afa20030 	sw	v0,48(sp)
  405388:	02802021 	move	a0,s4
  40538c:	27a50018 	addiu	a1,sp,24
  405390:	8f998018 	lw	t9,-32744(gp)
  405394:	00000000 	nop
  405398:	2739484c 	addiu	t9,t9,18508		# 0x40484c
  40539c:	00000000 	nop
  4053a0:	0320f809 	jalr	t9
  4053a4:	00000000 	nop
  4053a8:	8fbc0010 	lw	gp,16(sp)
  4053ac:	044000c9 	bltz	v0,4056d4 <_init+0x3ee0>
  4053b0:	02402021 	move	a0,s2
  4053b4:	8f9981d4 	lw	t9,-32300(gp) <malloc>
  4053b8:	00000000 	nop
  4053bc:	0320f809 	jalr	t9
  4053c0:	00000000 	nop
  4053c4:	8fbc0010 	lw	gp,16(sp)
  4053c8:	00408821 	move	s1,v0
  4053cc:	1620000b 	bnez	s1,4053fc <_init+0x3c08>
  4053d0:	02802021 	move	a0,s4
  4053d4:	8f848020 	lw	a0,-32736(gp)
  4053d8:	00000000 	nop
  4053dc:	24843e1c 	addiu	a0,a0,15900		# "!3 Can't get memory !"
  4053e0:	8f998100 	lw	t9,-32512(gp) <printf>
  4053e4:	00000000 	nop
  4053e8:	0320f809 	jalr	t9
  4053ec:	00000000 	nop
  4053f0:	8fbc0010 	lw	gp,16(sp)
  4053f4:	100000b8 	b	4056d8 <_init+0x3ee4>
  4053f8:	02802021 	move	a0,s4
  4053fc:	8fa50028 	lw	a1,40(sp)
  405400:	00003021 	move	a2,zero
  405404:	00b32823 	subu	a1,a1,s3
  405408:	8f9980f4 	lw	t9,-32524(gp) <lseek>
  40540c:	00000000 	nop
  405410:	0320f809 	jalr	t9
  405414:	00000000 	nop
  405418:	8fbc0010 	lw	gp,16(sp)
  40541c:	0441000b 	bgez	v0,40544c <_init+0x3c58>
  405420:	00000000 	nop
  405424:	8f848020 	lw	a0,-32736(gp)
  405428:	00000000 	nop
  40542c:	24843e34 	addiu	a0,a0,15924		# "!3 Can't seek on flash !"
  405430:	8f998100 	lw	t9,-32512(gp) <printf>
  405434:	00000000 	nop
  405438:	0320f809 	jalr	t9
  40543c:	00000000 	nop
  405440:	8fbc0010 	lw	gp,16(sp)
  405444:	1000009e 	b	4056c0 <_init+0x3ecc>
  405448:	02202021 	move	a0,s1
  40544c:	8f998038 	lw	t9,-32712(gp) <sync>
  405450:	00000000 	nop
  405454:	0320f809 	jalr	t9
  405458:	00000000 	nop
  40545c:	8fbc0010 	lw	gp,16(sp)
  405460:	2603ffc0 	addiu	v1,s0,-64
  405464:	3c02003c 	lui	v0,0x3c
  405468:	14620003 	bne	v1,v0,405478 <_init+0x3c84>
  40546c:	02a09821 	move	s3,s5
  405470:	26b30040 	addiu	s3,s5,64
  405474:	3c10003c 	lui	s0,0x3c
  405478:	0000b021 	move	s6,zero
  40547c:	24040064 	li	a0,100
  405480:	8f9981e8 	lw	t9,-32280(gp) <sys_sleep>
  405484:	00000000 	nop
  405488:	0320f809 	jalr	t9
  40548c:	00000000 	nop
  405490:	8fbc0010 	lw	gp,16(sp)
  405494:	10000020 	b	405518 <_init+0x3d24>
  405498:	0000a821 	move	s5,zero
  40549c:	8f9981e8 	lw	t9,-32280(gp) <sys_sleep>
  4054a0:	00000000 	nop
  4054a4:	0320f809 	jalr	t9
  4054a8:	00000000 	nop
  4054ac:	8fbc0010 	lw	gp,16(sp)
  4054b0:	10000019 	b	405518 <_init+0x3d24>
  4054b4:	26d60001 	addiu	s6,s6,1
  4054b8:	02752821 	addu	a1,s3,s5
  4054bc:	02003021 	move	a2,s0
  4054c0:	8f9980ec 	lw	t9,-32532(gp) <memcpy>
  4054c4:	00000000 	nop
  4054c8:	0320f809 	jalr	t9
  4054cc:	00000000 	nop
  4054d0:	8fbc0010 	lw	gp,16(sp)
  4054d4:	02802021 	move	a0,s4
  4054d8:	02202821 	move	a1,s1
  4054dc:	02003021 	move	a2,s0
  4054e0:	8f998248 	lw	t9,-32184(gp) <write>
  4054e4:	00000000 	nop
  4054e8:	0320f809 	jalr	t9
  4054ec:	00000000 	nop
  4054f0:	8fbc0010 	lw	gp,16(sp)
  4054f4:	0440001f 	bltz	v0,405574 <_init+0x3d80>
  4054f8:	24040064 	li	a0,100
  4054fc:	8f9981e8 	lw	t9,-32280(gp) <sys_sleep>
  405500:	00000000 	nop
  405504:	0320f809 	jalr	t9
  405508:	00000000 	nop
  40550c:	8fbc0010 	lw	gp,16(sp)
  405510:	10000018 	b	405574 <_init+0x3d80>
  405514:	00008021 	move	s0,zero
  405518:	0250102a 	slt	v0,s2,s0
  40551c:	1040ffe6 	beqz	v0,4054b8 <_init+0x3cc4>
  405520:	02202021 	move	a0,s1
  405524:	02752821 	addu	a1,s3,s5
  405528:	02403021 	move	a2,s2
  40552c:	8f9980ec 	lw	t9,-32532(gp) <memcpy>
  405530:	00000000 	nop
  405534:	0320f809 	jalr	t9
  405538:	00000000 	nop
  40553c:	8fbc0010 	lw	gp,16(sp)
  405540:	02128023 	subu	s0,s0,s2
  405544:	1a00000b 	blez	s0,405574 <_init+0x3d80>
  405548:	02b2a821 	addu	s5,s5,s2
  40554c:	02802021 	move	a0,s4
  405550:	02202821 	move	a1,s1
  405554:	02403021 	move	a2,s2
  405558:	8f998248 	lw	t9,-32184(gp) <write>
  40555c:	00000000 	nop
  405560:	0320f809 	jalr	t9
  405564:	00000000 	nop
  405568:	8fbc0010 	lw	gp,16(sp)
  40556c:	0441ffcb 	bgez	v0,40549c <_init+0x3ca8>
  405570:	24040064 	li	a0,100
  405574:	8f998038 	lw	t9,-32712(gp) <sync>
  405578:	00000000 	nop
  40557c:	0320f809 	jalr	t9
  405580:	00000000 	nop
  405584:	8fbc0010 	lw	gp,16(sp)
  405588:	00000000 	nop
  40558c:	8f998038 	lw	t9,-32712(gp) <sync>
  405590:	00000000 	nop
  405594:	0320f809 	jalr	t9
  405598:	00000000 	nop
  40559c:	8fbc0010 	lw	gp,16(sp)
  4055a0:	00000000 	nop
  4055a4:	8f998038 	lw	t9,-32712(gp) <sync>
  4055a8:	00000000 	nop
  4055ac:	0320f809 	jalr	t9
  4055b0:	00000000 	nop
  4055b4:	8fbc0010 	lw	gp,16(sp)
  4055b8:	02802021 	move	a0,s4
  4055bc:	8f998018 	lw	t9,-32744(gp)
  4055c0:	00000000 	nop
  4055c4:	2739480c 	addiu	t9,t9,18444		# 0x40480c
  4055c8:	00000000 	nop
  4055cc:	0320f809 	jalr	t9
  4055d0:	00000000 	nop
  4055d4:	8fbc0010 	lw	gp,16(sp)
  4055d8:	00000000 	nop
  4055dc:	8f998038 	lw	t9,-32712(gp) <sync>
  4055e0:	00000000 	nop
  4055e4:	0320f809 	jalr	t9
  4055e8:	00000000 	nop
  4055ec:	8fbc0010 	lw	gp,16(sp)
  4055f0:	00000000 	nop
  4055f4:	8f998038 	lw	t9,-32712(gp) <sync>
  4055f8:	00000000 	nop
  4055fc:	0320f809 	jalr	t9
  405600:	00000000 	nop
  405604:	8fbc0010 	lw	gp,16(sp)
  405608:	00000000 	nop
  40560c:	8f998038 	lw	t9,-32712(gp) <sync>
  405610:	00000000 	nop
  405614:	0320f809 	jalr	t9
  405618:	00000000 	nop
  40561c:	8fbc0010 	lw	gp,16(sp)
  405620:	240401f4 	li	a0,500
  405624:	8f9981e8 	lw	t9,-32280(gp) <sys_sleep>
  405628:	00000000 	nop
  40562c:	0320f809 	jalr	t9
  405630:	00000000 	nop
  405634:	8fbc0010 	lw	gp,16(sp)
  405638:	1e000011 	bgtz	s0,405680 <_init+0x3e8c>
  40563c:	24040003 	li	a0,3
  405640:	8f848020 	lw	a0,-32736(gp)
  405644:	00000000 	nop
  405648:	24843e74 	addiu	a0,a0,15988		# "!0 Kernel update success"
  40564c:	8f998100 	lw	t9,-32512(gp) <printf>
  405650:	00000000 	nop
  405654:	0320f809 	jalr	t9
  405658:	00000000 	nop
  40565c:	8fbc0010 	lw	gp,16(sp)
  405660:	02202021 	move	a0,s1
  405664:	8f998098 	lw	t9,-32616(gp) <free>
  405668:	00000000 	nop
  40566c:	0320f809 	jalr	t9
  405670:	00000000 	nop
  405674:	8fbc0010 	lw	gp,16(sp)
  405678:	1000001f 	b	4056f8 <_init+0x3f04>
  40567c:	00001021 	move	v0,zero
  405680:	8f998058 	lw	t9,-32680(gp) <SetBtldBootState>
  405684:	00000000 	nop
  405688:	0320f809 	jalr	t9
  40568c:	00000000 	nop
  405690:	8fbc0010 	lw	gp,16(sp)
  405694:	00000000 	nop
  405698:	8f848020 	lw	a0,-32736(gp)
  40569c:	00000000 	nop
  4056a0:	24843e50 	addiu	a0,a0,15952		# "!5 Kernel update fail at %d block"
  4056a4:	02c02821 	move	a1,s6
  4056a8:	8f998100 	lw	t9,-32512(gp) <printf>
  4056ac:	00000000 	nop
  4056b0:	0320f809 	jalr	t9
  4056b4:	00000000 	nop
  4056b8:	8fbc0010 	lw	gp,16(sp)
  4056bc:	02202021 	move	a0,s1
  4056c0:	8f998098 	lw	t9,-32616(gp) <free>
  4056c4:	00000000 	nop
  4056c8:	0320f809 	jalr	t9
  4056cc:	00000000 	nop
  4056d0:	8fbc0010 	lw	gp,16(sp)
  4056d4:	02802021 	move	a0,s4
  4056d8:	8f998018 	lw	t9,-32744(gp)
  4056dc:	00000000 	nop
  4056e0:	2739480c 	addiu	t9,t9,18444		# 0x40480c
  4056e4:	00000000 	nop
  4056e8:	0320f809 	jalr	t9
  4056ec:	00000000 	nop
  4056f0:	8fbc0010 	lw	gp,16(sp)
  4056f4:	2402ffff 	li	v0,-1
  4056f8:	8fbf0078 	lw	ra,120(sp)
  4056fc:	8fb60070 	lw	s6,112(sp)
  405700:	8fb5006c 	lw	s5,108(sp)
  405704:	8fb40068 	lw	s4,104(sp)
  405708:	8fb30064 	lw	s3,100(sp)
  40570c:	8fb20060 	lw	s2,96(sp)
  405710:	8fb1005c 	lw	s1,92(sp)
  405714:	8fb00058 	lw	s0,88(sp)
  405718:	03e00008 	jr	ra
  40571c:	27bd0080 	addiu	sp,sp,128
  405720:	3c1c0fc0 	lui	gp,0xfc0
  405724:	279c3b70 	addiu	gp,gp,15216
  405728:	0399e021 	addu	gp,gp,t9
  40572c:	27bdff80 	addiu	sp,sp,-128
  405730:	afbc0010 	sw	gp,16(sp)
  405734:	afbf0078 	sw	ra,120(sp)
  405738:	afbc0074 	sw	gp,116(sp)
  40573c:	afb60070 	sw	s6,112(sp)
  405740:	afb5006c 	sw	s5,108(sp)
  405744:	afb40068 	sw	s4,104(sp)
  405748:	afb30064 	sw	s3,100(sp)
  40574c:	afb20060 	sw	s2,96(sp)
  405750:	afb1005c 	sw	s1,92(sp)
  405754:	afb00058 	sw	s0,88(sp)
  405758:	00a09821 	move	s3,a1
  40575c:	0080b021 	move	s6,a0
  405760:	8f998018 	lw	t9,-32744(gp)
  405764:	00000000 	nop
  405768:	273947bc 	addiu	t9,t9,18364		# 0x4047bc
  40576c:	00000000 	nop
  405770:	0320f809 	jalr	t9
  405774:	00000000 	nop
  405778:	8fbc0010 	lw	gp,16(sp)
  40577c:	00408021 	move	s0,v0
  405780:	0601000b 	bgez	s0,4057b0 <_init+0x3fbc>
  405784:	02002021 	move	a0,s0
  405788:	8f848020 	lw	a0,-32736(gp)
  40578c:	00000000 	nop
  405790:	24843be4 	addiu	a0,a0,15332		# "!3 Can't open flash dev file !"
  405794:	8f998100 	lw	t9,-32512(gp) <printf>
  405798:	00000000 	nop
  40579c:	0320f809 	jalr	t9
  4057a0:	00000000 	nop
  4057a4:	8fbc0010 	lw	gp,16(sp)
  4057a8:	100000dc 	b	405b1c <_init+0x4328>
  4057ac:	2402ffff 	li	v0,-1
  4057b0:	8f998018 	lw	t9,-32744(gp)
  4057b4:	00000000 	nop
  4057b8:	273948c4 	addiu	t9,t9,18628		# 0x4048c4
  4057bc:	00000000 	nop
  4057c0:	0320f809 	jalr	t9
  4057c4:	00000000 	nop
  4057c8:	8fbc0010 	lw	gp,16(sp)
  4057cc:	0040a021 	move	s4,v0
  4057d0:	2402ffff 	li	v0,-1
  4057d4:	128200c9 	beq	s4,v0,405afc <_init+0x4308>
  4057d8:	02002021 	move	a0,s0
  4057dc:	8f998018 	lw	t9,-32744(gp)
  4057e0:	00000000 	nop
  4057e4:	273947a8 	addiu	t9,t9,18344		# 0x4047a8
  4057e8:	00000000 	nop
  4057ec:	0320f809 	jalr	t9
  4057f0:	00000000 	nop
  4057f4:	8fbc0010 	lw	gp,16(sp)
  4057f8:	27a40018 	addiu	a0,sp,24
  4057fc:	24050040 	li	a1,64
  405800:	00408821 	move	s1,v0
  405804:	8f9980c0 	lw	t9,-32576(gp) <bzero>
  405808:	00000000 	nop
  40580c:	0320f809 	jalr	t9
  405810:	00000000 	nop
  405814:	8fbc0010 	lw	gp,16(sp)
  405818:	24020002 	li	v0,2
  40581c:	afa20030 	sw	v0,48(sp)
  405820:	02002021 	move	a0,s0
  405824:	27a50018 	addiu	a1,sp,24
  405828:	8f998018 	lw	t9,-32744(gp)
  40582c:	00000000 	nop
  405830:	2739484c 	addiu	t9,t9,18508		# 0x40484c
  405834:	00000000 	nop
  405838:	0320f809 	jalr	t9
  40583c:	00000000 	nop
  405840:	8fbc0010 	lw	gp,16(sp)
  405844:	044000ac 	bltz	v0,405af8 <_init+0x4304>
  405848:	02202021 	move	a0,s1
  40584c:	8f9981d4 	lw	t9,-32300(gp) <malloc>
  405850:	00000000 	nop
  405854:	0320f809 	jalr	t9
  405858:	00000000 	nop
  40585c:	8fbc0010 	lw	gp,16(sp)
  405860:	00409021 	move	s2,v0
  405864:	1640000b 	bnez	s2,405894 <_init+0x40a0>
  405868:	02002021 	move	a0,s0
  40586c:	8f848020 	lw	a0,-32736(gp)
  405870:	00000000 	nop
  405874:	24843e1c 	addiu	a0,a0,15900		# "!3 Can't get memory !"
  405878:	8f998100 	lw	t9,-32512(gp) <printf>
  40587c:	00000000 	nop
  405880:	0320f809 	jalr	t9
  405884:	00000000 	nop
  405888:	8fbc0010 	lw	gp,16(sp)
  40588c:	1000009b 	b	405afc <_init+0x4308>
  405890:	02002021 	move	a0,s0
  405894:	00003021 	move	a2,zero
  405898:	8fa20028 	lw	v0,40(sp)
  40589c:	3c05ffdc 	lui	a1,0xffdc
  4058a0:	00b42821 	addu	a1,a1,s4
  4058a4:	00452823 	subu	a1,v0,a1
  4058a8:	8f9980f4 	lw	t9,-32524(gp) <lseek>
  4058ac:	00000000 	nop
  4058b0:	0320f809 	jalr	t9
  4058b4:	00000000 	nop
  4058b8:	8fbc0010 	lw	gp,16(sp)
  4058bc:	0441000b 	bgez	v0,4058ec <_init+0x40f8>
  4058c0:	0000a821 	move	s5,zero
  4058c4:	8f848020 	lw	a0,-32736(gp)
  4058c8:	00000000 	nop
  4058cc:	24843e34 	addiu	a0,a0,15924		# "!3 Can't seek on flash !"
  4058d0:	8f998100 	lw	t9,-32512(gp) <printf>
  4058d4:	00000000 	nop
  4058d8:	0320f809 	jalr	t9
  4058dc:	00000000 	nop
  4058e0:	8fbc0010 	lw	gp,16(sp)
  4058e4:	1000007f 	b	405ae4 <_init+0x42f0>
  4058e8:	02402021 	move	a0,s2
  4058ec:	8f998038 	lw	t9,-32712(gp) <sync>
  4058f0:	00000000 	nop
  4058f4:	0320f809 	jalr	t9
  4058f8:	00000000 	nop
  4058fc:	8fbc0010 	lw	gp,16(sp)
  405900:	0000a021 	move	s4,zero
  405904:	26d60040 	addiu	s6,s6,64
  405908:	2673ffc0 	addiu	s3,s3,-64
  40590c:	02402021 	move	a0,s2
  405910:	02d42821 	addu	a1,s6,s4
  405914:	02203021 	move	a2,s1
  405918:	8f9980ec 	lw	t9,-32532(gp) <memcpy>
  40591c:	00000000 	nop
  405920:	0320f809 	jalr	t9
  405924:	00000000 	nop
  405928:	8fbc0010 	lw	gp,16(sp)
  40592c:	02719823 	subu	s3,s3,s1
  405930:	1a600012 	blez	s3,40597c <_init+0x4188>
  405934:	0291a021 	addu	s4,s4,s1
  405938:	02002021 	move	a0,s0
  40593c:	02402821 	move	a1,s2
  405940:	02203021 	move	a2,s1
  405944:	8f998248 	lw	t9,-32184(gp) <write>
  405948:	00000000 	nop
  40594c:	0320f809 	jalr	t9
  405950:	00000000 	nop
  405954:	8fbc0010 	lw	gp,16(sp)
  405958:	04400008 	bltz	v0,40597c <_init+0x4188>
  40595c:	24040064 	li	a0,100
  405960:	8f9981e8 	lw	t9,-32280(gp) <sys_sleep>
  405964:	00000000 	nop
  405968:	0320f809 	jalr	t9
  40596c:	00000000 	nop
  405970:	8fbc0010 	lw	gp,16(sp)
  405974:	1000ffe5 	b	40590c <_init+0x4118>
  405978:	26b50001 	addiu	s5,s5,1
  40597c:	8f998038 	lw	t9,-32712(gp) <sync>
  405980:	00000000 	nop
  405984:	0320f809 	jalr	t9
  405988:	00000000 	nop
  40598c:	8fbc0010 	lw	gp,16(sp)
  405990:	00000000 	nop
  405994:	8f998038 	lw	t9,-32712(gp) <sync>
  405998:	00000000 	nop
  40599c:	0320f809 	jalr	t9
  4059a0:	00000000 	nop
  4059a4:	8fbc0010 	lw	gp,16(sp)
  4059a8:	00000000 	nop
  4059ac:	8f998038 	lw	t9,-32712(gp) <sync>
  4059b0:	00000000 	nop
  4059b4:	0320f809 	jalr	t9
  4059b8:	00000000 	nop
  4059bc:	8fbc0010 	lw	gp,16(sp)
  4059c0:	02002021 	move	a0,s0
  4059c4:	8f998018 	lw	t9,-32744(gp)
  4059c8:	00000000 	nop
  4059cc:	2739480c 	addiu	t9,t9,18444		# 0x40480c
  4059d0:	00000000 	nop
  4059d4:	0320f809 	jalr	t9
  4059d8:	00000000 	nop
  4059dc:	8fbc0010 	lw	gp,16(sp)
  4059e0:	00000000 	nop
  4059e4:	8f998038 	lw	t9,-32712(gp) <sync>
  4059e8:	00000000 	nop
  4059ec:	0320f809 	jalr	t9
  4059f0:	00000000 	nop
  4059f4:	8fbc0010 	lw	gp,16(sp)
  4059f8:	00000000 	nop
  4059fc:	8f998038 	lw	t9,-32712(gp) <sync>
  405a00:	00000000 	nop
  405a04:	0320f809 	jalr	t9
  405a08:	00000000 	nop
  405a0c:	8fbc0010 	lw	gp,16(sp)
  405a10:	00000000 	nop
  405a14:	8f998038 	lw	t9,-32712(gp) <sync>
  405a18:	00000000 	nop
  405a1c:	0320f809 	jalr	t9
  405a20:	00000000 	nop
  405a24:	8fbc0010 	lw	gp,16(sp)
  405a28:	240401f4 	li	a0,500
  405a2c:	8f9981e8 	lw	t9,-32280(gp) <sys_sleep>
  405a30:	00000000 	nop
  405a34:	0320f809 	jalr	t9
  405a38:	00000000 	nop
  405a3c:	8fbc0010 	lw	gp,16(sp)
  405a40:	1a600018 	blez	s3,405aa4 <_init+0x42b0>
  405a44:	24040003 	li	a0,3
  405a48:	8f998058 	lw	t9,-32680(gp) <SetBtldBootState>
  405a4c:	00000000 	nop
  405a50:	0320f809 	jalr	t9
  405a54:	00000000 	nop
  405a58:	8fbc0010 	lw	gp,16(sp)
  405a5c:	00000000 	nop
  405a60:	8f848020 	lw	a0,-32736(gp)
  405a64:	00000000 	nop
  405a68:	24843e90 	addiu	a0,a0,16016		# "!5 FlashFS update fail at %d block"
  405a6c:	02a02821 	move	a1,s5
  405a70:	8f998100 	lw	t9,-32512(gp) <printf>
  405a74:	00000000 	nop
  405a78:	0320f809 	jalr	t9
  405a7c:	00000000 	nop
  405a80:	8fbc0010 	lw	gp,16(sp)
  405a84:	02402021 	move	a0,s2
  405a88:	8f998098 	lw	t9,-32616(gp) <free>
  405a8c:	00000000 	nop
  405a90:	0320f809 	jalr	t9
  405a94:	00000000 	nop
  405a98:	8fbc0010 	lw	gp,16(sp)
  405a9c:	1000001f 	b	405b1c <_init+0x4328>
  405aa0:	2402ffff 	li	v0,-1
  405aa4:	8f848020 	lw	a0,-32736(gp)
  405aa8:	00000000 	nop
  405aac:	24843eb4 	addiu	a0,a0,16052		# "!0 FlashFS update success"
  405ab0:	8f998100 	lw	t9,-32512(gp) <printf>
  405ab4:	00000000 	nop
  405ab8:	0320f809 	jalr	t9
  405abc:	00000000 	nop
  405ac0:	8fbc0010 	lw	gp,16(sp)
  405ac4:	02402021 	move	a0,s2
  405ac8:	8f998098 	lw	t9,-32616(gp) <free>
  405acc:	00000000 	nop
  405ad0:	0320f809 	jalr	t9
  405ad4:	00000000 	nop
  405ad8:	8fbc0010 	lw	gp,16(sp)
  405adc:	1000000f 	b	405b1c <_init+0x4328>
  405ae0:	00001021 	move	v0,zero
  405ae4:	8f998098 	lw	t9,-32616(gp) <free>
  405ae8:	00000000 	nop
  405aec:	0320f809 	jalr	t9
  405af0:	00000000 	nop
  405af4:	8fbc0010 	lw	gp,16(sp)
  405af8:	02002021 	move	a0,s0
  405afc:	8f998018 	lw	t9,-32744(gp)
  405b00:	00000000 	nop
  405b04:	2739480c 	addiu	t9,t9,18444		# 0x40480c
  405b08:	00000000 	nop
  405b0c:	0320f809 	jalr	t9
  405b10:	00000000 	nop
  405b14:	8fbc0010 	lw	gp,16(sp)
  405b18:	2402ffff 	li	v0,-1
  405b1c:	8fbf0078 	lw	ra,120(sp)
  405b20:	8fb60070 	lw	s6,112(sp)
  405b24:	8fb5006c 	lw	s5,108(sp)
  405b28:	8fb40068 	lw	s4,104(sp)
  405b2c:	8fb30064 	lw	s3,100(sp)
  405b30:	8fb20060 	lw	s2,96(sp)
  405b34:	8fb1005c 	lw	s1,92(sp)
  405b38:	8fb00058 	lw	s0,88(sp)
  405b3c:	03e00008 	jr	ra
  405b40:	27bd0080 	addiu	sp,sp,128
  405b44:	3c1c0fc0 	lui	gp,0xfc0
  405b48:	279c374c 	addiu	gp,gp,14156
  405b4c:	0399e021 	addu	gp,gp,t9
  405b50:	27bdfe40 	addiu	sp,sp,-448
  405b54:	afbc0010 	sw	gp,16(sp)
  405b58:	afbf01b8 	sw	ra,440(sp)
  405b5c:	afbc01b4 	sw	gp,436(sp)
  405b60:	afb001b0 	sw	s0,432(sp)
  405b64:	8f848020 	lw	a0,-32736(gp)
  405b68:	00000000 	nop
  405b6c:	24843ed0 	addiu	a0,a0,16080		# "df /mnt/jffs2 > /tmp/jffs2.free"
  405b70:	8f9981ec 	lw	t9,-32276(gp) <system>
  405b74:	00000000 	nop
  405b78:	0320f809 	jalr	t9
  405b7c:	00000000 	nop
  405b80:	8fbc0010 	lw	gp,16(sp)
  405b84:	24040003 	li	a0,3
  405b88:	8f858020 	lw	a1,-32736(gp)
  405b8c:	00000000 	nop
  405b90:	24a53ef0 	addiu	a1,a1,16112		# "/tmp/jffs2.free"
  405b94:	27a60018 	addiu	a2,sp,24
  405b98:	8f998194 	lw	t9,-32364(gp) <__xstat>
  405b9c:	00000000 	nop
  405ba0:	0320f809 	jalr	t9
  405ba4:	00000000 	nop
  405ba8:	8fbc0010 	lw	gp,16(sp)
  405bac:	1440004d 	bnez	v0,405ce4 <_init+0x44f0>
  405bb0:	00001021 	move	v0,zero
  405bb4:	8f848020 	lw	a0,-32736(gp)
  405bb8:	00000000 	nop
  405bbc:	24843ef0 	addiu	a0,a0,16112		# "/tmp/jffs2.free"
  405bc0:	8f858020 	lw	a1,-32736(gp)
  405bc4:	00000000 	nop
  405bc8:	24a532dc 	addiu	a1,a1,13020
  405bcc:	8f99813c 	lw	t9,-32452(gp) <fopen>
  405bd0:	00000000 	nop
  405bd4:	0320f809 	jalr	t9
  405bd8:	00000000 	nop
  405bdc:	8fbc0010 	lw	gp,16(sp)
  405be0:	00408021 	move	s0,v0
  405be4:	1200003e 	beqz	s0,405ce0 <_init+0x44ec>
  405be8:	27a400a8 	addiu	a0,sp,168
  405bec:	24050001 	li	a1,1
  405bf0:	24060080 	li	a2,128
  405bf4:	02003821 	move	a3,s0
  405bf8:	8f9981c0 	lw	t9,-32320(gp) <fread>
  405bfc:	00000000 	nop
  405c00:	0320f809 	jalr	t9
  405c04:	00000000 	nop
  405c08:	8fbc0010 	lw	gp,16(sp)
  405c0c:	02002021 	move	a0,s0
  405c10:	00408021 	move	s0,v0
  405c14:	8f998130 	lw	t9,-32464(gp) <fclose>
  405c18:	00000000 	nop
  405c1c:	0320f809 	jalr	t9
  405c20:	00000000 	nop
  405c24:	8fbc0010 	lw	gp,16(sp)
  405c28:	00002821 	move	a1,zero
  405c2c:	00b0202a 	slt	a0,a1,s0
  405c30:	1080002b 	beqz	a0,405ce0 <_init+0x44ec>
  405c34:	afa001a8 	sw	zero,424(sp)
  405c38:	27a600a8 	addiu	a2,sp,168
  405c3c:	00c51021 	addu	v0,a2,a1
  405c40:	80430000 	lb	v1,0(v0)
  405c44:	24020020 	li	v0,32
  405c48:	14620011 	bne	v1,v0,405c90 <_init+0x449c>
  405c4c:	00000000 	nop
  405c50:	1080000a 	beqz	a0,405c7c <_init+0x4488>
  405c54:	00000000 	nop
  405c58:	24a50001 	addiu	a1,a1,1
  405c5c:	00b0102a 	slt	v0,a1,s0
  405c60:	10400006 	beqz	v0,405c7c <_init+0x4488>
  405c64:	00c51021 	addu	v0,a2,a1
  405c68:	80430000 	lb	v1,0(v0)
  405c6c:	24020020 	li	v0,32
  405c70:	1062fffa 	beq	v1,v0,405c5c <_init+0x4468>
  405c74:	24a50001 	addiu	a1,a1,1
  405c78:	24a5ffff 	addiu	a1,a1,-1
  405c7c:	8fa201a8 	lw	v0,424(sp)
  405c80:	24030009 	li	v1,9
  405c84:	24420001 	addiu	v0,v0,1
  405c88:	10430005 	beq	v0,v1,405ca0 <_init+0x44ac>
  405c8c:	afa201a8 	sw	v0,424(sp)
  405c90:	24a50001 	addiu	a1,a1,1
  405c94:	00b0202a 	slt	a0,a1,s0
  405c98:	1480ffe7 	bnez	a0,405c38 <_init+0x4444>
  405c9c:	00000000 	nop
  405ca0:	00b0102a 	slt	v0,a1,s0
  405ca4:	1040000e 	beqz	v0,405ce0 <_init+0x44ec>
  405ca8:	27a400a8 	addiu	a0,sp,168
  405cac:	00852021 	addu	a0,a0,a1
  405cb0:	8f858020 	lw	a1,-32736(gp)
  405cb4:	00000000 	nop
  405cb8:	24a532e0 	addiu	a1,a1,13024
  405cbc:	27a601a8 	addiu	a2,sp,424
  405cc0:	8f9980a4 	lw	t9,-32604(gp) <sscanf>
  405cc4:	00000000 	nop
  405cc8:	0320f809 	jalr	t9
  405ccc:	00000000 	nop
  405cd0:	8fbc0010 	lw	gp,16(sp)
  405cd4:	8fa201a8 	lw	v0,424(sp)
  405cd8:	10000002 	b	405ce4 <_init+0x44f0>
  405cdc:	00000000 	nop
  405ce0:	00001021 	move	v0,zero
  405ce4:	8fbf01b8 	lw	ra,440(sp)
  405ce8:	8fb001b0 	lw	s0,432(sp)
  405cec:	03e00008 	jr	ra
  405cf0:	27bd01c0 	addiu	sp,sp,448
  405cf4:	3c1c0fc0 	lui	gp,0xfc0
  405cf8:	279c359c 	addiu	gp,gp,13724
  405cfc:	0399e021 	addu	gp,gp,t9
  405d00:	27bdff88 	addiu	sp,sp,-120
  405d04:	afbc0018 	sw	gp,24(sp)
  405d08:	afbf0070 	sw	ra,112(sp)
  405d0c:	afbc006c 	sw	gp,108(sp)
  405d10:	afb20068 	sw	s2,104(sp)
  405d14:	afb10064 	sw	s1,100(sp)
  405d18:	afb00060 	sw	s0,96(sp)
  405d1c:	00808021 	move	s0,a0
  405d20:	3c022705 	lui	v0,0x2705
  405d24:	34421956 	ori	v0,v0,0x1956
  405d28:	8e030000 	lw	v1,0(s0)
  405d2c:	00000000 	nop
  405d30:	14620073 	bne	v1,v0,405f00 <_init+0x470c>
  405d34:	02008821 	move	s1,s0
  405d38:	9203001e 	lbu	v1,30(s0)
  405d3c:	00000000 	nop
  405d40:	28620013 	slti	v0,v1,19
  405d44:	1040006e 	beqz	v0,405f00 <_init+0x470c>
  405d48:	28620002 	slti	v0,v1,2
  405d4c:	1440006d 	bnez	v0,405f04 <_init+0x4710>
  405d50:	2402ffff 	li	v0,-1
  405d54:	27b00020 	addiu	s0,sp,32
  405d58:	02002021 	move	a0,s0
  405d5c:	32220003 	andi	v0,s1,0x3
  405d60:	10400027 	beqz	v0,405e00 <_init+0x460c>
  405d64:	02201821 	move	v1,s1
  405d68:	26220040 	addiu	v0,s1,64
  405d6c:	80650000 	lb	a1,0(v1)
  405d70:	80660001 	lb	a2,1(v1)
  405d74:	80670002 	lb	a3,2(v1)
  405d78:	80680003 	lb	t0,3(v1)
  405d7c:	a0850000 	sb	a1,0(a0)
  405d80:	a0860001 	sb	a2,1(a0)
  405d84:	a0870002 	sb	a3,2(a0)
  405d88:	a0880003 	sb	t0,3(a0)
  405d8c:	80650004 	lb	a1,4(v1)
  405d90:	80660005 	lb	a2,5(v1)
  405d94:	80670006 	lb	a3,6(v1)
  405d98:	80680007 	lb	t0,7(v1)
  405d9c:	a0850004 	sb	a1,4(a0)
  405da0:	a0860005 	sb	a2,5(a0)
  405da4:	a0870006 	sb	a3,6(a0)
  405da8:	a0880007 	sb	t0,7(a0)
  405dac:	80650008 	lb	a1,8(v1)
  405db0:	80660009 	lb	a2,9(v1)
  405db4:	8067000a 	lb	a3,10(v1)
  405db8:	8068000b 	lb	t0,11(v1)
  405dbc:	a0850008 	sb	a1,8(a0)
  405dc0:	a0860009 	sb	a2,9(a0)
  405dc4:	a087000a 	sb	a3,10(a0)
  405dc8:	a088000b 	sb	t0,11(a0)
  405dcc:	8065000c 	lb	a1,12(v1)
  405dd0:	8066000d 	lb	a2,13(v1)
  405dd4:	8067000e 	lb	a3,14(v1)
  405dd8:	8068000f 	lb	t0,15(v1)
  405ddc:	a085000c 	sb	a1,12(a0)
  405de0:	a086000d 	sb	a2,13(a0)
  405de4:	a087000e 	sb	a3,14(a0)
  405de8:	a088000f 	sb	t0,15(a0)
  405dec:	24630010 	addiu	v1,v1,16
  405df0:	1462ffde 	bne	v1,v0,405d6c <_init+0x4578>
  405df4:	24840010 	addiu	a0,a0,16
  405df8:	1000000d 	b	405e30 <_init+0x463c>
  405dfc:	00000000 	nop
  405e00:	26220040 	addiu	v0,s1,64
  405e04:	8c650000 	lw	a1,0(v1)
  405e08:	8c660004 	lw	a2,4(v1)
  405e0c:	8c670008 	lw	a3,8(v1)
  405e10:	8c68000c 	lw	t0,12(v1)
  405e14:	ac850000 	sw	a1,0(a0)
  405e18:	ac860004 	sw	a2,4(a0)
  405e1c:	ac870008 	sw	a3,8(a0)
  405e20:	ac88000c 	sw	t0,12(a0)
  405e24:	24630010 	addiu	v1,v1,16
  405e28:	1462fff6 	bne	v1,v0,405e04 <_init+0x4610>
  405e2c:	24840010 	addiu	a0,a0,16
  405e30:	8e120004 	lw	s2,4(s0)
  405e34:	ae000004 	sw	zero,4(s0)
  405e38:	00002021 	move	a0,zero
  405e3c:	02002821 	move	a1,s0
  405e40:	24060040 	li	a2,64
  405e44:	8f998018 	lw	t9,-32744(gp)
  405e48:	00000000 	nop
  405e4c:	27391b00 	addiu	t9,t9,6912		# 0x401b00
  405e50:	00000000 	nop
  405e54:	0320f809 	jalr	t9
  405e58:	00000000 	nop
  405e5c:	8fbc0018 	lw	gp,24(sp)
  405e60:	00402821 	move	a1,v0
  405e64:	10b20008 	beq	a1,s2,405e88 <_init+0x4694>
  405e68:	26020020 	addiu	v0,s0,32
  405e6c:	afa20010 	sw	v0,16(sp)
  405e70:	8f848020 	lw	a0,-32736(gp)
  405e74:	00000000 	nop
  405e78:	24843f00 	addiu	a0,a0,16128		# "*** Warning: %08x:%08x:%d"%s" has bad header checksum!"
  405e7c:	02403021 	move	a2,s2
  405e80:	1000001a 	b	405eec <_init+0x46f8>
  405e84:	24070040 	li	a3,64
  405e88:	ae050004 	sw	a1,4(s0)
  405e8c:	00002021 	move	a0,zero
  405e90:	8e12000c 	lw	s2,12(s0)
  405e94:	26250040 	addiu	a1,s1,64
  405e98:	02403021 	move	a2,s2
  405e9c:	8f998018 	lw	t9,-32744(gp)
  405ea0:	00000000 	nop
  405ea4:	27391b00 	addiu	t9,t9,6912		# 0x401b00
  405ea8:	00000000 	nop
  405eac:	0320f809 	jalr	t9
  405eb0:	00000000 	nop
  405eb4:	8fbc0018 	lw	gp,24(sp)
  405eb8:	8e030018 	lw	v1,24(s0)
  405ebc:	00402821 	move	a1,v0
  405ec0:	14a30004 	bne	a1,v1,405ed4 <_init+0x46e0>
  405ec4:	26020020 	addiu	v0,s0,32
  405ec8:	9202001e 	lbu	v0,30(s0)
  405ecc:	1000000d 	b	405f04 <_init+0x4710>
  405ed0:	00000000 	nop
  405ed4:	afa20010 	sw	v0,16(sp)
  405ed8:	8f848020 	lw	a0,-32736(gp)
  405edc:	00000000 	nop
  405ee0:	24843f38 	addiu	a0,a0,16184		# "*** Warning: %08x:%08x:%d"%s" has corrupted data!"
  405ee4:	8e060018 	lw	a2,24(s0)
  405ee8:	02403821 	move	a3,s2
  405eec:	8f998100 	lw	t9,-32512(gp) <printf>
  405ef0:	00000000 	nop
  405ef4:	0320f809 	jalr	t9
  405ef8:	00000000 	nop
  405efc:	8fbc0018 	lw	gp,24(sp)
  405f00:	2402ffff 	li	v0,-1
  405f04:	8fbf0070 	lw	ra,112(sp)
  405f08:	8fb20068 	lw	s2,104(sp)
  405f0c:	8fb10064 	lw	s1,100(sp)
  405f10:	8fb00060 	lw	s0,96(sp)
  405f14:	03e00008 	jr	ra
  405f18:	27bd0078 	addiu	sp,sp,120
  405f1c:	3c1c0fc0 	lui	gp,0xfc0
  405f20:	279c3374 	addiu	gp,gp,13172
  405f24:	0399e021 	addu	gp,gp,t9
  405f28:	27bdffc0 	addiu	sp,sp,-64
  405f2c:	afbc0018 	sw	gp,24(sp)
  405f30:	afbf003c 	sw	ra,60(sp)
  405f34:	afbc0038 	sw	gp,56(sp)
  405f38:	afb50034 	sw	s5,52(sp)
  405f3c:	afb40030 	sw	s4,48(sp)
  405f40:	afb3002c 	sw	s3,44(sp)
  405f44:	afb20028 	sw	s2,40(sp)
  405f48:	afb10024 	sw	s1,36(sp)
  405f4c:	afb00020 	sw	s0,32(sp)
  405f50:	0080a021 	move	s4,a0
  405f54:	8f848020 	lw	a0,-32736(gp)
  405f58:	00000000 	nop
  405f5c:	24843f6c 	addiu	a0,a0,16236
  405f60:	8f998100 	lw	t9,-32512(gp) <printf>
  405f64:	00000000 	nop
  405f68:	0320f809 	jalr	t9
  405f6c:	00000000 	nop
  405f70:	8fbc0018 	lw	gp,24(sp)
  405f74:	00000000 	nop
  405f78:	8f848020 	lw	a0,-32736(gp)
  405f7c:	00000000 	nop
  405f80:	24843f70 	addiu	a0,a0,16240		# "Image Name:      %s"
  405f84:	26850020 	addiu	a1,s4,32
  405f88:	8f998100 	lw	t9,-32512(gp) <printf>
  405f8c:	00000000 	nop
  405f90:	0320f809 	jalr	t9
  405f94:	00000000 	nop
  405f98:	8fbc0018 	lw	gp,24(sp)
  405f9c:	00000000 	nop
  405fa0:	8f848020 	lw	a0,-32736(gp)
  405fa4:	00000000 	nop
  405fa8:	24843f88 	addiu	a0,a0,16264		# "Image Type:"
  405fac:	8f998100 	lw	t9,-32512(gp) <printf>
  405fb0:	00000000 	nop
  405fb4:	0320f809 	jalr	t9
  405fb8:	00000000 	nop
  405fbc:	8fbc0018 	lw	gp,24(sp)
  405fc0:	02802021 	move	a0,s4
  405fc4:	8f998018 	lw	t9,-32744(gp)
  405fc8:	00000000 	nop
  405fcc:	27391d34 	addiu	t9,t9,7476		# 0x401d34
  405fd0:	00000000 	nop
  405fd4:	0320f809 	jalr	t9
  405fd8:	00000000 	nop
  405fdc:	8fbc0018 	lw	gp,24(sp)
  405fe0:	8e85000c 	lw	a1,12(s4)
  405fe4:	8f848020 	lw	a0,-32736(gp)
  405fe8:	00000000 	nop
  405fec:	24843f9c 	addiu	a0,a0,16284		# "Data  Size:      %d Bytes"
  405ff0:	8f998100 	lw	t9,-32512(gp) <printf>
  405ff4:	00000000 	nop
  405ff8:	0320f809 	jalr	t9
  405ffc:	00000000 	nop
  406000:	8fbc0018 	lw	gp,24(sp)
  406004:	8e850010 	lw	a1,16(s4)
  406008:	8f848020 	lw	a0,-32736(gp)
  40600c:	00000000 	nop
  406010:	24843fb8 	addiu	a0,a0,16312		# "Load  Address:   0x%08x"
  406014:	8f998100 	lw	t9,-32512(gp) <printf>
  406018:	00000000 	nop
  40601c:	0320f809 	jalr	t9
  406020:	00000000 	nop
  406024:	8fbc0018 	lw	gp,24(sp)
  406028:	8e850014 	lw	a1,20(s4)
  40602c:	8f848020 	lw	a0,-32736(gp)
  406030:	00000000 	nop
  406034:	24843fd4 	addiu	a0,a0,16340		# "Entry Point:     0x%08x"
  406038:	8f998100 	lw	t9,-32512(gp) <printf>
  40603c:	00000000 	nop
  406040:	0320f809 	jalr	t9
  406044:	00000000 	nop
  406048:	8fbc0018 	lw	gp,24(sp)
  40604c:	8e850004 	lw	a1,4(s4)
  406050:	8f848020 	lw	a0,-32736(gp)
  406054:	00000000 	nop
  406058:	24843ff0 	addiu	a0,a0,16368		# "Header Checksum: 0x%08x"
  40605c:	8f998100 	lw	t9,-32512(gp) <printf>
  406060:	00000000 	nop
  406064:	0320f809 	jalr	t9
  406068:	00000000 	nop
  40606c:	8fbc0018 	lw	gp,24(sp)
  406070:	8e850018 	lw	a1,24(s4)
  406074:	8f848020 	lw	a0,-32736(gp)
  406078:	00000000 	nop
  40607c:	2484400c 	addiu	a0,a0,16396		# "Image Checksum:  0x%08x"
  406080:	8f998100 	lw	t9,-32512(gp) <printf>
  406084:	00000000 	nop
  406088:	0320f809 	jalr	t9
  40608c:	00000000 	nop
  406090:	8fbc0018 	lw	gp,24(sp)
  406094:	9295001e 	lbu	s5,30(s4)
  406098:	24020004 	li	v0,4
  40609c:	02a01821 	move	v1,s5
  4060a0:	10620003 	beq	v1,v0,4060b0 <_init+0x48bc>
  4060a4:	24020006 	li	v0,6
  4060a8:	14620041 	bne	v1,v0,4061b0 <_init+0x49bc>
  4060ac:	02a01021 	move	v0,s5
  4060b0:	00009021 	move	s2,zero
  4060b4:	8e820040 	lw	v0,64(s4)
  4060b8:	00000000 	nop
  4060bc:	10400007 	beqz	v0,4060dc <_init+0x48e8>
  4060c0:	26900040 	addiu	s0,s4,64
  4060c4:	02001821 	move	v1,s0
  4060c8:	24630004 	addiu	v1,v1,4
  4060cc:	8c620000 	lw	v0,0(v1)
  4060d0:	00000000 	nop
  4060d4:	1440fffc 	bnez	v0,4060c8 <_init+0x48d4>
  4060d8:	26520001 	addiu	s2,s2,1
  4060dc:	00121080 	sll	v0,s2,0x2
  4060e0:	24530040 	addiu	s3,v0,64
  4060e4:	8f848020 	lw	a0,-32736(gp)
  4060e8:	00000000 	nop
  4060ec:	24844028 	addiu	a0,a0,16424		# "Contents:"
  4060f0:	8f998100 	lw	t9,-32512(gp) <printf>
  4060f4:	00000000 	nop
  4060f8:	0320f809 	jalr	t9
  4060fc:	00000000 	nop
  406100:	8fbc0018 	lw	gp,24(sp)
  406104:	8e020000 	lw	v0,0(s0)
  406108:	00000000 	nop
  40610c:	10400027 	beqz	v0,4061ac <_init+0x49b8>
  406110:	00009021 	move	s2,zero
  406114:	02008821 	move	s1,s0
  406118:	8f848020 	lw	a0,-32736(gp)
  40611c:	00000000 	nop
  406120:	24844034 	addiu	a0,a0,16436		# "Image %d: %8d Bytes = %4d kB = %d MB"
  406124:	8e300000 	lw	s0,0(s1)
  406128:	02402821 	move	a1,s2
  40612c:	00101502 	srl	v0,s0,0x14
  406130:	afa20010 	sw	v0,16(sp)
  406134:	02003021 	move	a2,s0
  406138:	00103a82 	srl	a3,s0,0xa
  40613c:	8f998100 	lw	t9,-32512(gp) <printf>
  406140:	00000000 	nop
  406144:	0320f809 	jalr	t9
  406148:	00000000 	nop
  40614c:	8fbc0018 	lw	gp,24(sp)
  406150:	9283001e 	lbu	v1,30(s4)
  406154:	24020006 	li	v0,6
  406158:	1462000b 	bne	v1,v0,406188 <_init+0x4994>
  40615c:	00000000 	nop
  406160:	1a400009 	blez	s2,406188 <_init+0x4994>
  406164:	02602821 	move	a1,s3
  406168:	8f848020 	lw	a0,-32736(gp)
  40616c:	00000000 	nop
  406170:	24844060 	addiu	a0,a0,16480		# "Offset = %08x"
  406174:	8f998100 	lw	t9,-32512(gp) <printf>
  406178:	00000000 	nop
  40617c:	0320f809 	jalr	t9
  406180:	00000000 	nop
  406184:	8fbc0018 	lw	gp,24(sp)
  406188:	26100003 	addiu	s0,s0,3
  40618c:	2402fffc 	li	v0,-4
  406190:	02028024 	and	s0,s0,v0
  406194:	02709821 	addu	s3,s3,s0
  406198:	26310004 	addiu	s1,s1,4
  40619c:	8e220000 	lw	v0,0(s1)
  4061a0:	00000000 	nop
  4061a4:	1440ffdc 	bnez	v0,406118 <_init+0x4924>
  4061a8:	26520001 	addiu	s2,s2,1
  4061ac:	02a01021 	move	v0,s5
  4061b0:	8fbf003c 	lw	ra,60(sp)
  4061b4:	8fb50034 	lw	s5,52(sp)
  4061b8:	8fb40030 	lw	s4,48(sp)
  4061bc:	8fb3002c 	lw	s3,44(sp)
  4061c0:	8fb20028 	lw	s2,40(sp)
  4061c4:	8fb10024 	lw	s1,36(sp)
  4061c8:	8fb00020 	lw	s0,32(sp)
  4061cc:	03e00008 	jr	ra
  4061d0:	27bd0040 	addiu	sp,sp,64
  4061d4:	3c1c0fc0 	lui	gp,0xfc0
  4061d8:	279c30bc 	addiu	gp,gp,12476
  4061dc:	0399e021 	addu	gp,gp,t9
  4061e0:	27bdffc0 	addiu	sp,sp,-64
  4061e4:	afbc0010 	sw	gp,16(sp)
  4061e8:	afbf0038 	sw	ra,56(sp)
  4061ec:	afbc0034 	sw	gp,52(sp)
  4061f0:	afb60030 	sw	s6,48(sp)
  4061f4:	afb5002c 	sw	s5,44(sp)
  4061f8:	afb40028 	sw	s4,40(sp)
  4061fc:	afb30024 	sw	s3,36(sp)
  406200:	afb20020 	sw	s2,32(sp)
  406204:	afb1001c 	sw	s1,28(sp)
  406208:	afb00018 	sw	s0,24(sp)
  40620c:	00c0a821 	move	s5,a2
  406210:	00808021 	move	s0,a0
  406214:	9203001e 	lbu	v1,30(s0)
  406218:	24020004 	li	v0,4
  40621c:	1462008f 	bne	v1,v0,40645c <_init+0x4c68>
  406220:	00a0a021 	move	s4,a1
  406224:	8e02000c 	lw	v0,12(s0)
  406228:	26120040 	addiu	s2,s0,64
  40622c:	02422821 	addu	a1,s2,v0
  406230:	26020044 	addiu	v0,s0,68
  406234:	0045102b 	sltu	v0,v0,a1
  406238:	10400011 	beqz	v0,406280 <_init+0x4a8c>
  40623c:	00009821 	move	s3,zero
  406240:	8e020040 	lw	v0,64(s0)
  406244:	00000000 	nop
  406248:	1040000d 	beqz	v0,406280 <_init+0x4a8c>
  40624c:	00000000 	nop
  406250:	26040044 	addiu	a0,s0,68
  406254:	02401821 	move	v1,s2
  406258:	24840004 	addiu	a0,a0,4
  40625c:	24630004 	addiu	v1,v1,4
  406260:	0085102b 	sltu	v0,a0,a1
  406264:	10400006 	beqz	v0,406280 <_init+0x4a8c>
  406268:	26730001 	addiu	s3,s3,1
  40626c:	8c620000 	lw	v0,0(v1)
  406270:	00000000 	nop
  406274:	1440fff9 	bnez	v0,40625c <_init+0x4a68>
  406278:	24840004 	addiu	a0,a0,4
  40627c:	2484fffc 	addiu	a0,a0,-4
  406280:	12600006 	beqz	s3,40629c <_init+0x4aa8>
  406284:	00131080 	sll	v0,s3,0x2
  406288:	02421021 	addu	v0,s2,v0
  40628c:	24420004 	addiu	v0,v0,4
  406290:	0045102b 	sltu	v0,v0,a1
  406294:	1440000a 	bnez	v0,4062c0 <_init+0x4acc>
  406298:	26630001 	addiu	v1,s3,1
  40629c:	8f848020 	lw	a0,-32736(gp)
  4062a0:	00000000 	nop
  4062a4:	24844074 	addiu	a0,a0,16500		# "error ?"
  4062a8:	8f998100 	lw	t9,-32512(gp) <printf>
  4062ac:	00000000 	nop
  4062b0:	0320f809 	jalr	t9
  4062b4:	00000000 	nop
  4062b8:	8fbc0010 	lw	gp,16(sp)
  4062bc:	26630001 	addiu	v1,s3,1
  4062c0:	00031080 	sll	v0,v1,0x2
  4062c4:	24420040 	addiu	v0,v0,64
  4062c8:	02028821 	addu	s1,s0,v0
  4062cc:	0282a023 	subu	s4,s4,v0
  4062d0:	2476ffff 	addiu	s6,v1,-1
  4062d4:	1ac00037 	blez	s6,4063b4 <_init+0x4bc0>
  4062d8:	00009821 	move	s3,zero
  4062dc:	8e500000 	lw	s0,0(s2)
  4062e0:	00000000 	nop
  4062e4:	0290102a 	slt	v0,s4,s0
  4062e8:	14400088 	bnez	v0,40650c <_init+0x4d18>
  4062ec:	26520004 	addiu	s2,s2,4
  4062f0:	02202021 	move	a0,s1
  4062f4:	8f998018 	lw	t9,-32744(gp)
  4062f8:	00000000 	nop
  4062fc:	27395cf4 	addiu	t9,t9,23796		# 0x405cf4
  406300:	00000000 	nop
  406304:	0320f809 	jalr	t9
  406308:	00000000 	nop
  40630c:	8fbc0010 	lw	gp,16(sp)
  406310:	00402021 	move	a0,v0
  406314:	02202821 	move	a1,s1
  406318:	02003021 	move	a2,s0
  40631c:	24070001 	li	a3,1
  406320:	8f998018 	lw	t9,-32744(gp)
  406324:	00000000 	nop
  406328:	27393bc8 	addiu	t9,t9,15304		# 0x403bc8
  40632c:	00000000 	nop
  406330:	0320f809 	jalr	t9
  406334:	00000000 	nop
  406338:	8fbc0010 	lw	gp,16(sp)
  40633c:	04400075 	bltz	v0,406514 <_init+0x4d20>
  406340:	00002821 	move	a1,zero
  406344:	14400002 	bnez	v0,406350 <_init+0x4b5c>
  406348:	00000000 	nop
  40634c:	0000a821 	move	s5,zero
  406350:	8f998038 	lw	t9,-32712(gp) <sync>
  406354:	00000000 	nop
  406358:	0320f809 	jalr	t9
  40635c:	00000000 	nop
  406360:	8fbc0010 	lw	gp,16(sp)
  406364:	00000000 	nop
  406368:	8f998038 	lw	t9,-32712(gp) <sync>
  40636c:	00000000 	nop
  406370:	0320f809 	jalr	t9
  406374:	00000000 	nop
  406378:	8fbc0010 	lw	gp,16(sp)
  40637c:	00000000 	nop
  406380:	8f998038 	lw	t9,-32712(gp) <sync>
  406384:	00000000 	nop
  406388:	0320f809 	jalr	t9
  40638c:	00000000 	nop
  406390:	8fbc0010 	lw	gp,16(sp)
  406394:	26100003 	addiu	s0,s0,3
  406398:	2402fffc 	li	v0,-4
  40639c:	02028024 	and	s0,s0,v0
  4063a0:	02308821 	addu	s1,s1,s0
  4063a4:	26730001 	addiu	s3,s3,1
  4063a8:	0276102a 	slt	v0,s3,s6
  4063ac:	1440ffcb 	bnez	v0,4062dc <_init+0x4ae8>
  4063b0:	0290a023 	subu	s4,s4,s0
  4063b4:	8f848108 	lw	a0,-32504(gp)
  4063b8:	00002821 	move	a1,zero
  4063bc:	8f998018 	lw	t9,-32744(gp)
  4063c0:	00000000 	nop
  4063c4:	27392838 	addiu	t9,t9,10296		# 0x402838
  4063c8:	00000000 	nop
  4063cc:	0320f809 	jalr	t9
  4063d0:	00000000 	nop
  4063d4:	8fbc0010 	lw	gp,16(sp)
  4063d8:	240405dc 	li	a0,1500
  4063dc:	8f9981e8 	lw	t9,-32280(gp) <sys_sleep>
  4063e0:	00000000 	nop
  4063e4:	0320f809 	jalr	t9
  4063e8:	00000000 	nop
  4063ec:	8fbc0010 	lw	gp,16(sp)
  4063f0:	12a00070 	beqz	s5,4065b4 <_init+0x4dc0>
  4063f4:	00001021 	move	v0,zero
  4063f8:	8f8480e8 	lw	a0,-32536(gp)
  4063fc:	8f858224 	lw	a1,-32220(gp)
  406400:	8f998018 	lw	t9,-32744(gp)
  406404:	00000000 	nop
  406408:	27392838 	addiu	t9,t9,10296		# 0x402838
  40640c:	00000000 	nop
  406410:	0320f809 	jalr	t9
  406414:	00000000 	nop
  406418:	8fbc0010 	lw	gp,16(sp)
  40641c:	24040001 	li	a0,1
  406420:	8f998058 	lw	t9,-32680(gp) <SetBtldBootState>
  406424:	00000000 	nop
  406428:	0320f809 	jalr	t9
  40642c:	00000000 	nop
  406430:	8fbc0010 	lw	gp,16(sp)
  406434:	00000000 	nop
  406438:	8f998018 	lw	t9,-32744(gp)
  40643c:	00000000 	nop
  406440:	273929a0 	addiu	t9,t9,10656		# 0x4029a0
  406444:	00000000 	nop
  406448:	0320f809 	jalr	t9
  40644c:	00000000 	nop
  406450:	8fbc0010 	lw	gp,16(sp)
  406454:	10000057 	b	4065b4 <_init+0x4dc0>
  406458:	00001021 	move	v0,zero
  40645c:	02002021 	move	a0,s0
  406460:	8f998018 	lw	t9,-32744(gp)
  406464:	00000000 	nop
  406468:	27395cf4 	addiu	t9,t9,23796		# 0x405cf4
  40646c:	00000000 	nop
  406470:	0320f809 	jalr	t9
  406474:	00000000 	nop
  406478:	8fbc0010 	lw	gp,16(sp)
  40647c:	00402021 	move	a0,v0
  406480:	02002821 	move	a1,s0
  406484:	02803021 	move	a2,s4
  406488:	00003821 	move	a3,zero
  40648c:	8f998018 	lw	t9,-32744(gp)
  406490:	00000000 	nop
  406494:	27393bc8 	addiu	t9,t9,15304		# 0x403bc8
  406498:	00000000 	nop
  40649c:	0320f809 	jalr	t9
  4064a0:	00000000 	nop
  4064a4:	8fbc0010 	lw	gp,16(sp)
  4064a8:	04410011 	bgez	v0,4064f0 <_init+0x4cfc>
  4064ac:	00002821 	move	a1,zero
  4064b0:	8f8480d4 	lw	a0,-32556(gp)
  4064b4:	8f998018 	lw	t9,-32744(gp)
  4064b8:	00000000 	nop
  4064bc:	27392838 	addiu	t9,t9,10296		# 0x402838
  4064c0:	00000000 	nop
  4064c4:	0320f809 	jalr	t9
  4064c8:	00000000 	nop
  4064cc:	8fbc0010 	lw	gp,16(sp)
  4064d0:	24040bb8 	li	a0,3000
  4064d4:	8f9981e8 	lw	t9,-32280(gp) <sys_sleep>
  4064d8:	00000000 	nop
  4064dc:	0320f809 	jalr	t9
  4064e0:	00000000 	nop
  4064e4:	8fbc0010 	lw	gp,16(sp)
  4064e8:	10000032 	b	4065b4 <_init+0x4dc0>
  4064ec:	2402fffc 	li	v0,-4
  4064f0:	14400002 	bnez	v0,4064fc <_init+0x4d08>
  4064f4:	00000000 	nop
  4064f8:	0000a821 	move	s5,zero
  4064fc:	16a00015 	bnez	s5,406554 <_init+0x4d60>
  406500:	00001021 	move	v0,zero
  406504:	1000002b 	b	4065b4 <_init+0x4dc0>
  406508:	00000000 	nop
  40650c:	10000029 	b	4065b4 <_init+0x4dc0>
  406510:	2402fffe 	li	v0,-2
  406514:	8f8480d4 	lw	a0,-32556(gp)
  406518:	8f998018 	lw	t9,-32744(gp)
  40651c:	00000000 	nop
  406520:	27392838 	addiu	t9,t9,10296		# 0x402838
  406524:	00000000 	nop
  406528:	0320f809 	jalr	t9
  40652c:	00000000 	nop
  406530:	8fbc0010 	lw	gp,16(sp)
  406534:	24040bb8 	li	a0,3000
  406538:	8f9981e8 	lw	t9,-32280(gp) <sys_sleep>
  40653c:	00000000 	nop
  406540:	0320f809 	jalr	t9
  406544:	00000000 	nop
  406548:	8fbc0010 	lw	gp,16(sp)
  40654c:	10000019 	b	4065b4 <_init+0x4dc0>
  406550:	2402fffd 	li	v0,-3
  406554:	8f8480e8 	lw	a0,-32536(gp)
  406558:	8f858224 	lw	a1,-32220(gp)
  40655c:	8f998018 	lw	t9,-32744(gp)
  406560:	00000000 	nop
  406564:	27392838 	addiu	t9,t9,10296		# 0x402838
  406568:	00000000 	nop
  40656c:	0320f809 	jalr	t9
  406570:	00000000 	nop
  406574:	8fbc0010 	lw	gp,16(sp)
  406578:	24040001 	li	a0,1
  40657c:	8f998058 	lw	t9,-32680(gp) <SetBtldBootState>
  406580:	00000000 	nop
  406584:	0320f809 	jalr	t9
  406588:	00000000 	nop
  40658c:	8fbc0010 	lw	gp,16(sp)
  406590:	00000000 	nop
  406594:	8f998018 	lw	t9,-32744(gp)
  406598:	00000000 	nop
  40659c:	273929a0 	addiu	t9,t9,10656		# 0x4029a0
  4065a0:	00000000 	nop
  4065a4:	0320f809 	jalr	t9
  4065a8:	00000000 	nop
  4065ac:	8fbc0010 	lw	gp,16(sp)
  4065b0:	00001021 	move	v0,zero
  4065b4:	8fbf0038 	lw	ra,56(sp)
  4065b8:	8fb60030 	lw	s6,48(sp)
  4065bc:	8fb5002c 	lw	s5,44(sp)
  4065c0:	8fb40028 	lw	s4,40(sp)
  4065c4:	8fb30024 	lw	s3,36(sp)
  4065c8:	8fb20020 	lw	s2,32(sp)
  4065cc:	8fb1001c 	lw	s1,28(sp)
  4065d0:	8fb00018 	lw	s0,24(sp)
  4065d4:	03e00008 	jr	ra
  4065d8:	27bd0040 	addiu	sp,sp,64
  4065dc:	3c1c0fc0 	lui	gp,0xfc0
  4065e0:	279c2cb4 	addiu	gp,gp,11444
  4065e4:	0399e021 	addu	gp,gp,t9
  4065e8:	27bdffd0 	addiu	sp,sp,-48
  4065ec:	afbc0010 	sw	gp,16(sp)
  4065f0:	afbf0028 	sw	ra,40(sp)
  4065f4:	afbc0024 	sw	gp,36(sp)
  4065f8:	afb20020 	sw	s2,32(sp)
  4065fc:	afb1001c 	sw	s1,28(sp)
  406600:	afb00018 	sw	s0,24(sp)
  406604:	00a09021 	move	s2,a1
  406608:	24020040 	li	v0,64
  40660c:	0052102a 	slt	v0,v0,s2
  406610:	10400098 	beqz	v0,406874 <_init+0x5080>
  406614:	00808021 	move	s0,a0
  406618:	8f998018 	lw	t9,-32744(gp)
  40661c:	00000000 	nop
  406620:	273947bc 	addiu	t9,t9,18364		# 0x4047bc
  406624:	00000000 	nop
  406628:	0320f809 	jalr	t9
  40662c:	00000000 	nop
  406630:	8fbc0010 	lw	gp,16(sp)
  406634:	00408821 	move	s1,v0
  406638:	0621000b 	bgez	s1,406668 <_init+0x4e74>
  40663c:	02202021 	move	a0,s1
  406640:	8f848020 	lw	a0,-32736(gp)
  406644:	00000000 	nop
  406648:	24844080 	addiu	a0,a0,16512		# "!0 TFTP: Boot Open Failed!!"
  40664c:	8f998100 	lw	t9,-32512(gp) <printf>
  406650:	00000000 	nop
  406654:	0320f809 	jalr	t9
  406658:	00000000 	nop
  40665c:	8fbc0010 	lw	gp,16(sp)
  406660:	10000085 	b	406878 <_init+0x5084>
  406664:	2402ffff 	li	v0,-1
  406668:	00002821 	move	a1,zero
  40666c:	00003021 	move	a2,zero
  406670:	8f9980f4 	lw	t9,-32524(gp) <lseek>
  406674:	00000000 	nop
  406678:	0320f809 	jalr	t9
  40667c:	00000000 	nop
  406680:	8fbc0010 	lw	gp,16(sp)
  406684:	0441000b 	bgez	v0,4066b4 <_init+0x4ec0>
  406688:	02202021 	move	a0,s1
  40668c:	8f848020 	lw	a0,-32736(gp)
  406690:	00000000 	nop
  406694:	248440a0 	addiu	a0,a0,16544		# "!0 TFTP: Boot SEEK_0 Failed!!"
  406698:	8f998100 	lw	t9,-32512(gp) <printf>
  40669c:	00000000 	nop
  4066a0:	0320f809 	jalr	t9
  4066a4:	00000000 	nop
  4066a8:	8fbc0010 	lw	gp,16(sp)
  4066ac:	1000006c 	b	406860 <_init+0x506c>
  4066b0:	02202021 	move	a0,s1
  4066b4:	26100040 	addiu	s0,s0,64
  4066b8:	02002821 	move	a1,s0
  4066bc:	00003021 	move	a2,zero
  4066c0:	8f998248 	lw	t9,-32184(gp) <write>
  4066c4:	00000000 	nop
  4066c8:	0320f809 	jalr	t9
  4066cc:	00000000 	nop
  4066d0:	8fbc0010 	lw	gp,16(sp)
  4066d4:	00000000 	nop
  4066d8:	8f848020 	lw	a0,-32736(gp)
  4066dc:	00000000 	nop
  4066e0:	248440c0 	addiu	a0,a0,16576		# "!0 TFTP: Boot0 pos(%d), len(%d), ok(%d)!!"
  4066e4:	24050040 	li	a1,64
  4066e8:	00003021 	move	a2,zero
  4066ec:	00403821 	move	a3,v0
  4066f0:	8f998100 	lw	t9,-32512(gp) <printf>
  4066f4:	00000000 	nop
  4066f8:	0320f809 	jalr	t9
  4066fc:	00000000 	nop
  406700:	8fbc0010 	lw	gp,16(sp)
  406704:	24040001 	li	a0,1
  406708:	8f998140 	lw	t9,-32448(gp) <sleep>
  40670c:	00000000 	nop
  406710:	0320f809 	jalr	t9
  406714:	00000000 	nop
  406718:	8fbc0010 	lw	gp,16(sp)
  40671c:	02202021 	move	a0,s1
  406720:	00002821 	move	a1,zero
  406724:	00003021 	move	a2,zero
  406728:	8f9980f4 	lw	t9,-32524(gp) <lseek>
  40672c:	00000000 	nop
  406730:	0320f809 	jalr	t9
  406734:	00000000 	nop
  406738:	8fbc0010 	lw	gp,16(sp)
  40673c:	0440003e 	bltz	v0,406838 <_init+0x5044>
  406740:	02202021 	move	a0,s1
  406744:	02002821 	move	a1,s0
  406748:	2650ffc0 	addiu	s0,s2,-64
  40674c:	02003021 	move	a2,s0
  406750:	8f998248 	lw	t9,-32184(gp) <write>
  406754:	00000000 	nop
  406758:	0320f809 	jalr	t9
  40675c:	00000000 	nop
  406760:	8fbc0010 	lw	gp,16(sp)
  406764:	00000000 	nop
  406768:	8f848020 	lw	a0,-32736(gp)
  40676c:	00000000 	nop
  406770:	24844110 	addiu	a0,a0,16656		# "!0 TFTP: Boot1 pos(%d), len(%d), ok(%d)!!"
  406774:	24050040 	li	a1,64
  406778:	02003021 	move	a2,s0
  40677c:	00403821 	move	a3,v0
  406780:	8f998100 	lw	t9,-32512(gp) <printf>
  406784:	00000000 	nop
  406788:	0320f809 	jalr	t9
  40678c:	00000000 	nop
  406790:	8fbc0010 	lw	gp,16(sp)
  406794:	02202021 	move	a0,s1
  406798:	8f998238 	lw	t9,-32200(gp) <close>
  40679c:	00000000 	nop
  4067a0:	0320f809 	jalr	t9
  4067a4:	00000000 	nop
  4067a8:	8fbc0010 	lw	gp,16(sp)
  4067ac:	00000000 	nop
  4067b0:	8f998038 	lw	t9,-32712(gp) <sync>
  4067b4:	00000000 	nop
  4067b8:	0320f809 	jalr	t9
  4067bc:	00000000 	nop
  4067c0:	8fbc0010 	lw	gp,16(sp)
  4067c4:	00000000 	nop
  4067c8:	8f998038 	lw	t9,-32712(gp) <sync>
  4067cc:	00000000 	nop
  4067d0:	0320f809 	jalr	t9
  4067d4:	00000000 	nop
  4067d8:	8fbc0010 	lw	gp,16(sp)
  4067dc:	00000000 	nop
  4067e0:	8f998038 	lw	t9,-32712(gp) <sync>
  4067e4:	00000000 	nop
  4067e8:	0320f809 	jalr	t9
  4067ec:	00000000 	nop
  4067f0:	8fbc0010 	lw	gp,16(sp)
  4067f4:	24040003 	li	a0,3
  4067f8:	8f998140 	lw	t9,-32448(gp) <sleep>
  4067fc:	00000000 	nop
  406800:	0320f809 	jalr	t9
  406804:	00000000 	nop
  406808:	8fbc0010 	lw	gp,16(sp)
  40680c:	00000000 	nop
  406810:	8f848020 	lw	a0,-32736(gp)
  406814:	00000000 	nop
  406818:	2484413c 	addiu	a0,a0,16700		# "!0 Boot update success"
  40681c:	8f998100 	lw	t9,-32512(gp) <printf>
  406820:	00000000 	nop
  406824:	0320f809 	jalr	t9
  406828:	00000000 	nop
  40682c:	8fbc0010 	lw	gp,16(sp)
  406830:	10000011 	b	406878 <_init+0x5084>
  406834:	00001021 	move	v0,zero
  406838:	8f848020 	lw	a0,-32736(gp)
  40683c:	00000000 	nop
  406840:	248440ec 	addiu	a0,a0,16620		# "!0 TFTP: Boot SEEK_1 Failed(%d)!!"
  406844:	00402821 	move	a1,v0
  406848:	8f998100 	lw	t9,-32512(gp) <printf>
  40684c:	00000000 	nop
  406850:	0320f809 	jalr	t9
  406854:	00000000 	nop
  406858:	8fbc0010 	lw	gp,16(sp)
  40685c:	02202021 	move	a0,s1
  406860:	8f998238 	lw	t9,-32200(gp) <close>
  406864:	00000000 	nop
  406868:	0320f809 	jalr	t9
  40686c:	00000000 	nop
  406870:	8fbc0010 	lw	gp,16(sp)
  406874:	2402ffff 	li	v0,-1
  406878:	8fbf0028 	lw	ra,40(sp)
  40687c:	8fb20020 	lw	s2,32(sp)
  406880:	8fb1001c 	lw	s1,28(sp)
  406884:	8fb00018 	lw	s0,24(sp)
  406888:	03e00008 	jr	ra
  40688c:	27bd0030 	addiu	sp,sp,48
  406890:	3c1c0fc0 	lui	gp,0xfc0
  406894:	279c2a00 	addiu	gp,gp,10752
  406898:	0399e021 	addu	gp,gp,t9
  40689c:	27bdffe0 	addiu	sp,sp,-32
  4068a0:	afbc0010 	sw	gp,16(sp)
  4068a4:	afbf001c 	sw	ra,28(sp)
  4068a8:	afbc0018 	sw	gp,24(sp)
  4068ac:	00802821 	move	a1,a0
  4068b0:	90a20001 	lbu	v0,1(a1)
  4068b4:	90a30000 	lbu	v1,0(a1)
  4068b8:	00021200 	sll	v0,v0,0x8
  4068bc:	00621825 	or	v1,v1,v0
  4068c0:	24024d42 	li	v0,19778
  4068c4:	14620014 	bne	v1,v0,406918 <_init+0x5124>
  4068c8:	00000000 	nop
  4068cc:	90a2001d 	lbu	v0,29(a1)
  4068d0:	90a3001c 	lbu	v1,28(a1)
  4068d4:	00021200 	sll	v0,v0,0x8
  4068d8:	00621825 	or	v1,v1,v0
  4068dc:	24020001 	li	v0,1
  4068e0:	1462000d 	bne	v1,v0,406918 <_init+0x5124>
  4068e4:	00000000 	nop
  4068e8:	90a3001f 	lbu	v1,31(a1)
  4068ec:	90a2001e 	lbu	v0,30(a1)
  4068f0:	90a40020 	lbu	a0,32(a1)
  4068f4:	00031a00 	sll	v1,v1,0x8
  4068f8:	00431025 	or	v0,v0,v1
  4068fc:	00042400 	sll	a0,a0,0x10
  406900:	90a30021 	lbu	v1,33(a1)
  406904:	00441025 	or	v0,v0,a0
  406908:	00031e00 	sll	v1,v1,0x18
  40690c:	00431025 	or	v0,v0,v1
  406910:	10400006 	beqz	v0,40692c <_init+0x5138>
  406914:	00000000 	nop
  406918:	8f848020 	lw	a0,-32736(gp)
  40691c:	00000000 	nop
  406920:	24844154 	addiu	a0,a0,16724
  406924:	1000001e 	b	4069a0 <_init+0x51ac>
  406928:	00000000 	nop
  40692c:	90a30013 	lbu	v1,19(a1)
  406930:	90a20012 	lbu	v0,18(a1)
  406934:	90a40014 	lbu	a0,20(a1)
  406938:	00031a00 	sll	v1,v1,0x8
  40693c:	00431025 	or	v0,v0,v1
  406940:	00042400 	sll	a0,a0,0x10
  406944:	90a30015 	lbu	v1,21(a1)
  406948:	00441025 	or	v0,v0,a0
  40694c:	00031e00 	sll	v1,v1,0x18
  406950:	00431025 	or	v0,v0,v1
  406954:	24030080 	li	v1,128
  406958:	1443000e 	bne	v0,v1,406994 <_init+0x51a0>
  40695c:	00000000 	nop
  406960:	90a30017 	lbu	v1,23(a1)
  406964:	90a20016 	lbu	v0,22(a1)
  406968:	90a40018 	lbu	a0,24(a1)
  40696c:	00031a00 	sll	v1,v1,0x8
  406970:	00431025 	or	v0,v0,v1
  406974:	00042400 	sll	a0,a0,0x10
  406978:	90a30019 	lbu	v1,25(a1)
  40697c:	00441025 	or	v0,v0,a0
  406980:	00031e00 	sll	v1,v1,0x18
  406984:	00431025 	or	v0,v0,v1
  406988:	24030040 	li	v1,64
  40698c:	1043000a 	beq	v0,v1,4069b8 <_init+0x51c4>
  406990:	24020001 	li	v0,1
  406994:	8f848020 	lw	a0,-32736(gp)
  406998:	00000000 	nop
  40699c:	24844188 	addiu	a0,a0,16776
  4069a0:	8f998100 	lw	t9,-32512(gp) <printf>
  4069a4:	00000000 	nop
  4069a8:	0320f809 	jalr	t9
  4069ac:	00000000 	nop
  4069b0:	8fbc0010 	lw	gp,16(sp)
  4069b4:	2402ffff 	li	v0,-1
  4069b8:	8fbf001c 	lw	ra,28(sp)
  4069bc:	00000000 	nop
  4069c0:	03e00008 	jr	ra
  4069c4:	27bd0020 	addiu	sp,sp,32
  4069c8:	3c1c0fc0 	lui	gp,0xfc0
  4069cc:	279c28c8 	addiu	gp,gp,10440
  4069d0:	0399e021 	addu	gp,gp,t9
  4069d4:	27bdfbc0 	addiu	sp,sp,-1088
  4069d8:	afbc0010 	sw	gp,16(sp)
  4069dc:	afbf043c 	sw	ra,1084(sp)
  4069e0:	afbc0438 	sw	gp,1080(sp)
  4069e4:	afb50434 	sw	s5,1076(sp)
  4069e8:	afb40430 	sw	s4,1072(sp)
  4069ec:	afb3042c 	sw	s3,1068(sp)
  4069f0:	afb20428 	sw	s2,1064(sp)
  4069f4:	afb10424 	sw	s1,1060(sp)
  4069f8:	afb00420 	sw	s0,1056(sp)
  4069fc:	00a0a021 	move	s4,a1
  406a00:	24021234 	li	v0,4660
  406a04:	a7a20418 	sh	v0,1048(sp)
  406a08:	24150010 	li	s5,16
  406a0c:	00008821 	move	s1,zero
  406a10:	00009021 	move	s2,zero
  406a14:	9083000b 	lbu	v1,11(a0)
  406a18:	9082000a 	lbu	v0,10(a0)
  406a1c:	9085000c 	lbu	a1,12(a0)
  406a20:	00031a00 	sll	v1,v1,0x8
  406a24:	00431025 	or	v0,v0,v1
  406a28:	00052c00 	sll	a1,a1,0x10
  406a2c:	9083000d 	lbu	v1,13(a0)
  406a30:	00451025 	or	v0,v0,a1
  406a34:	00031e00 	sll	v1,v1,0x18
  406a38:	00431025 	or	v0,v0,v1
  406a3c:	00829821 	addu	s3,a0,v0
  406a40:	00008021 	move	s0,zero
  406a44:	02001821 	move	v1,s0
  406a48:	2402003f 	li	v0,63
  406a4c:	06010002 	bgez	s0,406a58 <_init+0x5264>
  406a50:	00512823 	subu	a1,v0,s1
  406a54:	26030007 	addiu	v1,s0,7
  406a58:	02002021 	move	a0,s0
  406a5c:	000310c3 	sra	v0,v1,0x3
  406a60:	000218c0 	sll	v1,v0,0x3
  406a64:	02031823 	subu	v1,s0,v1
  406a68:	26100001 	addiu	s0,s0,1
  406a6c:	02421021 	addu	v0,s2,v0
  406a70:	02621021 	addu	v0,s3,v0
  406a74:	80460000 	lb	a2,0(v0)
  406a78:	24020007 	li	v0,7
  406a7c:	00431023 	subu	v0,v0,v1
  406a80:	00463007 	srav	a2,a2,v0
  406a84:	38c60001 	xori	a2,a2,0x1
  406a88:	30c60001 	andi	a2,a2,0x1
  406a8c:	8f998188 	lw	t9,-32376(gp) <LCDDrawPoint>
  406a90:	00000000 	nop
  406a94:	0320f809 	jalr	t9
  406a98:	00000000 	nop
  406a9c:	8fbc0010 	lw	gp,16(sp)
  406aa0:	2a020080 	slti	v0,s0,128
  406aa4:	1440ffe8 	bnez	v0,406a48 <_init+0x5254>
  406aa8:	02001821 	move	v1,s0
  406aac:	26310001 	addiu	s1,s1,1
  406ab0:	2a220040 	slti	v0,s1,64
  406ab4:	1440ffe2 	bnez	v0,406a40 <_init+0x524c>
  406ab8:	02559021 	addu	s2,s2,s5
  406abc:	24040005 	li	a0,5
  406ac0:	8f998140 	lw	t9,-32448(gp) <sleep>
  406ac4:	00000000 	nop
  406ac8:	0320f809 	jalr	t9
  406acc:	00000000 	nop
  406ad0:	8fbc0010 	lw	gp,16(sp)
  406ad4:	24020402 	li	v0,1026
  406ad8:	02820018 	mult	s4,v0
  406adc:	00001012 	mflo	v0
  406ae0:	3c13003f 	lui	s3,0x3f
  406ae4:	36738400 	ori	s3,s3,0x8400
  406ae8:	02629821 	addu	s3,s3,v0
  406aec:	8f998018 	lw	t9,-32744(gp)
  406af0:	00000000 	nop
  406af4:	273947bc 	addiu	t9,t9,18364		# 0x4047bc
  406af8:	00000000 	nop
  406afc:	0320f809 	jalr	t9
  406b00:	00000000 	nop
  406b04:	8fbc0010 	lw	gp,16(sp)
  406b08:	00408821 	move	s1,v0
  406b0c:	0621000b 	bgez	s1,406b3c <_init+0x5348>
  406b10:	02202021 	move	a0,s1
  406b14:	8f848020 	lw	a0,-32736(gp)
  406b18:	00000000 	nop
  406b1c:	248441c8 	addiu	a0,a0,16840		# "!0 TFTP: Flash Open Failed!!"
  406b20:	8f998100 	lw	t9,-32512(gp) <printf>
  406b24:	00000000 	nop
  406b28:	0320f809 	jalr	t9
  406b2c:	00000000 	nop
  406b30:	8fbc0010 	lw	gp,16(sp)
  406b34:	100000a0 	b	406db8 <_init+0x55c4>
  406b38:	2402ffff 	li	v0,-1
  406b3c:	00002821 	move	a1,zero
  406b40:	00003021 	move	a2,zero
  406b44:	8f9980f4 	lw	t9,-32524(gp) <lseek>
  406b48:	00000000 	nop
  406b4c:	0320f809 	jalr	t9
  406b50:	00000000 	nop
  406b54:	8fbc0010 	lw	gp,16(sp)
  406b58:	00000000 	nop
  406b5c:	8f848020 	lw	a0,-32736(gp)
  406b60:	00000000 	nop
  406b64:	248441e8 	addiu	a0,a0,16872		# "!0 TFTP: Flash SEEK_0 Failed(%d)!!"
  406b68:	0440000d 	bltz	v0,406ba0 <_init+0x53ac>
  406b6c:	02602821 	move	a1,s3
  406b70:	02202021 	move	a0,s1
  406b74:	00003021 	move	a2,zero
  406b78:	8f9980f4 	lw	t9,-32524(gp) <lseek>
  406b7c:	00000000 	nop
  406b80:	0320f809 	jalr	t9
  406b84:	00000000 	nop
  406b88:	8fbc0010 	lw	gp,16(sp)
  406b8c:	0441000c 	bgez	v0,406bc0 <_init+0x53cc>
  406b90:	27b00018 	addiu	s0,sp,24
  406b94:	8f848020 	lw	a0,-32736(gp)
  406b98:	00000000 	nop
  406b9c:	2484420c 	addiu	a0,a0,16908		# "!0 TFTP: Flash SEEK_1 Failed(%d)!!"
  406ba0:	00402821 	move	a1,v0
  406ba4:	8f998100 	lw	t9,-32512(gp) <printf>
  406ba8:	00000000 	nop
  406bac:	0320f809 	jalr	t9
  406bb0:	00000000 	nop
  406bb4:	8fbc0010 	lw	gp,16(sp)
  406bb8:	10000079 	b	406da0 <_init+0x55ac>
  406bbc:	02202021 	move	a0,s1
  406bc0:	02002021 	move	a0,s0
  406bc4:	00002821 	move	a1,zero
  406bc8:	24060400 	li	a2,1024
  406bcc:	8f998090 	lw	t9,-32624(gp) <memset>
  406bd0:	00000000 	nop
  406bd4:	0320f809 	jalr	t9
  406bd8:	00000000 	nop
  406bdc:	8fbc0010 	lw	gp,16(sp)
  406be0:	00000000 	nop
  406be4:	8f928214 	lw	s2,-32236(gp)
  406be8:	00000000 	nop
  406bec:	02402021 	move	a0,s2
  406bf0:	02002821 	move	a1,s0
  406bf4:	24060400 	li	a2,1024
  406bf8:	8f99811c 	lw	t9,-32484(gp) <memcmp>
  406bfc:	00000000 	nop
  406c00:	0320f809 	jalr	t9
  406c04:	00000000 	nop
  406c08:	8fbc0010 	lw	gp,16(sp)
  406c0c:	14400002 	bnez	v0,406c18 <_init+0x5424>
  406c10:	02002021 	move	a0,s0
  406c14:	a7a00418 	sh	zero,1048(sp)
  406c18:	240500ff 	li	a1,255
  406c1c:	24060400 	li	a2,1024
  406c20:	8f998090 	lw	t9,-32624(gp) <memset>
  406c24:	00000000 	nop
  406c28:	0320f809 	jalr	t9
  406c2c:	00000000 	nop
  406c30:	8fbc0010 	lw	gp,16(sp)
  406c34:	02402021 	move	a0,s2
  406c38:	02002821 	move	a1,s0
  406c3c:	24060400 	li	a2,1024
  406c40:	8f99811c 	lw	t9,-32484(gp) <memcmp>
  406c44:	00000000 	nop
  406c48:	0320f809 	jalr	t9
  406c4c:	00000000 	nop
  406c50:	8fbc0010 	lw	gp,16(sp)
  406c54:	14400002 	bnez	v0,406c60 <_init+0x546c>
  406c58:	00000000 	nop
  406c5c:	a7a00418 	sh	zero,1048(sp)
  406c60:	12800008 	beqz	s4,406c84 <_init+0x5490>
  406c64:	02202021 	move	a0,s1
  406c68:	27a50418 	addiu	a1,sp,1048
  406c6c:	24060002 	li	a2,2
  406c70:	8f998248 	lw	t9,-32184(gp) <write>
  406c74:	00000000 	nop
  406c78:	0320f809 	jalr	t9
  406c7c:	00000000 	nop
  406c80:	8fbc0010 	lw	gp,16(sp)
  406c84:	02202021 	move	a0,s1
  406c88:	02402821 	move	a1,s2
  406c8c:	24060400 	li	a2,1024
  406c90:	8f998248 	lw	t9,-32184(gp) <write>
  406c94:	00000000 	nop
  406c98:	0320f809 	jalr	t9
  406c9c:	00000000 	nop
  406ca0:	8fbc0010 	lw	gp,16(sp)
  406ca4:	00000000 	nop
  406ca8:	8f848020 	lw	a0,-32736(gp)
  406cac:	00000000 	nop
  406cb0:	24844230 	addiu	a0,a0,16944		# "!0 TFTP: BMP pos(%08xL), ok(%d)!!"
  406cb4:	02602821 	move	a1,s3
  406cb8:	00403021 	move	a2,v0
  406cbc:	8f998100 	lw	t9,-32512(gp) <printf>
  406cc0:	00000000 	nop
  406cc4:	0320f809 	jalr	t9
  406cc8:	00000000 	nop
  406ccc:	8fbc0010 	lw	gp,16(sp)
  406cd0:	02202021 	move	a0,s1
  406cd4:	8f998238 	lw	t9,-32200(gp) <close>
  406cd8:	00000000 	nop
  406cdc:	0320f809 	jalr	t9
  406ce0:	00000000 	nop
  406ce4:	8fbc0010 	lw	gp,16(sp)
  406ce8:	00000000 	nop
  406cec:	8f998038 	lw	t9,-32712(gp) <sync>
  406cf0:	00000000 	nop
  406cf4:	0320f809 	jalr	t9
  406cf8:	00000000 	nop
  406cfc:	8fbc0010 	lw	gp,16(sp)
  406d00:	00000000 	nop
  406d04:	8f998038 	lw	t9,-32712(gp) <sync>
  406d08:	00000000 	nop
  406d0c:	0320f809 	jalr	t9
  406d10:	00000000 	nop
  406d14:	8fbc0010 	lw	gp,16(sp)
  406d18:	00000000 	nop
  406d1c:	8f998038 	lw	t9,-32712(gp) <sync>
  406d20:	00000000 	nop
  406d24:	0320f809 	jalr	t9
  406d28:	00000000 	nop
  406d2c:	8fbc0010 	lw	gp,16(sp)
  406d30:	24040003 	li	a0,3
  406d34:	8f998140 	lw	t9,-32448(gp) <sleep>
  406d38:	00000000 	nop
  406d3c:	0320f809 	jalr	t9
  406d40:	00000000 	nop
  406d44:	8fbc0010 	lw	gp,16(sp)
  406d48:	1680000b 	bnez	s4,406d78 <_init+0x5584>
  406d4c:	02802821 	move	a1,s4
  406d50:	8f848020 	lw	a0,-32736(gp)
  406d54:	00000000 	nop
  406d58:	24844254 	addiu	a0,a0,16980		# "!0 Boot BMP update success"
  406d5c:	8f998100 	lw	t9,-32512(gp) <printf>
  406d60:	00000000 	nop
  406d64:	0320f809 	jalr	t9
  406d68:	00000000 	nop
  406d6c:	8fbc0010 	lw	gp,16(sp)
  406d70:	10000011 	b	406db8 <_init+0x55c4>
  406d74:	24020001 	li	v0,1
  406d78:	8f848020 	lw	a0,-32736(gp)
  406d7c:	00000000 	nop
  406d80:	24844270 	addiu	a0,a0,17008		# "!0 AD BMP %d update success"
  406d84:	8f998100 	lw	t9,-32512(gp) <printf>
  406d88:	00000000 	nop
  406d8c:	0320f809 	jalr	t9
  406d90:	00000000 	nop
  406d94:	8fbc0010 	lw	gp,16(sp)
  406d98:	10000007 	b	406db8 <_init+0x55c4>
  406d9c:	24020001 	li	v0,1
  406da0:	8f998238 	lw	t9,-32200(gp) <close>
  406da4:	00000000 	nop
  406da8:	0320f809 	jalr	t9
  406dac:	00000000 	nop
  406db0:	8fbc0010 	lw	gp,16(sp)
  406db4:	2402ffff 	li	v0,-1
  406db8:	8fbf043c 	lw	ra,1084(sp)
  406dbc:	8fb50434 	lw	s5,1076(sp)
  406dc0:	8fb40430 	lw	s4,1072(sp)
  406dc4:	8fb3042c 	lw	s3,1068(sp)
  406dc8:	8fb20428 	lw	s2,1064(sp)
  406dcc:	8fb10424 	lw	s1,1060(sp)
  406dd0:	8fb00420 	lw	s0,1056(sp)
  406dd4:	03e00008 	jr	ra
  406dd8:	27bd0440 	addiu	sp,sp,1088
  
00406ddc <run_server>:  
  406ddc:	3c1c0fc0 	lui	gp,0xfc0
  406de0:	279c24b4 	addiu	gp,gp,9396
  406de4:	0399e021 	addu	gp,gp,t9
  406de8:	27bdfcd8 	addiu	sp,sp,-808
  406dec:	afbc0018 	sw	gp,24(sp)
  406df0:	afbf0320 	sw	ra,800(sp)
  406df4:	afbe031c 	sw	s8,796(sp)
  406df8:	afbc0318 	sw	gp,792(sp)
  406dfc:	afb70314 	sw	s7,788(sp)
  406e00:	afb60310 	sw	s6,784(sp)
  406e04:	afb5030c 	sw	s5,780(sp)
  406e08:	afb40308 	sw	s4,776(sp)
  406e0c:	afb30304 	sw	s3,772(sp)
  406e10:	afb20300 	sw	s2,768(sp)
  406e14:	afb102fc 	sw	s1,764(sp)
  406e18:	afb002f8 	sw	s0,760(sp)
  406e1c:	8f81801c 	lw	at,-32740(gp)
  406e20:	00000000 	nop
  406e24:	242111f8 	addiu	at,at,4600
  406e28:	ac200000 	sw	zero,0(at)
  406e2c:	24020045 	li	v0,69
  406e30:	afa202d8 	sw	v0,728(sp)
  406e34:	27b002d8 	addiu	s0,sp,728
  406e38:	02002021 	move	a0,s0
  406e3c:	00002821 	move	a1,zero
  406e40:	8f998068 	lw	t9,-32664(gp) <udp_open>
  406e44:	00000000 	nop
  406e48:	0320f809 	jalr	t9
  406e4c:	00000000 	nop
  406e50:	8fbc0018 	lw	gp,24(sp)
  406e54:	00000000 	nop
  406e58:	8f81801c 	lw	at,-32740(gp)
  406e5c:	00000000 	nop
  406e60:	242111f8 	addiu	at,at,4600
  406e64:	ac220000 	sw	v0,0(at)
  406e68:	04410010 	bgez	v0,406eac <_init+0x56b8>
  406e6c:	2402270f 	li	v0,9999
  406e70:	8f848020 	lw	a0,-32736(gp)
  406e74:	00000000 	nop
  406e78:	24844290 	addiu	a0,a0,17040		# "bind err"
  406e7c:	8f998100 	lw	t9,-32512(gp) <printf>
  406e80:	00000000 	nop
  406e84:	0320f809 	jalr	t9
  406e88:	00000000 	nop
  406e8c:	8fbc0018 	lw	gp,24(sp)
  406e90:	00000000 	nop
  406e94:	8f81801c 	lw	at,-32740(gp)
  406e98:	00000000 	nop
  406e9c:	242111f8 	addiu	at,at,4600
  406ea0:	ac200000 	sw	zero,0(at)
  406ea4:	100008c7 	b	4091c4 <_init+0x79d0>
  406ea8:	00000000 	nop
  406eac:	afa202d8 	sw	v0,728(sp)
  406eb0:	02002021 	move	a0,s0
  406eb4:	00002821 	move	a1,zero
  406eb8:	8f998068 	lw	t9,-32664(gp) <udp_open>
  406ebc:	00000000 	nop
  406ec0:	0320f809 	jalr	t9
  406ec4:	00000000 	nop
  406ec8:	8fbc0018 	lw	gp,24(sp)
  406ecc:	0441000b 	bgez	v0,406efc <_init+0x5708>
  406ed0:	afa202f0 	sw	v0,752(sp)
  406ed4:	8f848020 	lw	a0,-32736(gp)
  406ed8:	00000000 	nop
  406edc:	2484429c 	addiu	a0,a0,17052		# "web probe bind err"
  406ee0:	8f998154 	lw	t9,-32428(gp) <act_printf>
  406ee4:	00000000 	nop
  406ee8:	0320f809 	jalr	t9
  406eec:	00000000 	nop
  406ef0:	8fbc0018 	lw	gp,24(sp)
  406ef4:	100008b3 	b	4091c4 <_init+0x79d0>
  406ef8:	00000000 	nop
  406efc:	8f84807c 	lw	a0,-32644(gp)
  406f00:	00000000 	nop
  406f04:	8c840000 	lw	a0,0(a0)
  406f08:	00000000 	nop
  406f0c:	10800014 	beqz	a0,406f60 <_init+0x576c>
  406f10:	00000000 	nop
  406f14:	8f998114 	lw	t9,-32492(gp) <shmdt>
  406f18:	00000000 	nop
  406f1c:	0320f809 	jalr	t9
  406f20:	00000000 	nop
  406f24:	8fbc0018 	lw	gp,24(sp)
  406f28:	00000000 	nop
  406f2c:	8f81807c 	lw	at,-32644(gp)
  406f30:	00000000 	nop
  406f34:	ac200000 	sw	zero,0(at)
  406f38:	8f8480bc 	lw	a0,-32580(gp)
  406f3c:	00000000 	nop
  406f40:	8c840000 	lw	a0,0(a0)
  406f44:	00002821 	move	a1,zero
  406f48:	00003021 	move	a2,zero
  406f4c:	8f9980e0 	lw	t9,-32544(gp) <shmctl>
  406f50:	00000000 	nop
  406f54:	0320f809 	jalr	t9
  406f58:	00000000 	nop
  406f5c:	8fbc0018 	lw	gp,24(sp)
  406f60:	00002021 	move	a0,zero
  406f64:	27b10198 	addiu	s1,sp,408
  406f68:	02201821 	move	v1,s1
  406f6c:	ac600000 	sw	zero,0(v1)
  406f70:	24840001 	addiu	a0,a0,1
  406f74:	2c820020 	sltiu	v0,a0,32
  406f78:	1440fffc 	bnez	v0,406f6c <_init+0x5778>
  406f7c:	24630004 	addiu	v1,v1,4
  406f80:	24050001 	li	a1,1
  406f84:	8f86801c 	lw	a2,-32740(gp)
  406f88:	00000000 	nop
  406f8c:	24c611f8 	addiu	a2,a2,4600
  406f90:	8cc60000 	lw	a2,0(a2)
  406f94:	8fa702f0 	lw	a3,752(sp)
  406f98:	00062142 	srl	a0,a2,0x5
  406f9c:	00042080 	sll	a0,a0,0x2
  406fa0:	02242021 	addu	a0,s1,a0
  406fa4:	30c3001f 	andi	v1,a2,0x1f
  406fa8:	8c820000 	lw	v0,0(a0)
  406fac:	00651804 	sllv	v1,a1,v1
  406fb0:	00431025 	or	v0,v0,v1
  406fb4:	ac820000 	sw	v0,0(a0)
  406fb8:	8fa302f0 	lw	v1,752(sp)
  406fbc:	00000000 	nop
  406fc0:	00031142 	srl	v0,v1,0x5
  406fc4:	00021080 	sll	v0,v0,0x2
  406fc8:	02228021 	addu	s0,s1,v0
  406fcc:	3072001f 	andi	s2,v1,0x1f
  406fd0:	8e020000 	lw	v0,0(s0)
  406fd4:	02452804 	sllv	a1,a1,s2
  406fd8:	00451025 	or	v0,v0,a1
  406fdc:	ae020000 	sw	v0,0(s0)
  406fe0:	0066102a 	slt	v0,v1,a2
  406fe4:	10400002 	beqz	v0,406ff0 <_init+0x57fc>
  406fe8:	00000000 	nop
  406fec:	00c03821 	move	a3,a2
  406ff0:	afa00010 	sw	zero,16(sp)
  406ff4:	24e40001 	addiu	a0,a3,1
  406ff8:	02202821 	move	a1,s1
  406ffc:	00003021 	move	a2,zero
  407000:	00003821 	move	a3,zero
  407004:	8f998210 	lw	t9,-32240(gp) <select>
  407008:	00000000 	nop
  40700c:	0320f809 	jalr	t9
  407010:	00000000 	nop
  407014:	8fbc0018 	lw	gp,24(sp)
  407018:	1840084a 	blez	v0,409144 <_init+0x7950>
  40701c:	00000000 	nop
  407020:	8e020000 	lw	v0,0(s0)
  407024:	00000000 	nop
  407028:	02421006 	srlv	v0,v0,s2
  40702c:	30420001 	andi	v0,v0,0x1
  407030:	1040001c 	beqz	v0,4070a4 <_init+0x58b0>
  407034:	24060240 	li	a2,576
  407038:	8fa402f0 	lw	a0,752(sp)
  40703c:	8f93801c 	lw	s3,-32740(gp)
  407040:	00000000 	nop
  407044:	26731d50 	addiu	s3,s3,7504
  407048:	00000000 	nop
  40704c:	02602821 	move	a1,s3
  407050:	27b000e8 	addiu	s0,sp,232
  407054:	02003821 	move	a3,s0
  407058:	8f99827c 	lw	t9,-32132(gp) <udp_recvfrom>
  40705c:	00000000 	nop
  407060:	0320f809 	jalr	t9
  407064:	00000000 	nop
  407068:	8fbc0018 	lw	gp,24(sp)
  40706c:	00409021 	move	s2,v0
  407070:	1a400834 	blez	s2,409144 <_init+0x7950>
  407074:	02602821 	move	a1,s3
  407078:	8fa402f0 	lw	a0,752(sp)
  40707c:	02403021 	move	a2,s2
  407080:	02003821 	move	a3,s0
  407084:	8f998018 	lw	t9,-32744(gp)
  407088:	00000000 	nop
  40708c:       27392230        addiu   t9,t9,8752              # 0x402230 probe_recv
  407090:	00000000 	nop
  407094:	0320f809 	jalr	t9
  407098:	00000000 	nop
  40709c:	8fbc0018 	lw	gp,24(sp)
  4070a0:	00000000 	nop
  4070a4:	8f84801c 	lw	a0,-32740(gp)
  4070a8:	00000000 	nop
  4070ac:	248411f8 	addiu	a0,a0,4600
  4070b0:	8c840000 	lw	a0,0(a0)
  4070b4:	00000000 	nop
  4070b8:	00041142 	srl	v0,a0,0x5
  4070bc:	00021080 	sll	v0,v0,0x2
  4070c0:	02221021 	addu	v0,s1,v0
  4070c4:	8c420000 	lw	v0,0(v0)
  4070c8:	3083001f 	andi	v1,a0,0x1f
  4070cc:	00621006 	srlv	v0,v0,v1
  4070d0:	30420001 	andi	v0,v0,0x1
  4070d4:	1040ff89 	beqz	v0,406efc <_init+0x5708>
  4070d8:	24060240 	li	a2,576
  4070dc:	8f85801c 	lw	a1,-32740(gp)
  4070e0:	00000000 	nop
  4070e4:	24a51d50 	addiu	a1,a1,7504
  4070e8:	27a700e8 	addiu	a3,sp,232
  4070ec:	8f99827c 	lw	t9,-32132(gp) <udp_recvfrom>
  4070f0:	00000000 	nop
  4070f4:	0320f809 	jalr	t9
  4070f8:	00000000 	nop
  4070fc:	8fbc0018 	lw	gp,24(sp)
  407100:	18400810 	blez	v0,409144 <_init+0x7950>
  407104:	00000000 	nop
  407108:	8f84807c 	lw	a0,-32644(gp)
  40710c:	00000000 	nop
  407110:	8c840000 	lw	a0,0(a0)
  407114:	00000000 	nop
  407118:	10800015 	beqz	a0,407170 <_init+0x597c>
  40711c:	00000000 	nop
  407120:	8f998114 	lw	t9,-32492(gp) <shmdt>
  407124:	00000000 	nop
  407128:	0320f809 	jalr	t9
  40712c:	00000000 	nop
  407130:	8fbc0018 	lw	gp,24(sp)
  407134:	00000000 	nop
  407138:	8f81807c 	lw	at,-32644(gp)
  40713c:	00000000 	nop
  407140:	ac200000 	sw	zero,0(at)
  407144:	8f8480bc 	lw	a0,-32580(gp)
  407148:	00000000 	nop
  40714c:	8c840000 	lw	a0,0(a0)
  407150:	00002821 	move	a1,zero
  407154:	00003021 	move	a2,zero
  407158:	8f9980e0 	lw	t9,-32544(gp) <shmctl>
  40715c:	00000000 	nop
  407160:	0320f809 	jalr	t9
  407164:	00000000 	nop
  407168:	8fbc0018 	lw	gp,24(sp)
  40716c:	00000000 	nop
  407170:	8f94801c 	lw	s4,-32740(gp)
  407174:	00000000 	nop
  407178:	26941d51 	addiu	s4,s4,7505
  40717c:	92850000 	lbu	a1,0(s4)
  407180:	00000000 	nop
  407184:	24a2ffff 	addiu	v0,a1,-1
  407188:	2c420002 	sltiu	v0,v0,2
  40718c:	1440003f 	bnez	v0,40728c <_init+0x5a98>
  407190:	26900001 	addiu	s0,s4,1
  407194:	8f848020 	lw	a0,-32736(gp)
  407198:	00000000 	nop
  40719c:	248442b0 	addiu	a0,a0,17072		# "!1 TFTP Invalid command (%d)"
  4071a0:	00052e00 	sll	a1,a1,0x18
  4071a4:	00052e03 	sra	a1,a1,0x18
  4071a8:	8f998100 	lw	t9,-32512(gp) <printf>
  4071ac:	00000000 	nop
  4071b0:	0320f809 	jalr	t9
  4071b4:	00000000 	nop
  4071b8:	8fbc0018 	lw	gp,24(sp)
  4071bc:	00000000 	nop
  4071c0:	8f828020 	lw	v0,-32736(gp)
  4071c4:	00000000 	nop
  4071c8:	244242d0 	addiu	v0,v0,17104		# "Invalid command"
  4071cc:	00000000 	nop
  4071d0:	8c430000 	lw	v1,0(v0)
  4071d4:	8c440004 	lw	a0,4(v0)
  4071d8:	afa30048 	sw	v1,72(sp)
  4071dc:	afa4004c 	sw	a0,76(sp)
  4071e0:	8c430008 	lw	v1,8(v0)
  4071e4:	8c42000c 	lw	v0,12(v0)
  4071e8:	afa30050 	sw	v1,80(sp)
  4071ec:	afa20054 	sw	v0,84(sp)
  4071f0:	8f90801c 	lw	s0,-32740(gp)
  4071f4:	00000000 	nop
  4071f8:	26101d50 	addiu	s0,s0,7504
  4071fc:	00000000 	nop
  407200:	a2000000 	sb	zero,0(s0)
  407204:	24020005 	li	v0,5
  407208:	a2020001 	sb	v0,1(s0)
  40720c:	a2000002 	sb	zero,2(s0)
  407210:	24020004 	li	v0,4
  407214:	a2020003 	sb	v0,3(s0)
  407218:	26040004 	addiu	a0,s0,4
  40721c:	27b10048 	addiu	s1,sp,72
  407220:	02202821 	move	a1,s1
  407224:	8f998030 	lw	t9,-32720(gp) <strcpy>
  407228:	00000000 	nop
  40722c:	0320f809 	jalr	t9
  407230:	00000000 	nop
  407234:	8fbc0018 	lw	gp,24(sp)
  407238:	02202021 	move	a0,s1
  40723c:	8f998144 	lw	t9,-32444(gp) <strlen>
  407240:	00000000 	nop
  407244:	0320f809 	jalr	t9
  407248:	00000000 	nop
  40724c:	8fbc0018 	lw	gp,24(sp)
  407250:	00000000 	nop
  407254:	8f84801c 	lw	a0,-32740(gp)
  407258:	00000000 	nop
  40725c:	248411f8 	addiu	a0,a0,4600
  407260:	8c840000 	lw	a0,0(a0)
  407264:	02002821 	move	a1,s0
  407268:	24460005 	addiu	a2,v0,5
  40726c:	27a700e8 	addiu	a3,sp,232
  407270:	8f998264 	lw	t9,-32156(gp) <udp_sendto>
  407274:	00000000 	nop
  407278:	0320f809 	jalr	t9
  40727c:	00000000 	nop
  407280:	8fbc0018 	lw	gp,24(sp)
  407284:	1000ff1d 	b	406efc <_init+0x5708>
  407288:	00000000 	nop
  40728c:	02002021 	move	a0,s0
  407290:	8f998144 	lw	t9,-32444(gp) <strlen>
  407294:	00000000 	nop
  407298:	0320f809 	jalr	t9
  40729c:	00000000 	nop
  4072a0:	8fbc0018 	lw	gp,24(sp)
  4072a4:	00409021 	move	s2,v0
  4072a8:	2e420028 	sltiu	v0,s2,40
  4072ac:	14400006 	bnez	v0,4072c8 <_init+0x5ad4>
  4072b0:	27a40020 	addiu	a0,sp,32
  4072b4:	8f848020 	lw	a0,-32736(gp)
  4072b8:	00000000 	nop
  4072bc:	248442e0 	addiu	a0,a0,17120		# "!1 TFTP Invalid file(%s)"
  4072c0:	1000067b 	b	408cb0 <_init+0x74bc>
  4072c4:	02002821 	move	a1,s0
  4072c8:	02002821 	move	a1,s0
  4072cc:	8f998030 	lw	t9,-32720(gp) <strcpy>
  4072d0:	00000000 	nop
  4072d4:	0320f809 	jalr	t9
  4072d8:	00000000 	nop
  4072dc:	8fbc0018 	lw	gp,24(sp)
  4072e0:	2653fffc 	addiu	s3,s2,-4
  4072e4:	27b10020 	addiu	s1,sp,32
  4072e8:	02332021 	addu	a0,s1,s3
  4072ec:	8f968020 	lw	s6,-32736(gp)
  4072f0:	00000000 	nop
  4072f4:	26d6430c 	addiu	s6,s6,17164		# ".cfg"
  4072f8:	00000000 	nop
  4072fc:	02c02821 	move	a1,s6
  407300:	8f9981f4 	lw	t9,-32268(gp) <my_stricmp>
  407304:	00000000 	nop
  407308:	0320f809 	jalr	t9
  40730c:	00000000 	nop
  407310:	8fbc0018 	lw	gp,24(sp)
  407314:	1440000e 	bnez	v0,407350 <_init+0x5b5c>
  407318:	24040001 	li	a0,1
  40731c:	afa402e4 	sw	a0,740(sp)
  407320:	2644fff9 	addiu	a0,s2,-7
  407324:	02242021 	addu	a0,s1,a0
  407328:	8f858020 	lw	a1,-32736(gp)
  40732c:	00000000 	nop
  407330:	24a54314 	addiu	a1,a1,17172		# "mp3.cfg"
  407334:	8f9981f4 	lw	t9,-32268(gp) <my_stricmp>
  407338:	00000000 	nop
  40733c:	0320f809 	jalr	t9
  407340:	00000000 	nop
  407344:	8fbc0018 	lw	gp,24(sp)
  407348:	10000002 	b	407354 <_init+0x5b60>
  40734c:	2c5e0001 	sltiu	s8,v0,1
  407350:	afa002e4 	sw	zero,740(sp)
  407354:	afa002ec 	sw	zero,748(sp)
  407358:	afa002e8 	sw	zero,744(sp)
  40735c:	02338021 	addu	s0,s1,s3
  407360:	02002021 	move	a0,s0
  407364:	8f858020 	lw	a1,-32736(gp)
  407368:	00000000 	nop
  40736c:	24a5431c 	addiu	a1,a1,17180		# ".bmp"
  407370:	8f9981f4 	lw	t9,-32268(gp) <my_stricmp>
  407374:	00000000 	nop
  407378:	0320f809 	jalr	t9
  40737c:	00000000 	nop
  407380:	8fbc0018 	lw	gp,24(sp)
  407384:	2c570001 	sltiu	s7,v0,1
  407388:	02002021 	move	a0,s0
  40738c:	8f958020 	lw	s5,-32736(gp)
  407390:	00000000 	nop
  407394:	26b54324 	addiu	s5,s5,17188		# ".mp3"
  407398:	00000000 	nop
  40739c:	02a02821 	move	a1,s5
  4073a0:	8f9981f4 	lw	t9,-32268(gp) <my_stricmp>
  4073a4:	00000000 	nop
  4073a8:	0320f809 	jalr	t9
  4073ac:	00000000 	nop
  4073b0:	8fbc0018 	lw	gp,24(sp)
  4073b4:	14400036 	bnez	v0,407490 <_init+0x5c9c>
  4073b8:	24040003 	li	a0,3
  4073bc:	8f858020 	lw	a1,-32736(gp)
  4073c0:	00000000 	nop
  4073c4:	24a5432c 	addiu	a1,a1,17196		# "/tmp/new.mp3"
  4073c8:	27a60108 	addiu	a2,sp,264
  4073cc:	8f998194 	lw	t9,-32364(gp) <__xstat>
  4073d0:	00000000 	nop
  4073d4:	0320f809 	jalr	t9
  4073d8:	00000000 	nop
  4073dc:	8fbc0018 	lw	gp,24(sp)
  4073e0:	14400012 	bnez	v0,40742c <_init+0x5c38>
  4073e4:	2642fff8 	addiu	v0,s2,-8
  4073e8:	8f848020 	lw	a0,-32736(gp)
  4073ec:	00000000 	nop
  4073f0:	2484433c 	addiu	a0,a0,17212		# "!1 New MP3 file incoming before previous be processed(%s)"
  4073f4:	8f85801c 	lw	a1,-32740(gp)
  4073f8:	00000000 	nop
  4073fc:	24a51d52 	addiu	a1,a1,7506
  407400:	8f998100 	lw	t9,-32512(gp) <printf>
  407404:	00000000 	nop
  407408:	0320f809 	jalr	t9
  40740c:	00000000 	nop
  407410:	8fbc0018 	lw	gp,24(sp)
  407414:	00000000 	nop
  407418:	8f828020 	lw	v0,-32736(gp)
  40741c:	00000000 	nop
  407420:	24424378 	addiu	v0,v0,17272		# "Server busy!"
  407424:	1000062c 	b	408cd8 <_init+0x74e4>
  407428:	00000000 	nop
  40742c:	02228021 	addu	s0,s1,v0
  407430:	02002021 	move	a0,s0
  407434:	8f858020 	lw	a1,-32736(gp)
  407438:	00000000 	nop
  40743c:	24a54388 	addiu	a1,a1,17288		# "hold.mp3"
  407440:	8f9981f4 	lw	t9,-32268(gp) <my_stricmp>
  407444:	00000000 	nop
  407448:	0320f809 	jalr	t9
  40744c:	00000000 	nop
  407450:	8fbc0018 	lw	gp,24(sp)
  407454:	14400003 	bnez	v0,407464 <_init+0x5c70>
  407458:	02002021 	move	a0,s0
  40745c:	24020001 	li	v0,1
  407460:	afa202ec 	sw	v0,748(sp)
  407464:	8f858020 	lw	a1,-32736(gp)
  407468:	00000000 	nop
  40746c:	24a54394 	addiu	a1,a1,17300		# "ring.mp3"
  407470:	8f9981f4 	lw	t9,-32268(gp) <my_stricmp>
  407474:	00000000 	nop
  407478:	0320f809 	jalr	t9
  40747c:	00000000 	nop
  407480:	8fbc0018 	lw	gp,24(sp)
  407484:	14400002 	bnez	v0,407490 <_init+0x5c9c>
  407488:	24030002 	li	v1,2
  40748c:	afa302ec 	sw	v1,748(sp)
  407490:	12e00025 	beqz	s7,407528 <_init+0x5d34>
  407494:	2644fff8 	addiu	a0,s2,-8
  407498:	02242021 	addu	a0,s1,a0
  40749c:	8f858020 	lw	a1,-32736(gp)
  4074a0:	00000000 	nop
  4074a4:	24a543a0 	addiu	a1,a1,17312		# "boot.bmp"
  4074a8:	8f9981f4 	lw	t9,-32268(gp) <my_stricmp>
  4074ac:	00000000 	nop
  4074b0:	0320f809 	jalr	t9
  4074b4:	00000000 	nop
  4074b8:	8fbc0018 	lw	gp,24(sp)
  4074bc:	10400016 	beqz	v0,407518 <_init+0x5d24>
  4074c0:	02331021 	addu	v0,s1,s3
  4074c4:	a0400000 	sb	zero,0(v0)
  4074c8:	2644fffb 	addiu	a0,s2,-5
  4074cc:	02242021 	addu	a0,s1,a0
  4074d0:	8f9980b0 	lw	t9,-32592(gp) <atoi>
  4074d4:	00000000 	nop
  4074d8:	0320f809 	jalr	t9
  4074dc:	00000000 	nop
  4074e0:	8fbc0018 	lw	gp,24(sp)
  4074e4:	0040b821 	move	s7,v0
  4074e8:	26e2ffff 	addiu	v0,s7,-1
  4074ec:	2c420006 	sltiu	v0,v0,6
  4074f0:	1440000b 	bnez	v0,407520 <_init+0x5d2c>
  4074f4:	00000000 	nop
  4074f8:	8f848020 	lw	a0,-32736(gp)
  4074fc:	00000000 	nop
  407500:	248443ac 	addiu	a0,a0,17324		# "!1 Invalid bitmap file(%s)"
  407504:	8f85801c 	lw	a1,-32740(gp)
  407508:	00000000 	nop
  40750c:	24a51d52 	addiu	a1,a1,7506
  407510:	100005e7 	b	408cb0 <_init+0x74bc>
  407514:	00000000 	nop
  407518:	24040001 	li	a0,1
  40751c:	afa402e8 	sw	a0,744(sp)
  407520:	16e000ab 	bnez	s7,4077d0 <_init+0x5fdc>
  407524:	00000000 	nop
  407528:	025d1021 	addu	v0,s2,sp
  40752c:	2450001c 	addiu	s0,v0,28
  407530:	02002021 	move	a0,s0
  407534:	8f858020 	lw	a1,-32736(gp)
  407538:	00000000 	nop
  40753c:	24a543c8 	addiu	a1,a1,17352		# ".img"
  407540:	8f9981f4 	lw	t9,-32268(gp) <my_stricmp>
  407544:	00000000 	nop
  407548:	0320f809 	jalr	t9
  40754c:	00000000 	nop
  407550:	8fbc0018 	lw	gp,24(sp)
  407554:	1040009e 	beqz	v0,4077d0 <_init+0x5fdc>
  407558:	02002021 	move	a0,s0
  40755c:	8f858020 	lw	a1,-32736(gp)
  407560:	00000000 	nop
  407564:	24a543d0 	addiu	a1,a1,17360		# ".###"
  407568:	8f9981f4 	lw	t9,-32268(gp) <my_stricmp>
  40756c:	00000000 	nop
  407570:	0320f809 	jalr	t9
  407574:	00000000 	nop
  407578:	8fbc0018 	lw	gp,24(sp)
  40757c:	10400094 	beqz	v0,4077d0 <_init+0x5fdc>
  407580:	02002021 	move	a0,s0
  407584:	02c02821 	move	a1,s6
  407588:	8f9981f4 	lw	t9,-32268(gp) <my_stricmp>
  40758c:	00000000 	nop
  407590:	0320f809 	jalr	t9
  407594:	00000000 	nop
  407598:	8fbc0018 	lw	gp,24(sp)
  40759c:	1040008c 	beqz	v0,4077d0 <_init+0x5fdc>
  4075a0:	02002021 	move	a0,s0
  4075a4:	02a02821 	move	a1,s5
  4075a8:	8f9981f4 	lw	t9,-32268(gp) <my_stricmp>
  4075ac:	00000000 	nop
  4075b0:	0320f809 	jalr	t9
  4075b4:	00000000 	nop
  4075b8:	8fbc0018 	lw	gp,24(sp)
  4075bc:	10400084 	beqz	v0,4077d0 <_init+0x5fdc>
  4075c0:	00000000 	nop
  4075c4:	8f848020 	lw	a0,-32736(gp)
  4075c8:	00000000 	nop
  4075cc:	248442e0 	addiu	a0,a0,17120		# "!1 TFTP Invalid file(%s)"
  4075d0:	8f85801c 	lw	a1,-32740(gp)
  4075d4:	00000000 	nop
  4075d8:	24a51d52 	addiu	a1,a1,7506
  4075dc:	100005b4 	b	408cb0 <_init+0x74bc>
  4075e0:	00000000 	nop
  4075e4:	8f848020 	lw	a0,-32736(gp)
  4075e8:	00000000 	nop
  4075ec:	248444c4 	addiu	a0,a0,17604		# "!1 Invalid product file(%s)"
  4075f0:	02202821 	move	a1,s1
  4075f4:	8f998100 	lw	t9,-32512(gp) <printf>
  4075f8:	00000000 	nop
  4075fc:	0320f809 	jalr	t9
  407600:	00000000 	nop
  407604:	8fbc0018 	lw	gp,24(sp)
  407608:	2402ffff 	li	v0,-1
  40760c:	1000000b 	b	40763c <_init+0x5e48>
  407610:	afa202dc 	sw	v0,732(sp)
  407614:	8f848020 	lw	a0,-32736(gp)
  407618:	00000000 	nop
  40761c:	248444c4 	addiu	a0,a0,17604		# "!1 Invalid product file(%s)"
  407620:	8f998100 	lw	t9,-32512(gp) <printf>
  407624:	00000000 	nop
  407628:	0320f809 	jalr	t9
  40762c:	00000000 	nop
  407630:	8fbc0018 	lw	gp,24(sp)
  407634:	2403ffff 	li	v1,-1
  407638:	afa302dc 	sw	v1,732(sp)
  40763c:	8f828020 	lw	v0,-32736(gp)
  407640:	00000000 	nop
  407644:	244244e4 	addiu	v0,v0,17636		# "Invalid product file"
  407648:	00000000 	nop
  40764c:	8c430000 	lw	v1,0(v0)
  407650:	8c440004 	lw	a0,4(v0)
  407654:	afa30048 	sw	v1,72(sp)
  407658:	afa4004c 	sw	a0,76(sp)
  40765c:	8c430008 	lw	v1,8(v0)
  407660:	8c44000c 	lw	a0,12(v0)
  407664:	afa30050 	sw	v1,80(sp)
  407668:	afa40054 	sw	a0,84(sp)
  40766c:	8c430010 	lw	v1,16(v0)
  407670:	90420014 	lbu	v0,20(v0)
  407674:	afa30058 	sw	v1,88(sp)
  407678:	100002f9 	b	408260 <_init+0x6a6c>
  40767c:	a3a2005c 	sb	v0,92(sp)
  407680:	8f848020 	lw	a0,-32736(gp)
  407684:	00000000 	nop
  407688:	2484450c 	addiu	a0,a0,17676		# "!1 TFTP Memory failed"
  40768c:	8f998100 	lw	t9,-32512(gp) <printf>
  407690:	00000000 	nop
  407694:	0320f809 	jalr	t9
  407698:	00000000 	nop
  40769c:	8fbc0018 	lw	gp,24(sp)
  4076a0:	2404ffff 	li	a0,-1
  4076a4:	8f828020 	lw	v0,-32736(gp)
  4076a8:	00000000 	nop
  4076ac:	24424524 	addiu	v0,v0,17700		# "Memory Failed"
  4076b0:	10000014 	b	407704 <_init+0x5f10>
  4076b4:	afa402dc 	sw	a0,732(sp)
  4076b8:	8f848020 	lw	a0,-32736(gp)
  4076bc:	00000000 	nop
  4076c0:	24844534 	addiu	a0,a0,17716		# "!1 TFTP Data Too Long(%d)"
  4076c4:	8f85801c 	lw	a1,-32740(gp)
  4076c8:	00000000 	nop
  4076cc:	24a501e8 	addiu	a1,a1,488
  4076d0:	8ca50000 	lw	a1,0(a1)
  4076d4:	afa202dc 	sw	v0,732(sp)
  4076d8:	00b22821 	addu	a1,a1,s2
  4076dc:	8f998100 	lw	t9,-32512(gp) <printf>
  4076e0:	00000000 	nop
  4076e4:	0320f809 	jalr	t9
  4076e8:	00000000 	nop
  4076ec:	8fbc0018 	lw	gp,24(sp)
  4076f0:	00000000 	nop
  4076f4:	8f828020 	lw	v0,-32736(gp)
  4076f8:	00000000 	nop
  4076fc:	24424550 	addiu	v0,v0,17744		# "Data Too Long"
  407700:	00000000 	nop
  407704:	8c430000 	lw	v1,0(v0)
  407708:	8c440004 	lw	a0,4(v0)
  40770c:	afa30048 	sw	v1,72(sp)
  407710:	afa4004c 	sw	a0,76(sp)
  407714:	8c430008 	lw	v1,8(v0)
  407718:	9442000c 	lhu	v0,12(v0)
  40771c:	afa30050 	sw	v1,80(sp)
  407720:	100002cf 	b	408260 <_init+0x6a6c>
  407724:	a7a20054 	sh	v0,84(sp)
  407728:	8f848020 	lw	a0,-32736(gp)
  40772c:	00000000 	nop
  407730:	24844560 	addiu	a0,a0,17760		# "!1 MP3 Hold over limit(%d)"
  407734:	8f998100 	lw	t9,-32512(gp) <printf>
  407738:	00000000 	nop
  40773c:	0320f809 	jalr	t9
  407740:	00000000 	nop
  407744:	8fbc0018 	lw	gp,24(sp)
  407748:	00000000 	nop
  40774c:	8f828020 	lw	v0,-32736(gp)
  407750:	00000000 	nop
  407754:	2442457c 	addiu	v0,v0,17788		# "MP3 Hold over limit"
  407758:	1000000e 	b	407794 <_init+0x5fa0>
  40775c:	2404ffff 	li	a0,-1
  407760:	8f848020 	lw	a0,-32736(gp)
  407764:	00000000 	nop
  407768:	24844590 	addiu	a0,a0,17808		# "!1 MP3 Ring over limit(%d)"
  40776c:	8f998100 	lw	t9,-32512(gp) <printf>
  407770:	00000000 	nop
  407774:	0320f809 	jalr	t9
  407778:	00000000 	nop
  40777c:	8fbc0018 	lw	gp,24(sp)
  407780:	00000000 	nop
  407784:	8f828020 	lw	v0,-32736(gp)
  407788:	00000000 	nop
  40778c:	244245ac 	addiu	v0,v0,17836		# "MP3 Ring over limit"
  407790:	2404ffff 	li	a0,-1
  407794:	8c430000 	lw	v1,0(v0)
  407798:	afa402dc 	sw	a0,732(sp)
  40779c:	afa30048 	sw	v1,72(sp)
  4077a0:	8c430004 	lw	v1,4(v0)
  4077a4:	8c440008 	lw	a0,8(v0)
  4077a8:	afa3004c 	sw	v1,76(sp)
  4077ac:	afa40050 	sw	a0,80(sp)
  4077b0:	8c43000c 	lw	v1,12(v0)
  4077b4:	8c420010 	lw	v0,16(v0)
  4077b8:	afa30054 	sw	v1,84(sp)
  4077bc:	100002a8 	b	408260 <_init+0x6a6c>
  4077c0:	afa20058 	sw	v0,88(sp)
  4077c4:	24020001 	li	v0,1
  4077c8:	100002a5 	b	408260 <_init+0x6a6c>
  4077cc:	afa202dc 	sw	v0,732(sp)
  4077d0:	afa002dc 	sw	zero,732(sp)
  4077d4:	8f81801c 	lw	at,-32740(gp)
  4077d8:	00000000 	nop
  4077dc:	242101e8 	addiu	at,at,488
  4077e0:	ac200000 	sw	zero,0(at)
  4077e4:	8fa200e8 	lw	v0,232(sp)
  4077e8:	8fa300ec 	lw	v1,236(sp)
  4077ec:	afa200f8 	sw	v0,248(sp)
  4077f0:	afa300fc 	sw	v1,252(sp)
  4077f4:	8fa200f0 	lw	v0,240(sp)
  4077f8:	8fa300f4 	lw	v1,244(sp)
  4077fc:	afa20100 	sw	v0,256(sp)
  407800:	afa30104 	sw	v1,260(sp)
  407804:	82830000 	lb	v1,0(s4)
  407808:	24020002 	li	v0,2
  40780c:	14620495 	bne	v1,v0,408a64 <_init+0x7270>
  407810:	27a40020 	addiu	a0,sp,32
  407814:	8f99826c 	lw	t9,-32148(gp) <sys_currtime>
  407818:	00000000 	nop
  40781c:	0320f809 	jalr	t9
  407820:	00000000 	nop
  407824:	8fbc0018 	lw	gp,24(sp)
  407828:	0040b021 	move	s6,v0
  40782c:	8f81801c 	lw	at,-32740(gp)
  407830:	00000000 	nop
  407834:	242101ec 	addiu	at,at,492
  407838:	ac200000 	sw	zero,0(at)
  40783c:	a280ffff 	sb	zero,-1(s4)
  407840:	24020004 	li	v0,4
  407844:	a2820000 	sb	v0,0(s4)
  407848:	a2800001 	sb	zero,1(s4)
  40784c:	a2800002 	sb	zero,2(s4)
  407850:	8f84801c 	lw	a0,-32740(gp)
  407854:	00000000 	nop
  407858:	248411f8 	addiu	a0,a0,4600
  40785c:	8c840000 	lw	a0,0(a0)
  407860:	2685ffff 	addiu	a1,s4,-1
  407864:	24060004 	li	a2,4
  407868:	27a700e8 	addiu	a3,sp,232
  40786c:	8f998264 	lw	t9,-32156(gp) <udp_sendto>
  407870:	00000000 	nop
  407874:	0320f809 	jalr	t9
  407878:	00000000 	nop
  40787c:	8fbc0018 	lw	gp,24(sp)
  407880:	10000263 	b	408210 <_init+0x6a1c>
  407884:	24140001 	li	s4,1
  407888:	27a500f8 	addiu	a1,sp,248
  40788c:	8f998208 	lw	t9,-32248(gp) <xsocket_addr_cmp>
  407890:	00000000 	nop
  407894:	0320f809 	jalr	t9
  407898:	00000000 	nop
  40789c:	8fbc0018 	lw	gp,24(sp)
  4078a0:	04410038 	bgez	v0,407984 <_init+0x6190>
  4078a4:	2a420004 	slti	v0,s2,4
  4078a8:	8f99826c 	lw	t9,-32148(gp) <sys_currtime>
  4078ac:	00000000 	nop
  4078b0:	0320f809 	jalr	t9
  4078b4:	00000000 	nop
  4078b8:	8fbc0018 	lw	gp,24(sp)
  4078bc:	02c02021 	move	a0,s6
  4078c0:	00402821 	move	a1,v0
  4078c4:	8f998160 	lw	t9,-32416(gp) <sys_difftime>
  4078c8:	00000000 	nop
  4078cc:	0320f809 	jalr	t9
  4078d0:	00000000 	nop
  4078d4:	8fbc0018 	lw	gp,24(sp)
  4078d8:	3c031062 	lui	v1,0x1062
  4078dc:	34634dd3 	ori	v1,v1,0x4dd3
  4078e0:	00430019 	multu	v0,v1
  4078e4:	00001010 	mfhi	v0
  4078e8:	00021182 	srl	v0,v0,0x6
  4078ec:	2c42000a 	sltiu	v0,v0,10
  4078f0:	1040fe05 	beqz	v0,407108 <_init+0x5914>
  4078f4:	24020005 	li	v0,5
  4078f8:	a2600000 	sb	zero,0(s3)
  4078fc:	a2620001 	sb	v0,1(s3)
  407900:	a2600002 	sb	zero,2(s3)
  407904:	24020004 	li	v0,4
  407908:	a2620003 	sb	v0,3(s3)
  40790c:	26640004 	addiu	a0,s3,4
  407910:	8f828020 	lw	v0,-32736(gp)
  407914:	00000000 	nop
  407918:	244243d8 	addiu	v0,v0,17368		# "Busy Here"
  40791c:	27b00048 	addiu	s0,sp,72
  407920:	8c430000 	lw	v1,0(v0)
  407924:	02002821 	move	a1,s0
  407928:	afa30048 	sw	v1,72(sp)
  40792c:	8c430004 	lw	v1,4(v0)
  407930:	94420008 	lhu	v0,8(v0)
  407934:	afa3004c 	sw	v1,76(sp)
  407938:	a7a20050 	sh	v0,80(sp)
  40793c:	8f998030 	lw	t9,-32720(gp) <strcpy>
  407940:	00000000 	nop
  407944:	0320f809 	jalr	t9
  407948:	00000000 	nop
  40794c:	8fbc0018 	lw	gp,24(sp)
  407950:	02002021 	move	a0,s0
  407954:	8f998144 	lw	t9,-32444(gp) <strlen>
  407958:	00000000 	nop
  40795c:	0320f809 	jalr	t9
  407960:	00000000 	nop
  407964:	8fbc0018 	lw	gp,24(sp)
  407968:	02602821 	move	a1,s3
  40796c:	8f84801c 	lw	a0,-32740(gp)
  407970:	00000000 	nop
  407974:	248411f8 	addiu	a0,a0,4600
  407978:	8c840000 	lw	a0,0(a0)
  40797c:	10000036 	b	407a58 <_init+0x6264>
  407980:	24460005 	addiu	a2,v0,5
  407984:	14400005 	bnez	v0,40799c <_init+0x61a8>
  407988:	24020003 	li	v0,3
  40798c:	82630001 	lb	v1,1(s3)
  407990:	00000000 	nop
  407994:	1062001c 	beq	v1,v0,407a08 <_init+0x6214>
  407998:	26700001 	addiu	s0,s3,1
  40799c:	82650001 	lb	a1,1(s3)
  4079a0:	24020002 	li	v0,2
  4079a4:	14a20003 	bne	a1,v0,4079b4 <_init+0x61c0>
  4079a8:	24020001 	li	v0,1
  4079ac:	12820218 	beq	s4,v0,408210 <_init+0x6a1c>
  4079b0:	00000000 	nop
  4079b4:	8f848020 	lw	a0,-32736(gp)
  4079b8:	00000000 	nop
  4079bc:	248443e4 	addiu	a0,a0,17380		# "!1 TFTP Data failed(%d)"
  4079c0:	8f998100 	lw	t9,-32512(gp) <printf>
  4079c4:	00000000 	nop
  4079c8:	0320f809 	jalr	t9
  4079cc:	00000000 	nop
  4079d0:	8fbc0018 	lw	gp,24(sp)
  4079d4:	00000000 	nop
  4079d8:	8f828020 	lw	v0,-32736(gp)
  4079dc:	00000000 	nop
  4079e0:	24424400 	addiu	v0,v0,17408		# "Data Failed"
  4079e4:	2404ffff 	li	a0,-1
  4079e8:	8c430000 	lw	v1,0(v0)
  4079ec:	afa402dc 	sw	a0,732(sp)
  4079f0:	afa30048 	sw	v1,72(sp)
  4079f4:	8c430004 	lw	v1,4(v0)
  4079f8:	8c420008 	lw	v0,8(v0)
  4079fc:	afa3004c 	sw	v1,76(sp)
  407a00:	10000217 	b	408260 <_init+0x6a6c>
  407a04:	afa20050 	sw	v0,80(sp)
  407a08:	82020001 	lb	v0,1(s0)
  407a0c:	92030002 	lbu	v1,2(s0)
  407a10:	00021200 	sll	v0,v0,0x8
  407a14:	00433025 	or	a2,v0,v1
  407a18:	1286002e 	beq	s4,a2,407ad4 <_init+0x62e0>
  407a1c:	24c20001 	addiu	v0,a2,1
  407a20:	16820015 	bne	s4,v0,407a78 <_init+0x6284>
  407a24:	02802821 	move	a1,s4
  407a28:	a200ffff 	sb	zero,-1(s0)
  407a2c:	24020004 	li	v0,4
  407a30:	a2620001 	sb	v0,1(s3)
  407a34:	00061203 	sra	v0,a2,0x8
  407a38:	a2020001 	sb	v0,1(s0)
  407a3c:	a2060002 	sb	a2,2(s0)
  407a40:	8f84801c 	lw	a0,-32740(gp)
  407a44:	00000000 	nop
  407a48:	248411f8 	addiu	a0,a0,4600
  407a4c:	8c840000 	lw	a0,0(a0)
  407a50:	02602821 	move	a1,s3
  407a54:	24060004 	li	a2,4
  407a58:	02a03821 	move	a3,s5
  407a5c:	8f998264 	lw	t9,-32156(gp) <udp_sendto>
  407a60:	00000000 	nop
  407a64:	0320f809 	jalr	t9
  407a68:	00000000 	nop
  407a6c:	8fbc0018 	lw	gp,24(sp)
  407a70:	100001e7 	b	408210 <_init+0x6a1c>
  407a74:	00000000 	nop
  407a78:	8f848020 	lw	a0,-32736(gp)
  407a7c:	00000000 	nop
  407a80:	2484440c 	addiu	a0,a0,17420		# "!1 TFTP Block Lost(%d, %d)"
  407a84:	8f998100 	lw	t9,-32512(gp) <printf>
  407a88:	00000000 	nop
  407a8c:	0320f809 	jalr	t9
  407a90:	00000000 	nop
  407a94:	8fbc0018 	lw	gp,24(sp)
  407a98:	2402ffff 	li	v0,-1
  407a9c:	afa202dc 	sw	v0,732(sp)
  407aa0:	8f828020 	lw	v0,-32736(gp)
  407aa4:	00000000 	nop
  407aa8:	24424428 	addiu	v0,v0,17448		# "Block Lost"
  407aac:	00000000 	nop
  407ab0:	8c430000 	lw	v1,0(v0)
  407ab4:	8c440004 	lw	a0,4(v0)
  407ab8:	afa30048 	sw	v1,72(sp)
  407abc:	afa4004c 	sw	a0,76(sp)
  407ac0:	94430008 	lhu	v1,8(v0)
  407ac4:	9042000a 	lbu	v0,10(v0)
  407ac8:	a7a30050 	sh	v1,80(sp)
  407acc:	100001e4 	b	408260 <_init+0x6a6c>
  407ad0:	a3a20052 	sb	v0,82(sp)
  407ad4:	24110001 	li	s1,1
  407ad8:	1291000a 	beq	s4,s1,407b04 <_init+0x6310>
  407adc:	2652fffc 	addiu	s2,s2,-4
  407ae0:	24020002 	li	v0,2
  407ae4:	16820177 	bne	s4,v0,4080c4 <_init+0x68d0>
  407ae8:	00000000 	nop
  407aec:	8f82807c 	lw	v0,-32644(gp)
  407af0:	00000000 	nop
  407af4:	8c420000 	lw	v0,0(v0)
  407af8:	00000000 	nop
  407afc:	14400171 	bnez	v0,4080c4 <_init+0x68d0>
  407b00:	00000000 	nop
  407b04:	12e00014 	beqz	s7,407b58 <_init+0x6364>
  407b08:	26640004 	addiu	a0,s3,4
  407b0c:	8f998018 	lw	t9,-32744(gp)
  407b10:	00000000 	nop
  407b14:	27396890 	addiu	t9,t9,26768		# 0x406890
  407b18:	00000000 	nop
  407b1c:	0320f809 	jalr	t9
  407b20:	00000000 	nop
  407b24:	8fbc0018 	lw	gp,24(sp)
  407b28:	044100f1 	bgez	v0,407ef0 <_init+0x66fc>
  407b2c:	00000000 	nop
  407b30:	8f848020 	lw	a0,-32736(gp)
  407b34:	00000000 	nop
  407b38:	24844434 	addiu	a0,a0,17460		# "!1 Invalid bitmap file"
  407b3c:	8f998100 	lw	t9,-32512(gp) <printf>
  407b40:	00000000 	nop
  407b44:	0320f809 	jalr	t9
  407b48:	00000000 	nop
  407b4c:	8fbc0018 	lw	gp,24(sp)
  407b50:	10000030 	b	407c14 <_init+0x6420>
  407b54:	2403ffff 	li	v1,-1
  407b58:	8fa402e4 	lw	a0,740(sp)
  407b5c:	00000000 	nop
  407b60:	1480003a 	bnez	a0,407c4c <_init+0x6458>
  407b64:	00000000 	nop
  407b68:	8fa202ec 	lw	v0,748(sp)
  407b6c:	00000000 	nop
  407b70:	14400036 	bnez	v0,407c4c <_init+0x6458>
  407b74:	26640004 	addiu	a0,s3,4
  407b78:	8f998018 	lw	t9,-32744(gp)
  407b7c:	00000000 	nop
  407b80:	27395f1c 	addiu	t9,t9,24348		# 0x405f1c
  407b84:	00000000 	nop
  407b88:	0320f809 	jalr	t9
  407b8c:	00000000 	nop
  407b90:	8fbc0018 	lw	gp,24(sp)
  407b94:	1c40002d 	bgtz	v0,407c4c <_init+0x6458>
  407b98:	00000000 	nop
  407b9c:	16910014 	bne	s4,s1,407bf0 <_init+0x63fc>
  407ba0:	00402821 	move	a1,v0
  407ba4:	a200ffff 	sb	zero,-1(s0)
  407ba8:	24020004 	li	v0,4
  407bac:	a2620001 	sb	v0,1(s3)
  407bb0:	a2000001 	sb	zero,1(s0)
  407bb4:	a2140002 	sb	s4,2(s0)
  407bb8:	8f84801c 	lw	a0,-32740(gp)
  407bbc:	00000000 	nop
  407bc0:	248411f8 	addiu	a0,a0,4600
  407bc4:	8c840000 	lw	a0,0(a0)
  407bc8:	02602821 	move	a1,s3
  407bcc:	24060004 	li	a2,4
  407bd0:	02a03821 	move	a3,s5
  407bd4:	8f998264 	lw	t9,-32156(gp) <udp_sendto>
  407bd8:	00000000 	nop
  407bdc:	0320f809 	jalr	t9
  407be0:	00000000 	nop
  407be4:	8fbc0018 	lw	gp,24(sp)
  407be8:	10000189 	b	408210 <_init+0x6a1c>
  407bec:	24140002 	li	s4,2
  407bf0:	8f848020 	lw	a0,-32736(gp)
  407bf4:	00000000 	nop
  407bf8:	2484444c 	addiu	a0,a0,17484		# "!1 Invalid file(%d)"
  407bfc:	8f998100 	lw	t9,-32512(gp) <printf>
  407c00:	00000000 	nop
  407c04:	0320f809 	jalr	t9
  407c08:	00000000 	nop
  407c0c:	8fbc0018 	lw	gp,24(sp)
  407c10:	2403ffff 	li	v1,-1
  407c14:	afa302dc 	sw	v1,732(sp)
  407c18:	8f828020 	lw	v0,-32736(gp)
  407c1c:	00000000 	nop
  407c20:	244242fc 	addiu	v0,v0,17148		# "Invalid file"
  407c24:	00000000 	nop
  407c28:	8c430000 	lw	v1,0(v0)
  407c2c:	8c440004 	lw	a0,4(v0)
  407c30:	afa30048 	sw	v1,72(sp)
  407c34:	afa4004c 	sw	a0,76(sp)
  407c38:	8c430008 	lw	v1,8(v0)
  407c3c:	9042000c 	lbu	v0,12(v0)
  407c40:	afa30050 	sw	v1,80(sp)
  407c44:	10000186 	b	408260 <_init+0x6a6c>
  407c48:	a3a20054 	sb	v0,84(sp)
  407c4c:	8f83801c 	lw	v1,-32740(gp)
  407c50:	00000000 	nop
  407c54:	24631d50 	addiu	v1,v1,7504
  407c58:	90630022 	lbu	v1,34(v1)
  407c5c:	24020002 	li	v0,2
  407c60:	10620007 	beq	v1,v0,407c80 <_init+0x648c>
  407c64:	24020007 	li	v0,7
  407c68:	10620005 	beq	v1,v0,407c80 <_init+0x648c>
  407c6c:	24020008 	li	v0,8
  407c70:	10620003 	beq	v1,v0,407c80 <_init+0x648c>
  407c74:	24020004 	li	v0,4
  407c78:	1462004c 	bne	v1,v0,407dac <_init+0x65b8>
  407c7c:	24020002 	li	v0,2
  407c80:	27b00218 	addiu	s0,sp,536
  407c84:	02002021 	move	a0,s0
  407c88:	00002821 	move	a1,zero
  407c8c:	2406000c 	li	a2,12
  407c90:	8f998090 	lw	t9,-32624(gp) <memset>
  407c94:	00000000 	nop
  407c98:	0320f809 	jalr	t9
  407c9c:	00000000 	nop
  407ca0:	8fbc0018 	lw	gp,24(sp)
  407ca4:	00000000 	nop
  407ca8:	8f848020 	lw	a0,-32736(gp)
  407cac:	00000000 	nop
  407cb0:	24844464 	addiu	a0,a0,17508		# "/sip/chksum.bin"
  407cb4:	8f858020 	lw	a1,-32736(gp)
  407cb8:	00000000 	nop
  407cbc:	24a53704 	addiu	a1,a1,14084
  407cc0:	8f99813c 	lw	t9,-32452(gp) <fopen>
  407cc4:	00000000 	nop
  407cc8:	0320f809 	jalr	t9
  407ccc:	00000000 	nop
  407cd0:	8fbc0018 	lw	gp,24(sp)
  407cd4:	02002021 	move	a0,s0
  407cd8:	8f858020 	lw	a1,-32736(gp)
  407cdc:	00000000 	nop
  407ce0:	24a54474 	addiu	a1,a1,17524		# "0x%08X"
  407ce4:	8f86801c 	lw	a2,-32740(gp)
  407ce8:	00000000 	nop
  407cec:	24c61d50 	addiu	a2,a2,7504
  407cf0:	8cc6001c 	lw	a2,28(a2)
  407cf4:	00408821 	move	s1,v0
  407cf8:	8f998060 	lw	t9,-32672(gp) <sprintf>
  407cfc:	00000000 	nop
  407d00:	0320f809 	jalr	t9
  407d04:	00000000 	nop
  407d08:	8fbc0018 	lw	gp,24(sp)
  407d0c:	02002021 	move	a0,s0
  407d10:	8f998144 	lw	t9,-32444(gp) <strlen>
  407d14:	00000000 	nop
  407d18:	0320f809 	jalr	t9
  407d1c:	00000000 	nop
  407d20:	8fbc0018 	lw	gp,24(sp)
  407d24:	02002021 	move	a0,s0
  407d28:	24050001 	li	a1,1
  407d2c:	00403021 	move	a2,v0
  407d30:	02203821 	move	a3,s1
  407d34:	8f99805c 	lw	t9,-32676(gp) <fwrite>
  407d38:	00000000 	nop
  407d3c:	0320f809 	jalr	t9
  407d40:	00000000 	nop
  407d44:	8fbc0018 	lw	gp,24(sp)
  407d48:	02202021 	move	a0,s1
  407d4c:	8f998130 	lw	t9,-32464(gp) <fclose>
  407d50:	00000000 	nop
  407d54:	0320f809 	jalr	t9
  407d58:	00000000 	nop
  407d5c:	8fbc0018 	lw	gp,24(sp)
  407d60:	00000000 	nop
  407d64:	8f85801c 	lw	a1,-32740(gp)
  407d68:	00000000 	nop
  407d6c:	24a51d50 	addiu	a1,a1,7504
  407d70:	8ca5001c 	lw	a1,28(a1)
  407d74:	8f848020 	lw	a0,-32736(gp)
  407d78:	00000000 	nop
  407d7c:	2484447c 	addiu	a0,a0,17532		# "!6 Write checksum : 0x%08x"
  407d80:	8f998100 	lw	t9,-32512(gp) <printf>
  407d84:	00000000 	nop
  407d88:	0320f809 	jalr	t9
  407d8c:	00000000 	nop
  407d90:	8fbc0018 	lw	gp,24(sp)
  407d94:	00000000 	nop
  407d98:	8f83801c 	lw	v1,-32740(gp)
  407d9c:	00000000 	nop
  407da0:	24631d50 	addiu	v1,v1,7504
  407da4:	90630022 	lbu	v1,34(v1)
  407da8:	24020002 	li	v0,2
  407dac:	1062000d 	beq	v1,v0,407de4 <_init+0x65f0>
  407db0:	24020007 	li	v0,7
  407db4:	1062000b 	beq	v1,v0,407de4 <_init+0x65f0>
  407db8:	24020008 	li	v0,8
  407dbc:	10620009 	beq	v1,v0,407de4 <_init+0x65f0>
  407dc0:	24020004 	li	v0,4
  407dc4:	10620007 	beq	v1,v0,407de4 <_init+0x65f0>
  407dc8:	24020009 	li	v0,9
  407dcc:	10620005 	beq	v1,v0,407de4 <_init+0x65f0>
  407dd0:	2402000d 	li	v0,13
  407dd4:	10620003 	beq	v1,v0,407de4 <_init+0x65f0>
  407dd8:	2402000e 	li	v0,14
  407ddc:	14620044 	bne	v1,v0,407ef0 <_init+0x66fc>
  407de0:	00000000 	nop
  407de4:	8f84801c 	lw	a0,-32740(gp)
  407de8:	00000000 	nop
  407dec:	24841d54 	addiu	a0,a0,7508
  407df0:	24910020 	addiu	s1,a0,32
  407df4:	02202021 	move	a0,s1
  407df8:	8f858020 	lw	a1,-32736(gp)
  407dfc:	00000000 	nop
  407e00:	24a54498 	addiu	a1,a1,17560		# "ACT_MANUFACTORY"
  407e04:	8f998148 	lw	t9,-32440(gp) <strstr>
  407e08:	00000000 	nop
  407e0c:	0320f809 	jalr	t9
  407e10:	00000000 	nop
  407e14:	8fbc0018 	lw	gp,24(sp)
  407e18:	14400035 	bnez	v0,407ef0 <_init+0x66fc>
  407e1c:	24020002 	li	v0,2
  407e20:	8f83801c 	lw	v1,-32740(gp)
  407e24:	00000000 	nop
  407e28:	24631d50 	addiu	v1,v1,7504
  407e2c:	90630022 	lbu	v1,34(v1)
  407e30:	00000000 	nop
  407e34:	14620024 	bne	v1,v0,407ec8 <_init+0x66d4>
  407e38:	02202021 	move	a0,s1
  407e3c:	8f83801c 	lw	v1,-32740(gp)
  407e40:	00000000 	nop
  407e44:	24631d50 	addiu	v1,v1,7504
  407e48:	8c630010 	lw	v1,16(v1)
  407e4c:	3c02003c 	lui	v0,0x3c
  407e50:	1462001d 	bne	v1,v0,407ec8 <_init+0x66d4>
  407e54:	27b00228 	addiu	s0,sp,552
  407e58:	02002021 	move	a0,s0
  407e5c:	8f858020 	lw	a1,-32736(gp)
  407e60:	00000000 	nop
  407e64:	24a544a8 	addiu	a1,a1,17576		# "ACT_Image_SD_%s"
  407e68:	8f868020 	lw	a2,-32736(gp)
  407e6c:	00000000 	nop
  407e70:	24c644b8 	addiu	a2,a2,17592		# "P125_MSFT"
  407e74:	8f998060 	lw	t9,-32672(gp) <sprintf>
  407e78:	00000000 	nop
  407e7c:	0320f809 	jalr	t9
  407e80:	00000000 	nop
  407e84:	8fbc0018 	lw	gp,24(sp)
  407e88:	02002021 	move	a0,s0
  407e8c:	8f998144 	lw	t9,-32444(gp) <strlen>
  407e90:	00000000 	nop
  407e94:	0320f809 	jalr	t9
  407e98:	00000000 	nop
  407e9c:	8fbc0018 	lw	gp,24(sp)
  407ea0:	02202021 	move	a0,s1
  407ea4:	02002821 	move	a1,s0
  407ea8:	00403021 	move	a2,v0
  407eac:	8f998124 	lw	t9,-32476(gp) <strncmp>
  407eb0:	00000000 	nop
  407eb4:	0320f809 	jalr	t9
  407eb8:	00000000 	nop
  407ebc:	8fbc0018 	lw	gp,24(sp)
  407ec0:	1440fdc8 	bnez	v0,4075e4 <_init+0x5df0>
  407ec4:	02202021 	move	a0,s1
  407ec8:	8f858020 	lw	a1,-32736(gp)
  407ecc:	00000000 	nop
  407ed0:	24a544b8 	addiu	a1,a1,17592		# "P125_MSFT"
  407ed4:	8f998148 	lw	t9,-32440(gp) <strstr>
  407ed8:	00000000 	nop
  407edc:	0320f809 	jalr	t9
  407ee0:	00000000 	nop
  407ee4:	8fbc0018 	lw	gp,24(sp)
  407ee8:	1040fdca 	beqz	v0,407614 <_init+0x5e20>
  407eec:	02202821 	move	a1,s1
  407ef0:	8f82807c 	lw	v0,-32644(gp)
  407ef4:	00000000 	nop
  407ef8:	8c420000 	lw	v0,0(v0)
  407efc:	00000000 	nop
  407f00:	14400070 	bnez	v0,4080c4 <_init+0x68d0>
  407f04:	00000000 	nop
  407f08:	8fa202e4 	lw	v0,740(sp)
  407f0c:	00000000 	nop
  407f10:	14400035 	bnez	v0,407fe8 <_init+0x67f4>
  407f14:	3c020002 	lui	v0,0x2
  407f18:	8fa302ec 	lw	v1,748(sp)
  407f1c:	00000000 	nop
  407f20:	14600031 	bnez	v1,407fe8 <_init+0x67f4>
  407f24:	24051550 	li	a1,5456
  407f28:	8f848184 	lw	a0,-32380(gp)
  407f2c:	8f998020 	lw	t9,-32736(gp)
  407f30:	00000000 	nop
  407f34:	273991f4 	addiu	t9,t9,-28172
  407f38:	00000000 	nop
  407f3c:	0320f809 	jalr	t9
  407f40:	00000000 	nop
  407f44:	8fbc0018 	lw	gp,24(sp)
  407f48:	00000000 	nop
  407f4c:	8f83801c 	lw	v1,-32740(gp)
  407f50:	00000000 	nop
  407f54:	24631d50 	addiu	v1,v1,7504
  407f58:	90630022 	lbu	v1,34(v1)
  407f5c:	24020002 	li	v0,2
  407f60:	1062000a 	beq	v1,v0,407f8c <_init+0x6798>
  407f64:	00000000 	nop
  407f68:	24020007 	li	v0,7
  407f6c:	10620007 	beq	v1,v0,407f8c <_init+0x6798>
  407f70:	00000000 	nop
  407f74:	24020008 	li	v0,8
  407f78:	10620004 	beq	v1,v0,407f8c <_init+0x6798>
  407f7c:	00000000 	nop
  407f80:	24020004 	li	v0,4
  407f84:	14620012 	bne	v1,v0,407fd0 <_init+0x67dc>
  407f88:	00000000 	nop
  407f8c:	8f838184 	lw	v1,-32380(gp)
  407f90:	00000000 	nop
  407f94:	24630350 	addiu	v1,v1,848
  407f98:	2464fcb0 	addiu	a0,v1,-848
  407f9c:	24051550 	li	a1,5456
  407fa0:	8c620000 	lw	v0,0(v1)
  407fa4:	00003021 	move	a2,zero
  407fa8:	34420040 	ori	v0,v0,0x40
  407fac:	ac620000 	sw	v0,0(v1)
  407fb0:	8f998020 	lw	t9,-32736(gp)
  407fb4:	00000000 	nop
  407fb8:	273992e4 	addiu	t9,t9,-27932
  407fbc:	00000000 	nop
  407fc0:	0320f809 	jalr	t9
  407fc4:	00000000 	nop
  407fc8:	8fbc0018 	lw	gp,24(sp)
  407fcc:	00000000 	nop
  407fd0:	8f82801c 	lw	v0,-32740(gp)
  407fd4:	00000000 	nop
  407fd8:	24421d50 	addiu	v0,v0,7504
  407fdc:	8c420010 	lw	v0,16(v0)
  407fe0:	00000000 	nop
  407fe4:	24420040 	addiu	v0,v0,64
  407fe8:	8f81801c 	lw	at,-32740(gp)
  407fec:	00000000 	nop
  407ff0:	242101e4 	addiu	at,at,484
  407ff4:	ac220000 	sw	v0,0(at)
  407ff8:	8f85801c 	lw	a1,-32740(gp)
  407ffc:	00000000 	nop
  408000:	24a501e4 	addiu	a1,a1,484
  408004:	8ca50000 	lw	a1,0(a1)
  408008:	8f848020 	lw	a0,-32736(gp)
  40800c:	00000000 	nop
  408010:	248444fc 	addiu	a0,a0,17660		# "tftp_max1 %d"
  408014:	8f998100 	lw	t9,-32512(gp) <printf>
  408018:	00000000 	nop
  40801c:	0320f809 	jalr	t9
  408020:	00000000 	nop
  408024:	8fbc0018 	lw	gp,24(sp)
  408028:	00002021 	move	a0,zero
  40802c:	8f85801c 	lw	a1,-32740(gp)
  408030:	00000000 	nop
  408034:	24a501e4 	addiu	a1,a1,484
  408038:	8ca50000 	lw	a1,0(a1)
  40803c:	24060780 	li	a2,1920
  408040:	8f9981a4 	lw	t9,-32348(gp) <shmget>
  408044:	00000000 	nop
  408048:	0320f809 	jalr	t9
  40804c:	00000000 	nop
  408050:	8fbc0018 	lw	gp,24(sp)
  408054:	00000000 	nop
  408058:	8f8180bc 	lw	at,-32580(gp)
  40805c:	00000000 	nop
  408060:	ac220000 	sw	v0,0(at)
  408064:	0440000e 	bltz	v0,4080a0 <_init+0x68ac>
  408068:	00402021 	move	a0,v0
  40806c:	00002821 	move	a1,zero
  408070:	00003021 	move	a2,zero
  408074:	8f998040 	lw	t9,-32704(gp) <shmat>
  408078:	00000000 	nop
  40807c:	0320f809 	jalr	t9
  408080:	00000000 	nop
  408084:	8fbc0018 	lw	gp,24(sp)
  408088:	00000000 	nop
  40808c:	8f81807c 	lw	at,-32644(gp)
  408090:	00000000 	nop
  408094:	ac220000 	sw	v0,0(at)
  408098:	10000004 	b	4080ac <_init+0x68b8>
  40809c:	00000000 	nop
  4080a0:	8f81807c 	lw	at,-32644(gp)
  4080a4:	00000000 	nop
  4080a8:	ac200000 	sw	zero,0(at)
  4080ac:	8f82807c 	lw	v0,-32644(gp)
  4080b0:	00000000 	nop
  4080b4:	8c420000 	lw	v0,0(v0)
  4080b8:	00000000 	nop
  4080bc:	1040fd70 	beqz	v0,407680 <_init+0x5e8c>
  4080c0:	00000000 	nop
  4080c4:	8f84801c 	lw	a0,-32740(gp)
  4080c8:	00000000 	nop
  4080cc:	24841d54 	addiu	a0,a0,7508
  4080d0:	02402821 	move	a1,s2
  4080d4:	8f998018 	lw	t9,-32744(gp)
  4080d8:	00000000 	nop
  4080dc:	273946dc 	addiu	t9,t9,18140		# 0x4046dc
  4080e0:	00000000 	nop
  4080e4:	0320f809 	jalr	t9
  4080e8:	00000000 	nop
  4080ec:	8fbc0018 	lw	gp,24(sp)
  4080f0:	0440fd71 	bltz	v0,4076b8 <_init+0x5ec4>
  4080f4:	2402ffff 	li	v0,-1
  4080f8:	8f82801c 	lw	v0,-32740(gp)
  4080fc:	00000000 	nop
  408100:	244201e8 	addiu	v0,v0,488
  408104:	8c420000 	lw	v0,0(v0)
  408108:	00000000 	nop
  40810c:	00521021 	addu	v0,v0,s2
  408110:	8f81801c 	lw	at,-32740(gp)
  408114:	00000000 	nop
  408118:	242101e8 	addiu	at,at,488
  40811c:	ac220000 	sw	v0,0(at)
  408120:	8f99826c 	lw	t9,-32148(gp) <sys_currtime>
  408124:	00000000 	nop
  408128:	0320f809 	jalr	t9
  40812c:	00000000 	nop
  408130:	8fbc0018 	lw	gp,24(sp)
  408134:	8fa402ec 	lw	a0,748(sp)
  408138:	8f8181f0 	lw	at,-32272(gp)
  40813c:	00000000 	nop
  408140:	ac220000 	sw	v0,0(at)
  408144:	10800017 	beqz	a0,4081a4 <_init+0x69b0>
  408148:	24020001 	li	v0,1
  40814c:	14820009 	bne	a0,v0,408174 <_init+0x6980>
  408150:	3c020001 	lui	v0,0x1
  408154:	8f85801c 	lw	a1,-32740(gp)
  408158:	00000000 	nop
  40815c:	24a501e8 	addiu	a1,a1,488
  408160:	8ca50000 	lw	a1,0(a1)
  408164:	34429000 	ori	v0,v0,0x9000
  408168:	0045102a 	slt	v0,v0,a1
  40816c:	1440fd6e 	bnez	v0,407728 <_init+0x5f34>
  408170:	00b22821 	addu	a1,a1,s2
  408174:	8fa302ec 	lw	v1,748(sp)
  408178:	24020002 	li	v0,2
  40817c:	14620009 	bne	v1,v0,4081a4 <_init+0x69b0>
  408180:	3402c800 	li	v0,0xc800
  408184:	8f85801c 	lw	a1,-32740(gp)
  408188:	00000000 	nop
  40818c:	24a501e8 	addiu	a1,a1,488
  408190:	8ca50000 	lw	a1,0(a1)
  408194:	00000000 	nop
  408198:	0045102a 	slt	v0,v0,a1
  40819c:	1440fd70 	bnez	v0,407760 <_init+0x5f6c>
  4081a0:	00b22821 	addu	a1,a1,s2
  4081a4:	a2600000 	sb	zero,0(s3)
  4081a8:	24020004 	li	v0,4
  4081ac:	a2620001 	sb	v0,1(s3)
  4081b0:	00141203 	sra	v0,s4,0x8
  4081b4:	a2620002 	sb	v0,2(s3)
  4081b8:	a2740003 	sb	s4,3(s3)
  4081bc:	8f84801c 	lw	a0,-32740(gp)
  4081c0:	00000000 	nop
  4081c4:	248411f8 	addiu	a0,a0,4600
  4081c8:	8c840000 	lw	a0,0(a0)
  4081cc:	02602821 	move	a1,s3
  4081d0:	24060004 	li	a2,4
  4081d4:	02a03821 	move	a3,s5
  4081d8:	8f998264 	lw	t9,-32156(gp) <udp_sendto>
  4081dc:	00000000 	nop
  4081e0:	0320f809 	jalr	t9
  4081e4:	00000000 	nop
  4081e8:	8fbc0018 	lw	gp,24(sp)
  4081ec:	24020200 	li	v0,512
  4081f0:	1642fd74 	bne	s2,v0,4077c4 <_init+0x5fd0>
  4081f4:	26940001 	addiu	s4,s4,1
  4081f8:	8f99826c 	lw	t9,-32148(gp) <sys_currtime>
  4081fc:	00000000 	nop
  408200:	0320f809 	jalr	t9
  408204:	00000000 	nop
  408208:	8fbc0018 	lw	gp,24(sp)
  40820c:	0040b021 	move	s6,v0
  408210:	8f84801c 	lw	a0,-32740(gp)
  408214:	00000000 	nop
  408218:	248411f8 	addiu	a0,a0,4600
  40821c:	8c840000 	lw	a0,0(a0)
  408220:	8f93801c 	lw	s3,-32740(gp)
  408224:	00000000 	nop
  408228:	26731d50 	addiu	s3,s3,7504
  40822c:	00000000 	nop
  408230:	02602821 	move	a1,s3
  408234:	24060240 	li	a2,576
  408238:	27b500e8 	addiu	s5,sp,232
  40823c:	02a03821 	move	a3,s5
  408240:	8f99827c 	lw	t9,-32132(gp) <udp_recvfrom>
  408244:	00000000 	nop
  408248:	0320f809 	jalr	t9
  40824c:	00000000 	nop
  408250:	8fbc0018 	lw	gp,24(sp)
  408254:	00409021 	move	s2,v0
  408258:	1e40fd8b 	bgtz	s2,407888 <_init+0x6094>
  40825c:	02a02021 	move	a0,s5
  408260:	8fa402dc 	lw	a0,732(sp)
  408264:	00000000 	nop
  408268:	0480fbe1 	bltz	a0,4071f0 <_init+0x59fc>
  40826c:	00000000 	nop
  408270:	108003b4 	beqz	a0,409144 <_init+0x7950>
  408274:	24110001 	li	s1,1
  408278:	8f99826c 	lw	t9,-32148(gp) <sys_currtime>
  40827c:	00000000 	nop
  408280:	0320f809 	jalr	t9
  408284:	00000000 	nop
  408288:	8fbc0018 	lw	gp,24(sp)
  40828c:	02c02021 	move	a0,s6
  408290:	00402821 	move	a1,v0
  408294:	8f998160 	lw	t9,-32416(gp) <sys_difftime>
  408298:	00000000 	nop
  40829c:	0320f809 	jalr	t9
  4082a0:	00000000 	nop
  4082a4:	8fbc0018 	lw	gp,24(sp)
  4082a8:	3c031062 	lui	v1,0x1062
  4082ac:	34634dd3 	ori	v1,v1,0x4dd3
  4082b0:	00430019 	multu	v0,v1
  4082b4:	8f908020 	lw	s0,-32736(gp)
  4082b8:	00000000 	nop
  4082bc:	261045ec 	addiu	s0,s0,17900		# "FAIL"
  4082c0:	00001010 	mfhi	v0
  4082c4:	0002b182 	srl	s6,v0,0x6
  4082c8:	8fa202dc 	lw	v0,732(sp)
  4082cc:	8f86801c 	lw	a2,-32740(gp)
  4082d0:	00000000 	nop
  4082d4:	24c601e8 	addiu	a2,a2,488
  4082d8:	8cc60000 	lw	a2,0(a2)
  4082dc:	14510004 	bne	v0,s1,4082f0 <_init+0x6afc>
  4082e0:	02003821 	move	a3,s0
  4082e4:	8f878020 	lw	a3,-32736(gp)
  4082e8:	00000000 	nop
  4082ec:	24e745e8 	addiu	a3,a3,17896
  4082f0:	afb60010 	sw	s6,16(sp)
  4082f4:	8f848020 	lw	a0,-32736(gp)
  4082f8:	00000000 	nop
  4082fc:	248445c0 	addiu	a0,a0,17856		# "!0 TFTP PUT(%s) LEN(%d) %s time(%d)"
  408300:	27a50020 	addiu	a1,sp,32
  408304:	8f998100 	lw	t9,-32512(gp) <printf>
  408308:	00000000 	nop
  40830c:	0320f809 	jalr	t9
  408310:	00000000 	nop
  408314:	8fbc0018 	lw	gp,24(sp)
  408318:	00000000 	nop
  40831c:	8f8181f0 	lw	at,-32272(gp)
  408320:	00000000 	nop
  408324:	ac200000 	sw	zero,0(at)
  408328:	12e0003a 	beqz	s7,408414 <_init+0x6c20>
  40832c:	00000000 	nop
  408330:	8fa302e8 	lw	v1,744(sp)
  408334:	00000000 	nop
  408338:	10600020 	beqz	v1,4083bc <_init+0x6bc8>
  40833c:	00002821 	move	a1,zero
  408340:	8f84807c 	lw	a0,-32644(gp)
  408344:	00000000 	nop
  408348:	8c840000 	lw	a0,0(a0)
  40834c:	8f998018 	lw	t9,-32744(gp)
  408350:	00000000 	nop
  408354:	273969c8 	addiu	t9,t9,27080		# 0x4069c8
  408358:	00000000 	nop
  40835c:	0320f809 	jalr	t9
  408360:	00000000 	nop
  408364:	8fbc0018 	lw	gp,24(sp)
  408368:	184001a3 	blez	v0,4089f8 <_init+0x7204>
  40836c:	00000000 	nop
  408370:	8f8480e8 	lw	a0,-32536(gp)
  408374:	8f858224 	lw	a1,-32220(gp)
  408378:	8f998018 	lw	t9,-32744(gp)
  40837c:	00000000 	nop
  408380:	27392838 	addiu	t9,t9,10296		# 0x402838
  408384:	00000000 	nop
  408388:	0320f809 	jalr	t9
  40838c:	00000000 	nop
  408390:	8fbc0018 	lw	gp,24(sp)
  408394:	00000000 	nop
  408398:	8f998018 	lw	t9,-32744(gp)
  40839c:	00000000 	nop
  4083a0:	273929a0 	addiu	t9,t9,10656		# 0x4029a0
  4083a4:	00000000 	nop
  4083a8:	0320f809 	jalr	t9
  4083ac:	00000000 	nop
  4083b0:	8fbc0018 	lw	gp,24(sp)
  4083b4:	10000190 	b	4089f8 <_init+0x7204>
  4083b8:	00000000 	nop
  4083bc:	8f84807c 	lw	a0,-32644(gp)
  4083c0:	00000000 	nop
  4083c4:	8c840000 	lw	a0,0(a0)
  4083c8:	02e02821 	move	a1,s7
  4083cc:	8f998018 	lw	t9,-32744(gp)
  4083d0:	00000000 	nop
  4083d4:	273969c8 	addiu	t9,t9,27080		# 0x4069c8
  4083d8:	00000000 	nop
  4083dc:	0320f809 	jalr	t9
  4083e0:	00000000 	nop
  4083e4:	8fbc0018 	lw	gp,24(sp)
  4083e8:	18400183 	blez	v0,4089f8 <_init+0x7204>
  4083ec:	24040001 	li	a0,1
  4083f0:	8f998018 	lw	t9,-32744(gp)
  4083f4:	00000000 	nop
  4083f8:	27391e34 	addiu	t9,t9,7732		# 0x401e34
  4083fc:	00000000 	nop
  408400:	0320f809 	jalr	t9
  408404:	00000000 	nop
  408408:	8fbc0018 	lw	gp,24(sp)
  40840c:	1000017a 	b	4089f8 <_init+0x7204>
  408410:	00000000 	nop
  408414:	8fa402ec 	lw	a0,748(sp)
  408418:	00000000 	nop
  40841c:	10800052 	beqz	a0,408568 <_init+0x6d74>
  408420:	00000000 	nop
  408424:	8f848020 	lw	a0,-32736(gp)
  408428:	00000000 	nop
  40842c:	2484432c 	addiu	a0,a0,17196		# "/tmp/new.mp3"
  408430:	8f858020 	lw	a1,-32736(gp)
  408434:	00000000 	nop
  408438:	24a533d4 	addiu	a1,a1,13268
  40843c:	8f99813c 	lw	t9,-32452(gp) <fopen>
  408440:	00000000 	nop
  408444:	0320f809 	jalr	t9
  408448:	00000000 	nop
  40844c:	8fbc0018 	lw	gp,24(sp)
  408450:	24050001 	li	a1,1
  408454:	00408021 	move	s0,v0
  408458:	8f84807c 	lw	a0,-32644(gp)
  40845c:	00000000 	nop
  408460:	8c840000 	lw	a0,0(a0)
  408464:	8f86801c 	lw	a2,-32740(gp)
  408468:	00000000 	nop
  40846c:	24c601e8 	addiu	a2,a2,488
  408470:	8cc60000 	lw	a2,0(a2)
  408474:	02003821 	move	a3,s0
  408478:	8f99805c 	lw	t9,-32676(gp) <fwrite>
  40847c:	00000000 	nop
  408480:	0320f809 	jalr	t9
  408484:	00000000 	nop
  408488:	8fbc0018 	lw	gp,24(sp)
  40848c:	02002021 	move	a0,s0
  408490:	8f998130 	lw	t9,-32464(gp) <fclose>
  408494:	00000000 	nop
  408498:	0320f809 	jalr	t9
  40849c:	00000000 	nop
  4084a0:	8fbc0018 	lw	gp,24(sp)
  4084a4:	00000000 	nop
  4084a8:	8f998038 	lw	t9,-32712(gp) <sync>
  4084ac:	00000000 	nop
  4084b0:	0320f809 	jalr	t9
  4084b4:	00000000 	nop
  4084b8:	8fbc0018 	lw	gp,24(sp)
  4084bc:	00000000 	nop
  4084c0:	8f998038 	lw	t9,-32712(gp) <sync>
  4084c4:	00000000 	nop
  4084c8:	0320f809 	jalr	t9
  4084cc:	00000000 	nop
  4084d0:	8fbc0018 	lw	gp,24(sp)
  4084d4:	00000000 	nop
  4084d8:	8f86801c 	lw	a2,-32740(gp)
  4084dc:	00000000 	nop
  4084e0:	24c601e8 	addiu	a2,a2,488
  4084e4:	8cc60000 	lw	a2,0(a2)
  4084e8:	8fa502ec 	lw	a1,748(sp)
  4084ec:	8f848020 	lw	a0,-32736(gp)
  4084f0:	00000000 	nop
  4084f4:	248445f4 	addiu	a0,a0,17908		# "!6 Write MP3 file %d : %d"
  4084f8:	8f998100 	lw	t9,-32512(gp) <printf>
  4084fc:	00000000 	nop
  408500:	0320f809 	jalr	t9
  408504:	00000000 	nop
  408508:	8fbc0018 	lw	gp,24(sp)
  40850c:	8fa202ec 	lw	v0,748(sp)
  408510:	00000000 	nop
  408514:	1451000b 	bne	v0,s1,408544 <_init+0x6d50>
  408518:	24040006 	li	a0,6
  40851c:	24040005 	li	a0,5
  408520:	8f998018 	lw	t9,-32744(gp)
  408524:	00000000 	nop
  408528:	27391e34 	addiu	t9,t9,7732		# 0x401e34
  40852c:	00000000 	nop
  408530:	0320f809 	jalr	t9
  408534:	00000000 	nop
  408538:	8fbc0018 	lw	gp,24(sp)
  40853c:	1000012e 	b	4089f8 <_init+0x7204>
  408540:	00000000 	nop
  408544:	8f998018 	lw	t9,-32744(gp)
  408548:	00000000 	nop
  40854c:	27391e34 	addiu	t9,t9,7732		# 0x401e34
  408550:	00000000 	nop
  408554:	0320f809 	jalr	t9
  408558:	00000000 	nop
  40855c:	8fbc0018 	lw	gp,24(sp)
  408560:	10000125 	b	4089f8 <_init+0x7204>
  408564:	00000000 	nop
  408568:	8fa302e4 	lw	v1,740(sp)
  40856c:	00000000 	nop
  408570:	14600024 	bnez	v1,408604 <_init+0x6e10>
  408574:	00000000 	nop
  408578:	8f84807c 	lw	a0,-32644(gp)
  40857c:	00000000 	nop
  408580:	8c840000 	lw	a0,0(a0)
  408584:	8f998018 	lw	t9,-32744(gp)
  408588:	00000000 	nop
  40858c:	27395cf4 	addiu	t9,t9,23796		# 0x405cf4 has corrupted data
  408590:	00000000 	nop
  408594:	0320f809 	jalr	t9
  408598:	00000000 	nop
  40859c:	8fbc0018 	lw	gp,24(sp)
  4085a0:	02002821 	move	a1,s0
  4085a4:	18400004 	blez	v0,4085b8 <_init+0x6dc4>
  4085a8:	afa202e0 	sw	v0,736(sp)
  4085ac:	8f858020 	lw	a1,-32736(gp)
  4085b0:	00000000 	nop
  4085b4:	24a545e8 	addiu	a1,a1,17896
  4085b8:	8f848020 	lw	a0,-32736(gp)
  4085bc:	00000000 	nop
  4085c0:	24844610 	addiu	a0,a0,17936		# "VerifyImage(%s)"
  4085c4:	8f998100 	lw	t9,-32512(gp) <printf>
  4085c8:	00000000 	nop
  4085cc:	0320f809 	jalr	t9
  4085d0:	00000000 	nop
  4085d4:	8fbc0018 	lw	gp,24(sp)
  4085d8:	8fa402e0 	lw	a0,736(sp)
  4085dc:	00000000 	nop
  4085e0:	1880000c 	blez	a0,408614 <_init+0x6e20>
  4085e4:	00000000 	nop
  4085e8:	8f998018 	lw	t9,-32744(gp)
  4085ec:	00000000 	nop
  4085f0:	27393990 	addiu	t9,t9,14736		# 0x403990
  4085f4:	00000000 	nop
  4085f8:	0320f809 	jalr	t9
  4085fc:	00000000 	nop
  408600:	8fbc0018 	lw	gp,24(sp)
  408604:	8fa202e0 	lw	v0,736(sp)
  408608:	00000000 	nop
  40860c:	1c400005 	bgtz	v0,408624 <_init+0x6e30>
  408610:	00000000 	nop
  408614:	8fa302e4 	lw	v1,740(sp)
  408618:	00000000 	nop
  40861c:	106000f6 	beqz	v1,4089f8 <_init+0x7204>
  408620:	00000000 	nop
  408624:	8fa402e4 	lw	a0,740(sp)
  408628:	00000000 	nop
  40862c:	1080009d 	beqz	a0,4088a4 <_init+0x70b0>
  408630:	00002021 	move	a0,zero
  408634:	13c0004e 	beqz	s8,408770 <_init+0x6f7c>
  408638:	24040003 	li	a0,3
  40863c:	8f858020 	lw	a1,-32736(gp)
  408640:	00000000 	nop
  408644:	24a54624 	addiu	a1,a1,17956		# "/tmp/mp3.cfg"
  408648:	27a60248 	addiu	a2,sp,584
  40864c:	8f998194 	lw	t9,-32364(gp) <__xstat>
  408650:	00000000 	nop
  408654:	0320f809 	jalr	t9
  408658:	00000000 	nop
  40865c:	8fbc0018 	lw	gp,24(sp)
  408660:	2403ffff 	li	v1,-1
  408664:	14430038 	bne	v0,v1,408748 <_init+0x6f54>
  408668:	0000f021 	move	s8,zero
  40866c:	8f848020 	lw	a0,-32736(gp)
  408670:	00000000 	nop
  408674:	24844624 	addiu	a0,a0,17956		# "/tmp/mp3.cfg"
  408678:	8f858020 	lw	a1,-32736(gp)
  40867c:	00000000 	nop
  408680:	24a533d4 	addiu	a1,a1,13268
  408684:	8f99813c 	lw	t9,-32452(gp) <fopen>
  408688:	00000000 	nop
  40868c:	0320f809 	jalr	t9
  408690:	00000000 	nop
  408694:	8fbc0018 	lw	gp,24(sp)
  408698:	00408021 	move	s0,v0
  40869c:	24050001 	li	a1,1
  4086a0:	8f84807c 	lw	a0,-32644(gp)
  4086a4:	00000000 	nop
  4086a8:	8c840000 	lw	a0,0(a0)
  4086ac:	8f86801c 	lw	a2,-32740(gp)
  4086b0:	00000000 	nop
  4086b4:	24c601e8 	addiu	a2,a2,488
  4086b8:	8cc60000 	lw	a2,0(a2)
  4086bc:	02003821 	move	a3,s0
  4086c0:	8f99805c 	lw	t9,-32676(gp) <fwrite>
  4086c4:	00000000 	nop
  4086c8:	0320f809 	jalr	t9
  4086cc:	00000000 	nop
  4086d0:	8fbc0018 	lw	gp,24(sp)
  4086d4:	02002021 	move	a0,s0
  4086d8:	8f998130 	lw	t9,-32464(gp) <fclose>
  4086dc:	00000000 	nop
  4086e0:	0320f809 	jalr	t9
  4086e4:	00000000 	nop
  4086e8:	8fbc0018 	lw	gp,24(sp)
  4086ec:	00000000 	nop
  4086f0:	8f85801c 	lw	a1,-32740(gp)
  4086f4:	00000000 	nop
  4086f8:	24a501e8 	addiu	a1,a1,488
  4086fc:	8ca50000 	lw	a1,0(a1)
  408700:	8f848020 	lw	a0,-32736(gp)
  408704:	00000000 	nop
  408708:	24844634 	addiu	a0,a0,17972		# "!6 Write mp3.cfg : %d"
  40870c:	8f998100 	lw	t9,-32512(gp) <printf>
  408710:	00000000 	nop
  408714:	0320f809 	jalr	t9
  408718:	00000000 	nop
  40871c:	8fbc0018 	lw	gp,24(sp)
  408720:	24040008 	li	a0,8
  408724:	8f998018 	lw	t9,-32744(gp)
  408728:	00000000 	nop
  40872c:	27391e34 	addiu	t9,t9,7732		# 0x401e34
  408730:	00000000 	nop
  408734:	0320f809 	jalr	t9
  408738:	00000000 	nop
  40873c:	8fbc0018 	lw	gp,24(sp)
  408740:	100000ad 	b	4089f8 <_init+0x7204>
  408744:	00000000 	nop
  408748:	8f848020 	lw	a0,-32736(gp)
  40874c:	00000000 	nop
  408750:	2484464c 	addiu	a0,a0,17996		# "!6 previous mp3.cfg not be processed yet!"
  408754:	8f998100 	lw	t9,-32512(gp) <printf>
  408758:	00000000 	nop
  40875c:	0320f809 	jalr	t9
  408760:	00000000 	nop
  408764:	8fbc0018 	lw	gp,24(sp)
  408768:	100000a3 	b	4089f8 <_init+0x7204>
  40876c:	00000000 	nop
  408770:	8f858020 	lw	a1,-32736(gp)
  408774:	00000000 	nop
  408778:	24a54678 	addiu	a1,a1,18040		# "/tmp/config.cfg"
  40877c:	27a60248 	addiu	a2,sp,584
  408780:	8f998194 	lw	t9,-32364(gp) <__xstat>
  408784:	00000000 	nop
  408788:	0320f809 	jalr	t9
  40878c:	00000000 	nop
  408790:	8fbc0018 	lw	gp,24(sp)
  408794:	2403ffff 	li	v1,-1
  408798:	14430038 	bne	v0,v1,40887c <_init+0x7088>
  40879c:	00000000 	nop
  4087a0:	8f848020 	lw	a0,-32736(gp)
  4087a4:	00000000 	nop
  4087a8:	24844678 	addiu	a0,a0,18040		# "/tmp/config.cfg"
  4087ac:	8f858020 	lw	a1,-32736(gp)
  4087b0:	00000000 	nop
  4087b4:	24a533d4 	addiu	a1,a1,13268
  4087b8:	8f99813c 	lw	t9,-32452(gp) <fopen>
  4087bc:	00000000 	nop
  4087c0:	0320f809 	jalr	t9
  4087c4:	00000000 	nop
  4087c8:	8fbc0018 	lw	gp,24(sp)
  4087cc:	00408021 	move	s0,v0
  4087d0:	24050001 	li	a1,1
  4087d4:	8f84807c 	lw	a0,-32644(gp)
  4087d8:	00000000 	nop
  4087dc:	8c840000 	lw	a0,0(a0)
  4087e0:	8f86801c 	lw	a2,-32740(gp)
  4087e4:	00000000 	nop
  4087e8:	24c601e8 	addiu	a2,a2,488
  4087ec:	8cc60000 	lw	a2,0(a2)
  4087f0:	02003821 	move	a3,s0
  4087f4:	8f99805c 	lw	t9,-32676(gp) <fwrite>
  4087f8:	00000000 	nop
  4087fc:	0320f809 	jalr	t9
  408800:	00000000 	nop
  408804:	8fbc0018 	lw	gp,24(sp)
  408808:	02002021 	move	a0,s0
  40880c:	8f998130 	lw	t9,-32464(gp) <fclose>
  408810:	00000000 	nop
  408814:	0320f809 	jalr	t9
  408818:	00000000 	nop
  40881c:	8fbc0018 	lw	gp,24(sp)
  408820:	00000000 	nop
  408824:	8f85801c 	lw	a1,-32740(gp)
  408828:	00000000 	nop
  40882c:	24a501e8 	addiu	a1,a1,488
  408830:	8ca50000 	lw	a1,0(a1)
  408834:	8f848020 	lw	a0,-32736(gp)
  408838:	00000000 	nop
  40883c:	24844688 	addiu	a0,a0,18056		# "!6 Write Config.cfg : %d"
  408840:	8f998100 	lw	t9,-32512(gp) <printf>
  408844:	00000000 	nop
  408848:	0320f809 	jalr	t9
  40884c:	00000000 	nop
  408850:	8fbc0018 	lw	gp,24(sp)
  408854:	24040003 	li	a0,3
  408858:	8f998018 	lw	t9,-32744(gp)
  40885c:	00000000 	nop
  408860:	27391e34 	addiu	t9,t9,7732		# 0x401e34
  408864:	00000000 	nop
  408868:	0320f809 	jalr	t9
  40886c:	00000000 	nop
  408870:	8fbc0018 	lw	gp,24(sp)
  408874:	10000060 	b	4089f8 <_init+0x7204>
  408878:	00000000 	nop
  40887c:	8f848020 	lw	a0,-32736(gp)
  408880:	00000000 	nop
  408884:	248446a4 	addiu	a0,a0,18084		# "!6 already config file here!!"
  408888:	8f998100 	lw	t9,-32512(gp) <printf>
  40888c:	00000000 	nop
  408890:	0320f809 	jalr	t9
  408894:	00000000 	nop
  408898:	8fbc0018 	lw	gp,24(sp)
  40889c:	10000056 	b	4089f8 <_init+0x7204>
  4088a0:	00000000 	nop
  4088a4:	8f998018 	lw	t9,-32744(gp)
  4088a8:	00000000 	nop
  4088ac:	27391e34 	addiu	t9,t9,7732		# 0x401e34
  4088b0:	00000000 	nop
  4088b4:	0320f809 	jalr	t9
  4088b8:	00000000 	nop
  4088bc:	8fbc0018 	lw	gp,24(sp)
  4088c0:	00000000 	nop
  4088c4:	8f848020 	lw	a0,-32736(gp)
  4088c8:	00000000 	nop
  4088cc:	248446c4 	addiu	a0,a0,18116		# "rmmod sdvepvoip;rmmod sdvepfxs;"
  4088d0:	8f9981ec 	lw	t9,-32276(gp) <system>
  4088d4:	00000000 	nop
  4088d8:	0320f809 	jalr	t9
  4088dc:	00000000 	nop
  4088e0:	8fbc0018 	lw	gp,24(sp)
  4088e4:	00000000 	nop
  4088e8:	8f998020 	lw	t9,-32736(gp)
  4088ec:	00000000 	nop
  4088f0:	27399b0c 	addiu	t9,t9,-25844
  4088f4:	00000000 	nop
  4088f8:	0320f809 	jalr	t9
  4088fc:	00000000 	nop
  408900:	8fbc0018 	lw	gp,24(sp)
  408904:	04410009 	bgez	v0,40892c <_init+0x7138>
  408908:	00000000 	nop
  40890c:	8f998020 	lw	t9,-32736(gp)
  408910:	00000000 	nop
  408914:	27399d44 	addiu	t9,t9,-25276
  408918:	00000000 	nop
  40891c:	0320f809 	jalr	t9
  408920:	00000000 	nop
  408924:	8fbc0018 	lw	gp,24(sp)
  408928:	00000000 	nop
  40892c:	8f998240 	lw	t9,-32192(gp) <LCDInit>
  408930:	00000000 	nop
  408934:	0320f809 	jalr	t9
  408938:	00000000 	nop
  40893c:	8fbc0018 	lw	gp,24(sp)
  408940:	00000000 	nop
  408944:	8f83801c 	lw	v1,-32740(gp)
  408948:	00000000 	nop
  40894c:	246301e0 	addiu	v1,v1,480
  408950:	8c630000 	lw	v1,0(v1)
  408954:	24020001 	li	v0,1
  408958:	10620017 	beq	v1,v0,4089b8 <_init+0x71c4>
  40895c:	00000000 	nop
  408960:	8f9981b8 	lw	t9,-32328(gp) <FontFin>
  408964:	00000000 	nop
  408968:	0320f809 	jalr	t9
  40896c:	00000000 	nop
  408970:	8fbc0018 	lw	gp,24(sp)
  408974:	00000000 	nop
  408978:	8f8481a8 	lw	a0,-32344(gp)
  40897c:	8f9981fc 	lw	t9,-32260(gp) <GetBtldBootLanguage>
  408980:	00000000 	nop
  408984:	0320f809 	jalr	t9
  408988:	00000000 	nop
  40898c:	8fbc0018 	lw	gp,24(sp)
  408990:	00000000 	nop
  408994:	8f8481a8 	lw	a0,-32344(gp)
  408998:	00000000 	nop
  40899c:	8c840000 	lw	a0,0(a0)
  4089a0:	8f99803c 	lw	t9,-32708(gp) <FontInit>
  4089a4:	00000000 	nop
  4089a8:	0320f809 	jalr	t9
  4089ac:	00000000 	nop
  4089b0:	8fbc0018 	lw	gp,24(sp)
  4089b4:	00000000 	nop
  4089b8:	8f84807c 	lw	a0,-32644(gp)
  4089bc:	00000000 	nop
  4089c0:	8c840000 	lw	a0,0(a0)
  4089c4:	8f85801c 	lw	a1,-32740(gp)
  4089c8:	00000000 	nop
  4089cc:	24a501e8 	addiu	a1,a1,488
  4089d0:	8ca50000 	lw	a1,0(a1)
  4089d4:	24060001 	li	a2,1
  4089d8:	8f998018 	lw	t9,-32744(gp)
  4089dc:	00000000 	nop
  4089e0:	273961d4 	addiu	t9,t9,25044		# 0x4061d4
  4089e4:	00000000 	nop
  4089e8:	0320f809 	jalr	t9
  4089ec:	00000000 	nop
  4089f0:	8fbc0018 	lw	gp,24(sp)
  4089f4:	00000000 	nop
  4089f8:	8f84807c 	lw	a0,-32644(gp)
  4089fc:	00000000 	nop
  408a00:	8c840000 	lw	a0,0(a0)
  408a04:	00000000 	nop
  408a08:	1080f955 	beqz	a0,406f60 <_init+0x576c>
  408a0c:	00000000 	nop
  408a10:	8f998114 	lw	t9,-32492(gp) <shmdt>
  408a14:	00000000 	nop
  408a18:	0320f809 	jalr	t9
  408a1c:	00000000 	nop
  408a20:	8fbc0018 	lw	gp,24(sp)
  408a24:	00000000 	nop
  408a28:	8f81807c 	lw	at,-32644(gp)
  408a2c:	00000000 	nop
  408a30:	ac200000 	sw	zero,0(at)
  408a34:	8f8480bc 	lw	a0,-32580(gp)
  408a38:	00000000 	nop
  408a3c:	8c840000 	lw	a0,0(a0)
  408a40:	00002821 	move	a1,zero
  408a44:	00003021 	move	a2,zero
  408a48:	8f9980e0 	lw	t9,-32544(gp) <shmctl>
  408a4c:	00000000 	nop
  408a50:	0320f809 	jalr	t9
  408a54:	00000000 	nop
  408a58:	8fbc0018 	lw	gp,24(sp)
  408a5c:	1000f927 	b	406efc <_init+0x5708>
  408a60:	00000000 	nop
  408a64:	8f858020 	lw	a1,-32736(gp)
  408a68:	00000000 	nop
  408a6c:	24a546e4 	addiu	a1,a1,18148		# "readflash.###"
  408a70:	8f9981f4 	lw	t9,-32268(gp) <my_stricmp>
  408a74:	00000000 	nop
  408a78:	0320f809 	jalr	t9
  408a7c:	00000000 	nop
  408a80:	8fbc0018 	lw	gp,24(sp)
  408a84:	14400028 	bnez	v0,408b28 <_init+0x7334>
  408a88:	27a40020 	addiu	a0,sp,32
  408a8c:	8f848020 	lw	a0,-32736(gp)
  408a90:	00000000 	nop
  408a94:	248446f4 	addiu	a0,a0,18164		# "!1 TFTP Read Flash"
  408a98:	8f998100 	lw	t9,-32512(gp) <printf>
  408a9c:	00000000 	nop
  408aa0:	0320f809 	jalr	t9
  408aa4:	00000000 	nop
  408aa8:	8fbc0018 	lw	gp,24(sp)
  408aac:	00000000 	nop
  408ab0:	8f998018 	lw	t9,-32744(gp)
  408ab4:	00000000 	nop
  408ab8:	2739420c 	addiu	t9,t9,16908		# 0x40420c
  408abc:	00000000 	nop
  408ac0:	0320f809 	jalr	t9
  408ac4:	00000000 	nop
  408ac8:	8fbc0018 	lw	gp,24(sp)
  408acc:	04410011 	bgez	v0,408b14 <_init+0x7320>
  408ad0:	00000000 	nop
  408ad4:	8f838020 	lw	v1,-32736(gp)
  408ad8:	00000000 	nop
  408adc:	24634708 	addiu	v1,v1,18184		# "Flash Read Fail!!"
  408ae0:	00000000 	nop
  408ae4:	8c620000 	lw	v0,0(v1)
  408ae8:	00000000 	nop
  408aec:	afa20048 	sw	v0,72(sp)
  408af0:	8c620004 	lw	v0,4(v1)
  408af4:	8c640008 	lw	a0,8(v1)
  408af8:	afa2004c 	sw	v0,76(sp)
  408afc:	afa40050 	sw	a0,80(sp)
  408b00:	8c62000c 	lw	v0,12(v1)
  408b04:	94630010 	lhu	v1,16(v1)
  408b08:	afa20054 	sw	v0,84(sp)
  408b0c:	1000f9b8 	b	4071f0 <_init+0x59fc>
  408b10:	a7a30058 	sh	v1,88(sp)
  408b14:	8f828020 	lw	v0,-32736(gp)
  408b18:	00000000 	nop
  408b1c:	2442471c 	addiu	v0,v0,18204		# "Flash Read OK!!"
  408b20:	1000f9ab 	b	4071d0 <_init+0x59dc>
  408b24:	00000000 	nop
  408b28:	8f858020 	lw	a1,-32736(gp)
  408b2c:	00000000 	nop
  408b30:	24a5472c 	addiu	a1,a1,18220		# "getmp3cfg.###"
  408b34:	8f9981f4 	lw	t9,-32268(gp) <my_stricmp>
  408b38:	00000000 	nop
  408b3c:	0320f809 	jalr	t9
  408b40:	00000000 	nop
  408b44:	8fbc0018 	lw	gp,24(sp)
  408b48:	14400049 	bnez	v0,408c70 <_init+0x747c>
  408b4c:	0000f021 	move	s8,zero
  408b50:	8f848020 	lw	a0,-32736(gp)
  408b54:	00000000 	nop
  408b58:	2484473c 	addiu	a0,a0,18236		# "!1 TFTP Read mp3.cfg"
  408b5c:	8f998100 	lw	t9,-32512(gp) <printf>
  408b60:	00000000 	nop
  408b64:	0320f809 	jalr	t9
  408b68:	00000000 	nop
  408b6c:	8fbc0018 	lw	gp,24(sp)
  408b70:	24022800 	li	v0,10240
  408b74:	8f81801c 	lw	at,-32740(gp)
  408b78:	00000000 	nop
  408b7c:	242101e4 	addiu	at,at,484
  408b80:	ac220000 	sw	v0,0(at)
  408b84:	24042800 	li	a0,10240
  408b88:	8f998138 	lw	t9,-32456(gp) <my_malloc>
  408b8c:	00000000 	nop
  408b90:	0320f809 	jalr	t9
  408b94:	00000000 	nop
  408b98:	8fbc0018 	lw	gp,24(sp)
  408b9c:	00000000 	nop
  408ba0:	8f81807c 	lw	at,-32644(gp)
  408ba4:	00000000 	nop
  408ba8:	ac220000 	sw	v0,0(at)
  408bac:	8f848020 	lw	a0,-32736(gp)
  408bb0:	00000000 	nop
  408bb4:	24844754 	addiu	a0,a0,18260		# "/sip/mp3.cfg"
  408bb8:	8f998018 	lw	t9,-32744(gp)
  408bbc:	00000000 	nop
  408bc0:	27394448 	addiu	t9,t9,17480		# 0x404448
  408bc4:	00000000 	nop
  408bc8:	0320f809 	jalr	t9
  408bcc:	00000000 	nop
  408bd0:	8fbc0018 	lw	gp,24(sp)
  408bd4:	04410021 	bgez	v0,408c5c <_init+0x7468>
  408bd8:	00000000 	nop
  408bdc:	8f828020 	lw	v0,-32736(gp)
  408be0:	00000000 	nop
  408be4:	24424708 	addiu	v0,v0,18184		# "Flash Read Fail!!"
  408be8:	00000000 	nop
  408bec:	8c430000 	lw	v1,0(v0)
  408bf0:	8f84807c 	lw	a0,-32644(gp)
  408bf4:	00000000 	nop
  408bf8:	8c840000 	lw	a0,0(a0)
  408bfc:	afa30048 	sw	v1,72(sp)
  408c00:	8c430004 	lw	v1,4(v0)
  408c04:	8c450008 	lw	a1,8(v0)
  408c08:	afa3004c 	sw	v1,76(sp)
  408c0c:	afa50050 	sw	a1,80(sp)
  408c10:	8c43000c 	lw	v1,12(v0)
  408c14:	94420010 	lhu	v0,16(v0)
  408c18:	afa30054 	sw	v1,84(sp)
  408c1c:	a7a20058 	sh	v0,88(sp)
  408c20:	8f9981b4 	lw	t9,-32332(gp) <my_free>
  408c24:	00000000 	nop
  408c28:	0320f809 	jalr	t9
  408c2c:	00000000 	nop
  408c30:	8fbc0018 	lw	gp,24(sp)
  408c34:	00000000 	nop
  408c38:	8f81807c 	lw	at,-32644(gp)
  408c3c:	00000000 	nop
  408c40:	ac200000 	sw	zero,0(at)
  408c44:	8f81801c 	lw	at,-32740(gp)
  408c48:	00000000 	nop
  408c4c:	242101e4 	addiu	at,at,484
  408c50:	ac200000 	sw	zero,0(at)
  408c54:	1000f966 	b	4071f0 <_init+0x59fc>
  408c58:	00000000 	nop
  408c5c:	8f81801c 	lw	at,-32740(gp)
  408c60:	00000000 	nop
  408c64:	242101e4 	addiu	at,at,484
  408c68:	ac200000 	sw	zero,0(at)
  408c6c:	241e0001 	li	s8,1
  408c70:	17c0004c 	bnez	s8,408da4 <_init+0x75b0>
  408c74:	24140001 	li	s4,1
  408c78:	27a40020 	addiu	a0,sp,32
  408c7c:	8f858020 	lw	a1,-32736(gp)
  408c80:	00000000 	nop
  408c84:	24a54764 	addiu	a1,a1,18276		# "getflash.###"
  408c88:	8f9981f4 	lw	t9,-32268(gp) <my_stricmp>
  408c8c:	00000000 	nop
  408c90:	0320f809 	jalr	t9
  408c94:	00000000 	nop
  408c98:	8fbc0018 	lw	gp,24(sp)
  408c9c:	10400017 	beqz	v0,408cfc <_init+0x7508>
  408ca0:	27a50020 	addiu	a1,sp,32
  408ca4:	8f848020 	lw	a0,-32736(gp)
  408ca8:	00000000 	nop
  408cac:	248442e0 	addiu	a0,a0,17120		# "!1 TFTP Invalid file(%s)"
  408cb0:	8f998100 	lw	t9,-32512(gp) <printf>
  408cb4:	00000000 	nop
  408cb8:	0320f809 	jalr	t9
  408cbc:	00000000 	nop
  408cc0:	8fbc0018 	lw	gp,24(sp)
  408cc4:	00000000 	nop
  408cc8:	8f828020 	lw	v0,-32736(gp)
  408ccc:	00000000 	nop
  408cd0:	244242fc 	addiu	v0,v0,17148		# "Invalid file"
  408cd4:	00000000 	nop
  408cd8:	8c430000 	lw	v1,0(v0)
  408cdc:	8c440004 	lw	a0,4(v0)
  408ce0:	afa30048 	sw	v1,72(sp)
  408ce4:	afa4004c 	sw	a0,76(sp)
  408ce8:	8c430008 	lw	v1,8(v0)
  408cec:	9042000c 	lbu	v0,12(v0)
  408cf0:	afa30050 	sw	v1,80(sp)
  408cf4:	1000f93e 	b	4071f0 <_init+0x59fc>
  408cf8:	a3a20054 	sb	v0,84(sp)
  408cfc:	8f82801c 	lw	v0,-32740(gp)
  408d00:	00000000 	nop
  408d04:	244201f4 	addiu	v0,v0,500
  408d08:	8c420000 	lw	v0,0(v0)
  408d0c:	00000000 	nop
  408d10:	14400021 	bnez	v0,408d98 <_init+0x75a4>
  408d14:	24140001 	li	s4,1
  408d18:	8f848020 	lw	a0,-32736(gp)
  408d1c:	00000000 	nop
  408d20:	24844774 	addiu	a0,a0,18292		# "!1 TFTP tftp_getdata null(%s)"
  408d24:	27a50020 	addiu	a1,sp,32
  408d28:	8f998100 	lw	t9,-32512(gp) <printf>
  408d2c:	00000000 	nop
  408d30:	0320f809 	jalr	t9
  408d34:	00000000 	nop
  408d38:	8fbc0018 	lw	gp,24(sp)
  408d3c:	00000000 	nop
  408d40:	8f828020 	lw	v0,-32736(gp)
  408d44:	00000000 	nop
  408d48:	24424794 	addiu	v0,v0,18324		# "data null"
  408d4c:	00000000 	nop
  408d50:	8c430000 	lw	v1,0(v0)
  408d54:	00000000 	nop
  408d58:	afa30048 	sw	v1,72(sp)
  408d5c:	8c430004 	lw	v1,4(v0)
  408d60:	94420008 	lhu	v0,8(v0)
  408d64:	afa3004c 	sw	v1,76(sp)
  408d68:	1000f921 	b	4071f0 <_init+0x59fc>
  408d6c:	a7a20050 	sh	v0,80(sp)
  408d70:	8f848020 	lw	a0,-32736(gp)
  408d74:	00000000 	nop
  408d78:	248447a0 	addiu	a0,a0,18336		# "!1 TFTP Extract Fail(len < 4)"
  408d7c:	8f998100 	lw	t9,-32512(gp) <printf>
  408d80:	00000000 	nop
  408d84:	0320f809 	jalr	t9
  408d88:	00000000 	nop
  408d8c:	8fbc0018 	lw	gp,24(sp)
  408d90:	10000071 	b	408f58 <_init+0x7764>
  408d94:	2402ffff 	li	v0,-1
  408d98:	8f81807c 	lw	at,-32644(gp)
  408d9c:	00000000 	nop
  408da0:	ac220000 	sw	v0,0(at)
  408da4:	17c00006 	bnez	s8,408dc0 <_init+0x75cc>
  408da8:	0000a821 	move	s5,zero
  408dac:	3c020040 	lui	v0,0x40
  408db0:	8f81801c 	lw	at,-32740(gp)
  408db4:	00000000 	nop
  408db8:	242101e8 	addiu	at,at,488
  408dbc:	ac220000 	sw	v0,0(at)
  408dc0:	8f81801c 	lw	at,-32740(gp)
  408dc4:	00000000 	nop
  408dc8:	242101ec 	addiu	at,at,492
  408dcc:	ac200000 	sw	zero,0(at)
  408dd0:	1000008b 	b	409000 <_init+0x780c>
  408dd4:	00000000 	nop
  408dd8:	a200fffc 	sb	zero,-4(s0)
  408ddc:	24020003 	li	v0,3
  408de0:	a0a20001 	sb	v0,1(a1)
  408de4:	00141203 	sra	v0,s4,0x8
  408de8:	a0a20002 	sb	v0,2(a1)
  408dec:	a0b40003 	sb	s4,3(a1)
  408df0:	8f84801c 	lw	a0,-32740(gp)
  408df4:	00000000 	nop
  408df8:	248411f8 	addiu	a0,a0,4600
  408dfc:	8c840000 	lw	a0,0(a0)
  408e00:	26660004 	addiu	a2,s3,4
  408e04:	27b000e8 	addiu	s0,sp,232
  408e08:	02003821 	move	a3,s0
  408e0c:	8f998264 	lw	t9,-32156(gp) <udp_sendto>
  408e10:	00000000 	nop
  408e14:	0320f809 	jalr	t9
  408e18:	00000000 	nop
  408e1c:	8fbc0018 	lw	gp,24(sp)
  408e20:	00000000 	nop
  408e24:	8f99826c 	lw	t9,-32148(gp) <sys_currtime>
  408e28:	00000000 	nop
  408e2c:	0320f809 	jalr	t9
  408e30:	00000000 	nop
  408e34:	8fbc0018 	lw	gp,24(sp)
  408e38:	10000004 	b	408e4c <_init+0x7658>
  408e3c:	0040b021 	move	s6,v0
  408e40:	2c42000a 	sltiu	v0,v0,10
  408e44:	1040f8b0 	beqz	v0,407108 <_init+0x5914>
  408e48:	00000000 	nop
  408e4c:	8f84801c 	lw	a0,-32740(gp)
  408e50:	00000000 	nop
  408e54:	248411f8 	addiu	a0,a0,4600
  408e58:	8c840000 	lw	a0,0(a0)
  408e5c:	8f91801c 	lw	s1,-32740(gp)
  408e60:	00000000 	nop
  408e64:	26311d50 	addiu	s1,s1,7504
  408e68:	00000000 	nop
  408e6c:	02202821 	move	a1,s1
  408e70:	24060240 	li	a2,576
  408e74:	02003821 	move	a3,s0
  408e78:	8f99827c 	lw	t9,-32132(gp) <udp_recvfrom>
  408e7c:	00000000 	nop
  408e80:	0320f809 	jalr	t9
  408e84:	00000000 	nop
  408e88:	8fbc0018 	lw	gp,24(sp)
  408e8c:	00409021 	move	s2,v0
  408e90:	02002021 	move	a0,s0
  408e94:	27a500f8 	addiu	a1,sp,248
  408e98:	8f998208 	lw	t9,-32248(gp) <xsocket_addr_cmp>
  408e9c:	00000000 	nop
  408ea0:	0320f809 	jalr	t9
  408ea4:	00000000 	nop
  408ea8:	8fbc0018 	lw	gp,24(sp)
  408eac:	10400016 	beqz	v0,408f08 <_init+0x7714>
  408eb0:	00000000 	nop
  408eb4:	8f99826c 	lw	t9,-32148(gp) <sys_currtime>
  408eb8:	00000000 	nop
  408ebc:	0320f809 	jalr	t9
  408ec0:	00000000 	nop
  408ec4:	8fbc0018 	lw	gp,24(sp)
  408ec8:	02c02021 	move	a0,s6
  408ecc:	00402821 	move	a1,v0
  408ed0:	8f998160 	lw	t9,-32416(gp) <sys_difftime>
  408ed4:	00000000 	nop
  408ed8:	0320f809 	jalr	t9
  408edc:	00000000 	nop
  408ee0:	8fbc0018 	lw	gp,24(sp)
  408ee4:	3c031062 	lui	v1,0x1062
  408ee8:	34634dd3 	ori	v1,v1,0x4dd3
  408eec:	00430019 	multu	v0,v1
  408ef0:	00001010 	mfhi	v0
  408ef4:	13c0ffd2 	beqz	s8,408e40 <_init+0x764c>
  408ef8:	00021182 	srl	v0,v0,0x6
  408efc:	2c42000a 	sltiu	v0,v0,10
  408f00:	1440ffd2 	bnez	v0,408e4c <_init+0x7658>
  408f04:	00000000 	nop
  408f08:	2a420004 	slti	v0,s2,4
  408f0c:	1440ff98 	bnez	v0,408d70 <_init+0x757c>
  408f10:	24020004 	li	v0,4
  408f14:	82250001 	lb	a1,1(s1)
  408f18:	00000000 	nop
  408f1c:	10a20010 	beq	a1,v0,408f60 <_init+0x776c>
  408f20:	24020001 	li	v0,1
  408f24:	14a20003 	bne	a1,v0,408f34 <_init+0x7740>
  408f28:	00000000 	nop
  408f2c:	1285ffc7 	beq	s4,a1,408e4c <_init+0x7658>
  408f30:	00000000 	nop
  408f34:	8f848020 	lw	a0,-32736(gp)
  408f38:	00000000 	nop
  408f3c:	248447c0 	addiu	a0,a0,18368		# "!1 TFTP Extract Fail ---> %.2X"
  408f40:	8f998100 	lw	t9,-32512(gp) <printf>
  408f44:	00000000 	nop
  408f48:	0320f809 	jalr	t9
  408f4c:	00000000 	nop
  408f50:	8fbc0018 	lw	gp,24(sp)
  408f54:	2402ffff 	li	v0,-1
  408f58:	10000038 	b	40903c <_init+0x7848>
  408f5c:	afa202dc 	sw	v0,732(sp)
  408f60:	82220002 	lb	v0,2(s1)
  408f64:	92230003 	lbu	v1,3(s1)
  408f68:	00021200 	sll	v0,v0,0x8
  408f6c:	00433025 	or	a2,v0,v1
  408f70:	1286000e 	beq	s4,a2,408fac <_init+0x77b8>
  408f74:	24c20001 	addiu	v0,a2,1
  408f78:	1054ffb4 	beq	v0,s4,408e4c <_init+0x7658>
  408f7c:	02802821 	move	a1,s4
  408f80:	8f848020 	lw	a0,-32736(gp)
  408f84:	00000000 	nop
  408f88:	248447e0 	addiu	a0,a0,18400		# "!1 TFTP Extract block lost"
  408f8c:	8f998100 	lw	t9,-32512(gp) <printf>
  408f90:	00000000 	nop
  408f94:	0320f809 	jalr	t9
  408f98:	00000000 	nop
  408f9c:	8fbc0018 	lw	gp,24(sp)
  408fa0:	2403ffff 	li	v1,-1
  408fa4:	10000025 	b	40903c <_init+0x7848>
  408fa8:	afa302dc 	sw	v1,732(sp)
  408fac:	26940001 	addiu	s4,s4,1
  408fb0:	2a620200 	slti	v0,s3,512
  408fb4:	10400012 	beqz	v0,409000 <_init+0x780c>
  408fb8:	02b3a821 	addu	s5,s5,s3
  408fbc:	24040001 	li	a0,1
  408fc0:	17c0001e 	bnez	s8,40903c <_init+0x7848>
  408fc4:	afa402dc 	sw	a0,732(sp)
  408fc8:	8f84801c 	lw	a0,-32740(gp)
  408fcc:	00000000 	nop
  408fd0:	248411f8 	addiu	a0,a0,4600
  408fd4:	8c840000 	lw	a0,0(a0)
  408fd8:	02202821 	move	a1,s1
  408fdc:	24060240 	li	a2,576
  408fe0:	02003821 	move	a3,s0
  408fe4:	8f99827c 	lw	t9,-32132(gp) <udp_recvfrom>
  408fe8:	00000000 	nop
  408fec:	0320f809 	jalr	t9
  408ff0:	00000000 	nop
  408ff4:	8fbc0018 	lw	gp,24(sp)
  408ff8:	10000010 	b	40903c <_init+0x7848>
  408ffc:	00000000 	nop
  409000:	8f90801c 	lw	s0,-32740(gp)
  409004:	00000000 	nop
  409008:	26101d54 	addiu	s0,s0,7508
  40900c:	02002021 	move	a0,s0
  409010:	24050200 	li	a1,512
  409014:	8f998018 	lw	t9,-32744(gp)
  409018:	00000000 	nop
  40901c:	27394614 	addiu	t9,t9,17940		# 0x404614
  409020:	00000000 	nop
  409024:	0320f809 	jalr	t9
  409028:	00000000 	nop
  40902c:	8fbc0018 	lw	gp,24(sp)
  409030:	00409821 	move	s3,v0
  409034:	1e60ff68 	bgtz	s3,408dd8 <_init+0x75e4>
  409038:	2605fffc 	addiu	a1,s0,-4
  40903c:	8fa202dc 	lw	v0,732(sp)
  409040:	00000000 	nop
  409044:	0440002f 	bltz	v0,409104 <_init+0x7910>
  409048:	27a50020 	addiu	a1,sp,32
  40904c:	8f848020 	lw	a0,-32736(gp)
  409050:	00000000 	nop
  409054:	248447fc 	addiu	a0,a0,18428		# "!0 TFTP Extract %s %d bytes finished"
  409058:	02a03021 	move	a2,s5
  40905c:	8f998100 	lw	t9,-32512(gp) <printf>
  409060:	00000000 	nop
  409064:	0320f809 	jalr	t9
  409068:	00000000 	nop
  40906c:	8fbc0018 	lw	gp,24(sp)
  409070:	2402ffff 	li	v0,-1
  409074:	16620023 	bne	s3,v0,409104 <_init+0x7910>
  409078:	24020003 	li	v0,3
  40907c:	8f90801c 	lw	s0,-32740(gp)
  409080:	00000000 	nop
  409084:	26101d50 	addiu	s0,s0,7504
  409088:	00000000 	nop
  40908c:	a2000000 	sb	zero,0(s0)
  409090:	a2020001 	sb	v0,1(s0)
  409094:	00141203 	sra	v0,s4,0x8
  409098:	a2020002 	sb	v0,2(s0)
  40909c:	a2140003 	sb	s4,3(s0)
  4090a0:	02002821 	move	a1,s0
  4090a4:	24060004 	li	a2,4
  4090a8:	27b100e8 	addiu	s1,sp,232
  4090ac:	8f84801c 	lw	a0,-32740(gp)
  4090b0:	00000000 	nop
  4090b4:	248411f8 	addiu	a0,a0,4600
  4090b8:	8c840000 	lw	a0,0(a0)
  4090bc:	02203821 	move	a3,s1
  4090c0:	8f998264 	lw	t9,-32156(gp) <udp_sendto>
  4090c4:	00000000 	nop
  4090c8:	0320f809 	jalr	t9
  4090cc:	00000000 	nop
  4090d0:	8fbc0018 	lw	gp,24(sp)
  4090d4:	02002821 	move	a1,s0
  4090d8:	24060240 	li	a2,576
  4090dc:	8f84801c 	lw	a0,-32740(gp)
  4090e0:	00000000 	nop
  4090e4:	248411f8 	addiu	a0,a0,4600
  4090e8:	8c840000 	lw	a0,0(a0)
  4090ec:	02203821 	move	a3,s1
  4090f0:	8f99827c 	lw	t9,-32132(gp) <udp_recvfrom>
  4090f4:	00000000 	nop
  4090f8:	0320f809 	jalr	t9
  4090fc:	00000000 	nop
  409100:	8fbc0018 	lw	gp,24(sp)
  409104:	13c0f77d 	beqz	s8,406efc <_init+0x5708>
  409108:	00000000 	nop
  40910c:	8f84807c 	lw	a0,-32644(gp)
  409110:	00000000 	nop
  409114:	8c840000 	lw	a0,0(a0)
  409118:	8f9981b4 	lw	t9,-32332(gp) <my_free>
  40911c:	00000000 	nop
  409120:	0320f809 	jalr	t9
  409124:	00000000 	nop
  409128:	8fbc0018 	lw	gp,24(sp)
  40912c:	00000000 	nop
  409130:	8f81807c 	lw	at,-32644(gp)
  409134:	00000000 	nop
  409138:	ac200000 	sw	zero,0(at)
  40913c:	1000f76f 	b	406efc <_init+0x5708>
  409140:	0000f021 	move	s8,zero
  409144:	8f848020 	lw	a0,-32736(gp)
  409148:	00000000 	nop
  40914c:	24844824 	addiu	a0,a0,18468		# "!3 TFTP Failed"
  409150:	8f998100 	lw	t9,-32512(gp) <printf>
  409154:	00000000 	nop
  409158:	0320f809 	jalr	t9
  40915c:	00000000 	nop
  409160:	8fbc0018 	lw	gp,24(sp)
  409164:	00000000 	nop
  409168:	8f84801c 	lw	a0,-32740(gp)
  40916c:	00000000 	nop
  409170:	248411f8 	addiu	a0,a0,4600
  409174:	8c840000 	lw	a0,0(a0)
  409178:	8f998198 	lw	t9,-32360(gp) <udp_close>
  40917c:	00000000 	nop
  409180:	0320f809 	jalr	t9
  409184:	00000000 	nop
  409188:	8fbc0018 	lw	gp,24(sp)
  40918c:	8fa402f0 	lw	a0,752(sp)
  409190:	8f998198 	lw	t9,-32360(gp) <udp_close>
  409194:	00000000 	nop
  409198:	0320f809 	jalr	t9
  40919c:	00000000 	nop
  4091a0:	8fbc0018 	lw	gp,24(sp)
  4091a4:	24040001 	li	a0,1
  4091a8:	8f9981e8 	lw	t9,-32280(gp) <sys_sleep>
  4091ac:	00000000 	nop
  4091b0:	0320f809 	jalr	t9
  4091b4:	00000000 	nop
  4091b8:	8fbc0018 	lw	gp,24(sp)
  4091bc:	1000f71c 	b	406e30 <_init+0x563c>
  4091c0:	24020045 	li	v0,69
  4091c4:	8fbf0320 	lw	ra,800(sp)
  4091c8:	8fbe031c 	lw	s8,796(sp)
  4091cc:	8fb70314 	lw	s7,788(sp)
  4091d0:	8fb60310 	lw	s6,784(sp)
  4091d4:	8fb5030c 	lw	s5,780(sp)
  4091d8:	8fb40308 	lw	s4,776(sp)
  4091dc:	8fb30304 	lw	s3,772(sp)
  4091e0:	8fb20300 	lw	s2,768(sp)
  4091e4:	8fb102fc 	lw	s1,764(sp)
  4091e8:	8fb002f8 	lw	s0,760(sp)
  4091ec:	03e00008 	jr	ra
  
  
  4091f0:	27bd0328 	addiu	sp,sp,808
  
  4091f4:	3c1c0fc0 	lui	gp,0xfc0
  4091f8:	279c009c 	addiu	gp,gp,156
  4091fc:	0399e021 	addu	gp,gp,t9
  409200:	27bdff40 	addiu	sp,sp,-192
  409204:	afbc0010 	sw	gp,16(sp)
  409208:	afbf00b8 	sw	ra,184(sp)
  40920c:	afbc00b4 	sw	gp,180(sp)
  409210:	afb200b0 	sw	s2,176(sp)
  409214:	afb100ac 	sw	s1,172(sp)
  409218:	afb000a8 	sw	s0,168(sp)
  40921c:	00808821 	move	s1,a0
  409220:	24040003 	li	a0,3
  409224:	00a09021 	move	s2,a1
  409228:	8f858020 	lw	a1,-32736(gp)
  40922c:	00000000 	nop
  409230:	24a54834 	addiu	a1,a1,18484		# "/sip/setupinfo.bin"
  409234:	27a60018 	addiu	a2,sp,24
  409238:	8f998194 	lw	t9,-32364(gp) <__xstat>
  40923c:	00000000 	nop
  409240:	0320f809 	jalr	t9
  409244:	00000000 	nop
  409248:	8fbc0010 	lw	gp,16(sp)
  40924c:	2403ffff 	li	v1,-1
  409250:	1043001e 	beq	v0,v1,4092cc <_init+0x7ad8>
  409254:	00001021 	move	v0,zero
  409258:	8f848020 	lw	a0,-32736(gp)
  40925c:	00000000 	nop
  409260:	24844834 	addiu	a0,a0,18484		# "/sip/setupinfo.bin"
  409264:	8f858020 	lw	a1,-32736(gp)
  409268:	00000000 	nop
  40926c:	24a532dc 	addiu	a1,a1,13020
  409270:	8f99813c 	lw	t9,-32452(gp) <fopen>
  409274:	00000000 	nop
  409278:	0320f809 	jalr	t9
  40927c:	00000000 	nop
  409280:	8fbc0010 	lw	gp,16(sp)
  409284:	00408021 	move	s0,v0
  409288:	1200000f 	beqz	s0,4092c8 <_init+0x7ad4>
  40928c:	02202021 	move	a0,s1
  409290:	24050001 	li	a1,1
  409294:	02403021 	move	a2,s2
  409298:	02003821 	move	a3,s0
  40929c:	8f9981c0 	lw	t9,-32320(gp) <fread>
  4092a0:	00000000 	nop
  4092a4:	0320f809 	jalr	t9
  4092a8:	00000000 	nop
  4092ac:	8fbc0010 	lw	gp,16(sp)
  4092b0:	02002021 	move	a0,s0
  4092b4:	8f998130 	lw	t9,-32464(gp) <fclose>
  4092b8:	00000000 	nop
  4092bc:	0320f809 	jalr	t9
  4092c0:	00000000 	nop
  4092c4:	8fbc0010 	lw	gp,16(sp)
  4092c8:	00001021 	move	v0,zero
  4092cc:	8fbf00b8 	lw	ra,184(sp)
  4092d0:	8fb200b0 	lw	s2,176(sp)
  4092d4:	8fb100ac 	lw	s1,172(sp)
  4092d8:	8fb000a8 	lw	s0,168(sp)
  4092dc:	03e00008 	jr	ra
  
  
  4092e0:	27bd00c0 	addiu	sp,sp,192
  4092e4:	3c1c0fc0 	lui	gp,0xfc0
  4092e8:	279cffac 	addiu	gp,gp,-84
  4092ec:	0399e021 	addu	gp,gp,t9
  4092f0:	27bdffd8 	addiu	sp,sp,-40
  4092f4:	afbc0010 	sw	gp,16(sp)
  4092f8:	afbf0024 	sw	ra,36(sp)
  4092fc:	afbc0020 	sw	gp,32(sp)
  409300:	afb1001c 	sw	s1,28(sp)
  409304:	afb00018 	sw	s0,24(sp)
  409308:	00808021 	move	s0,a0
  40930c:	8f848020 	lw	a0,-32736(gp)
  409310:	00000000 	nop
  409314:	24844834 	addiu	a0,a0,18484		# "/sip/setupinfo.bin"
  409318:	00a08821 	move	s1,a1
  40931c:	8f858020 	lw	a1,-32736(gp)
  409320:	00000000 	nop
  409324:	24a53704 	addiu	a1,a1,14084
  409328:	8f99813c 	lw	t9,-32452(gp) <fopen>
  40932c:	00000000 	nop
  409330:	0320f809 	jalr	t9
  409334:	00000000 	nop
  409338:	8fbc0010 	lw	gp,16(sp)
  40933c:	02002021 	move	a0,s0
  409340:	24050001 	li	a1,1
  409344:	00408021 	move	s0,v0
  409348:	02203021 	move	a2,s1
  40934c:	02003821 	move	a3,s0
  409350:	8f99805c 	lw	t9,-32676(gp) <fwrite>
  409354:	00000000 	nop
  409358:	0320f809 	jalr	t9
  40935c:	00000000 	nop
  409360:	8fbc0010 	lw	gp,16(sp)
  409364:	02002021 	move	a0,s0
  409368:	8f998130 	lw	t9,-32464(gp) <fclose>
  40936c:	00000000 	nop
  409370:	0320f809 	jalr	t9
  409374:	00000000 	nop
  409378:	8fbc0010 	lw	gp,16(sp)
  40937c:	00000000 	nop
  409380:	8f848020 	lw	a0,-32736(gp)
  409384:	00000000 	nop
  409388:	24844848 	addiu	a0,a0,18504		# "!6 WriteSetupInfo: 0. len(%.8lX)"
  40938c:	02202821 	move	a1,s1
  409390:	8f998100 	lw	t9,-32512(gp) <printf>
  409394:	00000000 	nop
  409398:	0320f809 	jalr	t9
  40939c:	00000000 	nop
  4093a0:	8fbc0010 	lw	gp,16(sp)
  4093a4:	8fbf0024 	lw	ra,36(sp)
  4093a8:	8fb1001c 	lw	s1,28(sp)
  4093ac:	8fb00018 	lw	s0,24(sp)
  4093b0:	00001021 	move	v0,zero
  4093b4:	03e00008 	jr	ra
  4093b8:	27bd0028 	addiu	sp,sp,40
  4093bc:	3c1c0fc0 	lui	gp,0xfc0
  4093c0:	279cfed4 	addiu	gp,gp,-300
  4093c4:	0399e021 	addu	gp,gp,t9
  4093c8:	27bdffe0 	addiu	sp,sp,-32
  4093cc:	afbc0010 	sw	gp,16(sp)
  4093d0:	afbf001c 	sw	ra,28(sp)
  4093d4:	afbc0018 	sw	gp,24(sp)
  4093d8:	00802821 	move	a1,a0
  4093dc:	8f848020 	lw	a0,-32736(gp)
  4093e0:	00000000 	nop
  4093e4:	2484486c 	addiu	a0,a0,18540		# "TFTPServer Receive signal %d"
  4093e8:	8f998100 	lw	t9,-32512(gp) <printf>
  4093ec:	00000000 	nop
  4093f0:	0320f809 	jalr	t9
  4093f4:	00000000 	nop
  4093f8:	8fbc0010 	lw	gp,16(sp)
  4093fc:	00000000 	nop
  409400:	8f84815c 	lw	a0,-32420(gp)
  409404:	00000000 	nop
  409408:	8c840000 	lw	a0,0(a0)
  40940c:	00000000 	nop
  409410:	10800007 	beqz	a0,409430 <_init+0x7c3c>
  409414:	00000000 	nop
  409418:	8f998198 	lw	t9,-32360(gp) <udp_close>
  40941c:	00000000 	nop
  409420:	0320f809 	jalr	t9
  409424:	00000000 	nop
  409428:	8fbc0010 	lw	gp,16(sp)
  40942c:	00000000 	nop
  409430:	8f84801c 	lw	a0,-32740(gp)
  409434:	00000000 	nop
  409438:	248411f8 	addiu	a0,a0,4600
  40943c:	8c840000 	lw	a0,0(a0)
  409440:	00000000 	nop
  409444:	10800007 	beqz	a0,409464 <_init+0x7c70>
  409448:	00000000 	nop
  40944c:	8f998198 	lw	t9,-32360(gp) <udp_close>
  409450:	00000000 	nop
  409454:	0320f809 	jalr	t9
  409458:	00000000 	nop
  40945c:	8fbc0010 	lw	gp,16(sp)
  409460:	00000000 	nop
  409464:	8f84807c 	lw	a0,-32644(gp)
  409468:	00000000 	nop
  40946c:	8c840000 	lw	a0,0(a0)
  409470:	00000000 	nop
  409474:	10800014 	beqz	a0,4094c8 <_init+0x7cd4>
  409478:	00000000 	nop
  40947c:	8f998114 	lw	t9,-32492(gp) <shmdt>
  409480:	00000000 	nop
  409484:	0320f809 	jalr	t9
  409488:	00000000 	nop
  40948c:	8fbc0010 	lw	gp,16(sp)
  409490:	00000000 	nop
  409494:	8f81807c 	lw	at,-32644(gp)
  409498:	00000000 	nop
  40949c:	ac200000 	sw	zero,0(at)
  4094a0:	8f8480bc 	lw	a0,-32580(gp)
  4094a4:	00000000 	nop
  4094a8:	8c840000 	lw	a0,0(a0)
  4094ac:	00002821 	move	a1,zero
  4094b0:	00003021 	move	a2,zero
  4094b4:	8f9980e0 	lw	t9,-32544(gp) <shmctl>
  4094b8:	00000000 	nop
  4094bc:	0320f809 	jalr	t9
  4094c0:	00000000 	nop
  4094c4:	8fbc0010 	lw	gp,16(sp)
  4094c8:	24040001 	li	a0,1
  4094cc:	8f9980b4 	lw	t9,-32588(gp) <exit>
  4094d0:	00000000 	nop
  4094d4:	0320f809 	jalr	t9
  4094d8:	00000000 	nop
  4094dc:	8fbc0010 	lw	gp,16(sp)
  4094e0:	00000000 	nop
  4094e4:	3c1c0fc0 	lui	gp,0xfc0
  4094e8:	279cfdac 	addiu	gp,gp,-596
  4094ec:	0399e021 	addu	gp,gp,t9
  4094f0:	27bdff50 	addiu	sp,sp,-176
  4094f4:	afbc0018 	sw	gp,24(sp)
  4094f8:	afbf00ac 	sw	ra,172(sp)
  4094fc:	afbc00a8 	sw	gp,168(sp)
  409500:	afb100a4 	sw	s1,164(sp)
  409504:	afb000a0 	sw	s0,160(sp)
  409508:	00808821 	move	s1,a0
  40950c:	12200003 	beqz	s1,40951c <_init+0x7d28>
  409510:	00a08021 	move	s0,a1
  409514:	1e000003 	bgtz	s0,409524 <_init+0x7d30>
  409518:	00002021 	move	a0,zero
  40951c:	10000052 	b	409668 <_init+0x7e74>
  409520:	2402ffff 	li	v0,-1
  409524:	27a90020 	addiu	t1,sp,32
  409528:	01201821 	move	v1,t1
  40952c:	ac600000 	sw	zero,0(v1)
  409530:	24840001 	addiu	a0,a0,1
  409534:	2c820020 	sltiu	v0,a0,32
  409538:	1440fffc 	bnez	v0,40952c <_init+0x7d38>
  40953c:	24630004 	addiu	v1,v1,4
  409540:	1a000016 	blez	s0,40959c <_init+0x7da8>
  409544:	00004021 	move	t0,zero
  409548:	02203821 	move	a3,s1
  40954c:	02003021 	move	a2,s0
  409550:	8ce50000 	lw	a1,0(a3)
  409554:	00000000 	nop
  409558:	0105102a 	slt	v0,t0,a1
  40955c:	10400002 	beqz	v0,409568 <_init+0x7d74>
  409560:	24e70004 	addiu	a3,a3,4
  409564:	00a04021 	move	t0,a1
  409568:	18a00009 	blez	a1,409590 <_init+0x7d9c>
  40956c:	00052142 	srl	a0,a1,0x5
  409570:	00042080 	sll	a0,a0,0x2
  409574:	01242021 	addu	a0,t1,a0
  409578:	30a5001f 	andi	a1,a1,0x1f
  40957c:	24020001 	li	v0,1
  409580:	8c830000 	lw	v1,0(a0)
  409584:	00a21004 	sllv	v0,v0,a1
  409588:	00621825 	or	v1,v1,v0
  40958c:	ac830000 	sw	v1,0(a0)
  409590:	24c6ffff 	addiu	a2,a2,-1
  409594:	14c0ffee 	bnez	a2,409550 <_init+0x7d5c>
  409598:	00000000 	nop
  40959c:	afa00010 	sw	zero,16(sp)
  4095a0:	25040001 	addiu	a0,t0,1
  4095a4:	27a50020 	addiu	a1,sp,32
  4095a8:	00003021 	move	a2,zero
  4095ac:	00003821 	move	a3,zero
  4095b0:	8f998210 	lw	t9,-32240(gp) <select>
  4095b4:	00000000 	nop
  4095b8:	0320f809 	jalr	t9
  4095bc:	00000000 	nop
  4095c0:	8fbc0018 	lw	gp,24(sp)
  4095c4:	1c40000d 	bgtz	v0,4095fc <_init+0x7e08>
  4095c8:	00402821 	move	a1,v0
  4095cc:	8f848020 	lw	a0,-32736(gp)
  4095d0:	00000000 	nop
  4095d4:	2484488c 	addiu	a0,a0,18572		# "select: error(%d)"
  4095d8:	8f998100 	lw	t9,-32512(gp) <printf>
  4095dc:	00000000 	nop
  4095e0:	0320f809 	jalr	t9
  4095e4:	00000000 	nop
  4095e8:	8fbc0018 	lw	gp,24(sp)
  4095ec:	1000001e 	b	409668 <_init+0x7e74>
  4095f0:	2402fffe 	li	v0,-2
  4095f4:	1000001c 	b	409668 <_init+0x7e74>
  4095f8:	00c01021 	move	v0,a2
  4095fc:	1a000011 	blez	s0,409644 <_init+0x7e50>
  409600:	00003021 	move	a2,zero
  409604:	02202021 	move	a0,s1
  409608:	8c830000 	lw	v1,0(a0)
  40960c:	00000000 	nop
  409610:	00031142 	srl	v0,v1,0x5
  409614:	00021080 	sll	v0,v0,0x2
  409618:	03a21021 	addu	v0,sp,v0
  40961c:	8c420020 	lw	v0,32(v0)
  409620:	3063001f 	andi	v1,v1,0x1f
  409624:	00621006 	srlv	v0,v0,v1
  409628:	30420001 	andi	v0,v0,0x1
  40962c:	1440fff1 	bnez	v0,4095f4 <_init+0x7e00>
  409630:	24840004 	addiu	a0,a0,4
  409634:	24c60001 	addiu	a2,a2,1
  409638:	00d0102a 	slt	v0,a2,s0
  40963c:	1440fff2 	bnez	v0,409608 <_init+0x7e14>
  409640:	00000000 	nop
  409644:	8f848020 	lw	a0,-32736(gp)
  409648:	00000000 	nop
  40964c:	248448a0 	addiu	a0,a0,18592		# "select: not found"
  409650:	8f998100 	lw	t9,-32512(gp) <printf>
  409654:	00000000 	nop
  409658:	0320f809 	jalr	t9
  40965c:	00000000 	nop
  409660:	8fbc0018 	lw	gp,24(sp)
  409664:	2402fffd 	li	v0,-3
  409668:	8fbf00ac 	lw	ra,172(sp)
  40966c:	8fb100a4 	lw	s1,164(sp)
  409670:	8fb000a0 	lw	s0,160(sp)
  409674:	03e00008 	jr	ra
  409678:	27bd00b0 	addiu	sp,sp,176
  40967c:	3c1c0fc0 	lui	gp,0xfc0
  409680:	279cfc14 	addiu	gp,gp,-1004
  409684:	0399e021 	addu	gp,gp,t9
  409688:	8ca70000 	lw	a3,0(a1)
  40968c:	00000000 	nop
  409690:	00e6102a 	slt	v0,a3,a2
  409694:	1040000c 	beqz	v0,4096c8 <_init+0x7ed4>
  409698:	00871021 	addu	v0,a0,a3
  40969c:	10000006 	b	4096b8 <_init+0x7ec4>
  4096a0:	00000000 	nop
  4096a4:	0066102a 	slt	v0,v1,a2
  4096a8:	10400007 	beqz	v0,4096c8 <_init+0x7ed4>
  4096ac:	aca30000 	sw	v1,0(a1)
  4096b0:	00603821 	move	a3,v1
  4096b4:	00871021 	addu	v0,a0,a3
  4096b8:	80430000 	lb	v1,0(v0)
  4096bc:	24020020 	li	v0,32
  4096c0:	1062fff8 	beq	v1,v0,4096a4 <_init+0x7eb0>
  4096c4:	24e30001 	addiu	v1,a3,1
  4096c8:	03e00008 	jr	ra
  4096cc:	00000000 	nop
  4096d0:	3c1c0fc0 	lui	gp,0xfc0
  4096d4:	279cfbc0 	addiu	gp,gp,-1088
  4096d8:	0399e021 	addu	gp,gp,t9
  4096dc:	8ca70000 	lw	a3,0(a1)
  4096e0:	00000000 	nop
  4096e4:	00e6102a 	slt	v0,a3,a2
  4096e8:	1040000c 	beqz	v0,40971c <_init+0x7f28>
  4096ec:	00871021 	addu	v0,a0,a3
  4096f0:	10000006 	b	40970c <_init+0x7f18>
  4096f4:	00000000 	nop
  4096f8:	0066102a 	slt	v0,v1,a2
  4096fc:	10400007 	beqz	v0,40971c <_init+0x7f28>
  409700:	aca30000 	sw	v1,0(a1)
  409704:	00603821 	move	a3,v1
  409708:	00871021 	addu	v0,a0,a3
  40970c:	80430000 	lb	v1,0(v0)
  409710:	24020020 	li	v0,32
  409714:	1462fff8 	bne	v1,v0,4096f8 <_init+0x7f04>
  409718:	24e30001 	addiu	v1,a3,1
  40971c:	03e00008 	jr	ra
  409720:	00000000 	nop
  409724:	3c1c0fc0 	lui	gp,0xfc0
  409728:	279cfb6c 	addiu	gp,gp,-1172
  40972c:	0399e021 	addu	gp,gp,t9
  409730:	27bdffc0 	addiu	sp,sp,-64
  409734:	afbc0010 	sw	gp,16(sp)
  409738:	afbf0038 	sw	ra,56(sp)
  40973c:	afbc0034 	sw	gp,52(sp)
  409740:	afb40030 	sw	s4,48(sp)
  409744:	afb3002c 	sw	s3,44(sp)
  409748:	afb20028 	sw	s2,40(sp)
  40974c:	afb10024 	sw	s1,36(sp)
  409750:	afb00020 	sw	s0,32(sp)
  409754:	afa00018 	sw	zero,24(sp)
  409758:	00808021 	move	s0,a0
  40975c:	00a09821 	move	s3,a1
  409760:	27b20018 	addiu	s2,sp,24
  409764:	02402821 	move	a1,s2
  409768:	00c08821 	move	s1,a2
  40976c:	02603021 	move	a2,s3
  409770:	8f998020 	lw	t9,-32736(gp)
  409774:	00000000 	nop
  409778:	2739967c 	addiu	t9,t9,-27012
  40977c:	00000000 	nop
  409780:	0320f809 	jalr	t9
  409784:	00000000 	nop
  409788:	8fbc0010 	lw	gp,16(sp)
  40978c:	02002021 	move	a0,s0
  409790:	02402821 	move	a1,s2
  409794:	8fa20018 	lw	v0,24(sp)
  409798:	02603021 	move	a2,s3
  40979c:	02021021 	addu	v0,s0,v0
  4097a0:	ae220000 	sw	v0,0(s1)
  4097a4:	8f998020 	lw	t9,-32736(gp)
  4097a8:	00000000 	nop
  4097ac:	273996d0 	addiu	t9,t9,-26928
  4097b0:	00000000 	nop
  4097b4:	0320f809 	jalr	t9
  4097b8:	00000000 	nop
  4097bc:	8fbc0010 	lw	gp,16(sp)
  4097c0:	02002021 	move	a0,s0
  4097c4:	02402821 	move	a1,s2
  4097c8:	8fa20018 	lw	v0,24(sp)
  4097cc:	02603021 	move	a2,s3
  4097d0:	02021821 	addu	v1,s0,v0
  4097d4:	a0600000 	sb	zero,0(v1)
  4097d8:	24420001 	addiu	v0,v0,1
  4097dc:	afa20018 	sw	v0,24(sp)
  4097e0:	8f998020 	lw	t9,-32736(gp)
  4097e4:	00000000 	nop
  4097e8:	2739967c 	addiu	t9,t9,-27012
  4097ec:	00000000 	nop
  4097f0:	0320f809 	jalr	t9
  4097f4:	00000000 	nop
  4097f8:	8fbc0010 	lw	gp,16(sp)
  4097fc:	8e250000 	lw	a1,0(s1)
  409800:	8f848020 	lw	a0,-32736(gp)
  409804:	00000000 	nop
  409808:	248448b4 	addiu	a0,a0,18612		# "text"
  40980c:	8f99823c 	lw	t9,-32196(gp) <strcmp>
  409810:	00000000 	nop
  409814:	0320f809 	jalr	t9
  409818:	00000000 	nop
  40981c:	8fbc0010 	lw	gp,16(sp)
  409820:	14400042 	bnez	v0,40992c <_init+0x8138>
  409824:	24140001 	li	s4,1
  409828:	02002021 	move	a0,s0
  40982c:	02402821 	move	a1,s2
  409830:	8fa20018 	lw	v0,24(sp)
  409834:	02603021 	move	a2,s3
  409838:	02021021 	addu	v0,s0,v0
  40983c:	ae220004 	sw	v0,4(s1)
  409840:	8f998020 	lw	t9,-32736(gp)
  409844:	00000000 	nop
  409848:	273996d0 	addiu	t9,t9,-26928
  40984c:	00000000 	nop
  409850:	0320f809 	jalr	t9
  409854:	00000000 	nop
  409858:	8fbc0010 	lw	gp,16(sp)
  40985c:	02002021 	move	a0,s0
  409860:	02402821 	move	a1,s2
  409864:	8fa20018 	lw	v0,24(sp)
  409868:	02603021 	move	a2,s3
  40986c:	02021821 	addu	v1,s0,v0
  409870:	a0600000 	sb	zero,0(v1)
  409874:	24420001 	addiu	v0,v0,1
  409878:	afa20018 	sw	v0,24(sp)
  40987c:	8f998020 	lw	t9,-32736(gp)
  409880:	00000000 	nop
  409884:	2739967c 	addiu	t9,t9,-27012
  409888:	00000000 	nop
  40988c:	0320f809 	jalr	t9
  409890:	00000000 	nop
  409894:	8fbc0010 	lw	gp,16(sp)
  409898:	8fa20018 	lw	v0,24(sp)
  40989c:	00000000 	nop
  4098a0:	0053102a 	slt	v0,v0,s3
  4098a4:	10400047 	beqz	v0,4099c4 <_init+0x81d0>
  4098a8:	24140002 	li	s4,2
  4098ac:	02002021 	move	a0,s0
  4098b0:	02402821 	move	a1,s2
  4098b4:	02603021 	move	a2,s3
  4098b8:	8f998020 	lw	t9,-32736(gp)
  4098bc:	00000000 	nop
  4098c0:	273996d0 	addiu	t9,t9,-26928
  4098c4:	00000000 	nop
  4098c8:	0320f809 	jalr	t9
  4098cc:	00000000 	nop
  4098d0:	8fbc0010 	lw	gp,16(sp)
  4098d4:	02002021 	move	a0,s0
  4098d8:	02402821 	move	a1,s2
  4098dc:	8fa20018 	lw	v0,24(sp)
  4098e0:	02603021 	move	a2,s3
  4098e4:	02021821 	addu	v1,s0,v0
  4098e8:	a0600000 	sb	zero,0(v1)
  4098ec:	24420001 	addiu	v0,v0,1
  4098f0:	afa20018 	sw	v0,24(sp)
  4098f4:	8f998020 	lw	t9,-32736(gp)
  4098f8:	00000000 	nop
  4098fc:	2739967c 	addiu	t9,t9,-27012
  409900:	00000000 	nop
  409904:	0320f809 	jalr	t9
  409908:	00000000 	nop
  40990c:	8fbc0010 	lw	gp,16(sp)
  409910:	8fa20018 	lw	v0,24(sp)
  409914:	00000000 	nop
  409918:	0053102a 	slt	v0,v0,s3
  40991c:	1440ffe4 	bnez	v0,4098b0 <_init+0x80bc>
  409920:	02002021 	move	a0,s0
  409924:	10000028 	b	4099c8 <_init+0x81d4>
  409928:	02801021 	move	v0,s4
  40992c:	8fa30018 	lw	v1,24(sp)
  409930:	00000000 	nop
  409934:	0073102a 	slt	v0,v1,s3
  409938:	10400022 	beqz	v0,4099c4 <_init+0x81d0>
  40993c:	26310004 	addiu	s1,s1,4
  409940:	02031021 	addu	v0,s0,v1
  409944:	ae220000 	sw	v0,0(s1)
  409948:	26310004 	addiu	s1,s1,4
  40994c:	02002021 	move	a0,s0
  409950:	02402821 	move	a1,s2
  409954:	02603021 	move	a2,s3
  409958:	8f998020 	lw	t9,-32736(gp)
  40995c:	00000000 	nop
  409960:	273996d0 	addiu	t9,t9,-26928
  409964:	00000000 	nop
  409968:	0320f809 	jalr	t9
  40996c:	00000000 	nop
  409970:	8fbc0010 	lw	gp,16(sp)
  409974:	02002021 	move	a0,s0
  409978:	02402821 	move	a1,s2
  40997c:	8fa20018 	lw	v0,24(sp)
  409980:	02603021 	move	a2,s3
  409984:	02021821 	addu	v1,s0,v0
  409988:	a0600000 	sb	zero,0(v1)
  40998c:	24420001 	addiu	v0,v0,1
  409990:	afa20018 	sw	v0,24(sp)
  409994:	8f998020 	lw	t9,-32736(gp)
  409998:	00000000 	nop
  40999c:	2739967c 	addiu	t9,t9,-27012
  4099a0:	00000000 	nop
  4099a4:	0320f809 	jalr	t9
  4099a8:	00000000 	nop
  4099ac:	8fbc0010 	lw	gp,16(sp)
  4099b0:	8fa30018 	lw	v1,24(sp)
  4099b4:	00000000 	nop
  4099b8:	0073102a 	slt	v0,v1,s3
  4099bc:	1440ffe0 	bnez	v0,409940 <_init+0x814c>
  4099c0:	26940001 	addiu	s4,s4,1
  4099c4:	02801021 	move	v0,s4
  4099c8:	8fbf0038 	lw	ra,56(sp)
  4099cc:	8fb40030 	lw	s4,48(sp)
  4099d0:	8fb3002c 	lw	s3,44(sp)
  4099d4:	8fb20028 	lw	s2,40(sp)
  4099d8:	8fb10024 	lw	s1,36(sp)
  4099dc:	8fb00020 	lw	s0,32(sp)
  4099e0:	03e00008 	jr	ra
  4099e4:	27bd0040 	addiu	sp,sp,64
  4099e8:	3c1c0fc0 	lui	gp,0xfc0
  4099ec:	279cf8a8 	addiu	gp,gp,-1880
  4099f0:	0399e021 	addu	gp,gp,t9
  4099f4:	27bdffd8 	addiu	sp,sp,-40
  4099f8:	afbc0010 	sw	gp,16(sp)
  4099fc:	afbf0024 	sw	ra,36(sp)
  409a00:	afbc0020 	sw	gp,32(sp)
  409a04:	afb1001c 	sw	s1,28(sp)
  409a08:	afb00018 	sw	s0,24(sp)
  409a0c:	00808821 	move	s1,a0
  409a10:	00a6102a 	slt	v0,a1,a2
  409a14:	10400037 	beqz	v0,409af4 <_init+0x8300>
  409a18:	00e02021 	move	a0,a3
  409a1c:	10000004 	b	409a30 <_init+0x823c>
  409a20:	02258021 	addu	s0,s1,a1
  409a24:	00a6102a 	slt	v0,a1,a2
  409a28:	10400032 	beqz	v0,409af4 <_init+0x8300>
  409a2c:	26100001 	addiu	s0,s0,1
  409a30:	82030000 	lb	v1,0(s0)
  409a34:	2402000d 	li	v0,13
  409a38:	1062fffa 	beq	v1,v0,409a24 <_init+0x8230>
  409a3c:	24a50001 	addiu	a1,a1,1
  409a40:	24a5ffff 	addiu	a1,a1,-1
  409a44:	2402000a 	li	v0,10
  409a48:	1062fff6 	beq	v1,v0,409a24 <_init+0x8230>
  409a4c:	24a50001 	addiu	a1,a1,1
  409a50:	24a5ffff 	addiu	a1,a1,-1
  409a54:	00a6102a 	slt	v0,a1,a2
  409a58:	10400026 	beqz	v0,409af4 <_init+0x8300>
  409a5c:	02004021 	move	t0,s0
  409a60:	10000002 	b	409a6c <_init+0x8278>
  409a64:	00000000 	nop
  409a68:	26100001 	addiu	s0,s0,1
  409a6c:	00a6102a 	slt	v0,a1,a2
  409a70:	10400008 	beqz	v0,409a94 <_init+0x82a0>
  409a74:	2402000d 	li	v0,13
  409a78:	82030000 	lb	v1,0(s0)
  409a7c:	00000000 	nop
  409a80:	10620003 	beq	v1,v0,409a90 <_init+0x829c>
  409a84:	2402000a 	li	v0,10
  409a88:	1462fff7 	bne	v1,v0,409a68 <_init+0x8274>
  409a8c:	24a50001 	addiu	a1,a1,1
  409a90:	a2000000 	sb	zero,0(s0)
  409a94:	02081023 	subu	v0,s0,t0
  409a98:	24450001 	addiu	a1,v0,1
  409a9c:	8fa20038 	lw	v0,56(sp)
  409aa0:	00000000 	nop
  409aa4:	0045102a 	slt	v0,v0,a1
  409aa8:	1440000a 	bnez	v0,409ad4 <_init+0x82e0>
  409aac:	00000000 	nop
  409ab0:	01002821 	move	a1,t0
  409ab4:	8f998030 	lw	t9,-32720(gp) <strcpy>
  409ab8:	00000000 	nop
  409abc:	0320f809 	jalr	t9
  409ac0:	00000000 	nop
  409ac4:	8fbc0010 	lw	gp,16(sp)
  409ac8:	02111023 	subu	v0,s0,s1
  409acc:	1000000a 	b	409af8 <_init+0x8304>
  409ad0:	24420001 	addiu	v0,v0,1
  409ad4:	8f848020 	lw	a0,-32736(gp)
  409ad8:	00000000 	nop
  409adc:	248448bc 	addiu	a0,a0,18620		# "!3 Err: ACF too large(%d)"
  409ae0:	8f998100 	lw	t9,-32512(gp) <printf>
  409ae4:	00000000 	nop
  409ae8:	0320f809 	jalr	t9
  409aec:	00000000 	nop
  409af0:	8fbc0010 	lw	gp,16(sp)
  409af4:	2402ffff 	li	v0,-1
  409af8:	8fbf0024 	lw	ra,36(sp)
  409afc:	8fb1001c 	lw	s1,28(sp)
  409b00:	8fb00018 	lw	s0,24(sp)
  409b04:	03e00008 	jr	ra
  409b08:	27bd0028 	addiu	sp,sp,40
  409b0c:	3c1c0fc0 	lui	gp,0xfc0
  409b10:	279cf784 	addiu	gp,gp,-2172
  409b14:	0399e021 	addu	gp,gp,t9
  409b18:	27bdff20 	addiu	sp,sp,-224
  409b1c:	afbc0018 	sw	gp,24(sp)
  409b20:	afbf00dc 	sw	ra,220(sp)
  409b24:	afbc00d8 	sw	gp,216(sp)
  409b28:	afb300d4 	sw	s3,212(sp)
  409b2c:	afb200d0 	sw	s2,208(sp)
  409b30:	afb100cc 	sw	s1,204(sp)
  409b34:	afb000c8 	sw	s0,200(sp)
  409b38:	24040003 	li	a0,3
  409b3c:	8f858020 	lw	a1,-32736(gp)
  409b40:	00000000 	nop
  409b44:	24a548d8 	addiu	a1,a1,18648		# "/tmp/uimsg"
  409b48:	27a60020 	addiu	a2,sp,32
  409b4c:	8f998194 	lw	t9,-32364(gp) <__xstat>
  409b50:	00000000 	nop
  409b54:	0320f809 	jalr	t9
  409b58:	00000000 	nop
  409b5c:	8fbc0018 	lw	gp,24(sp)
  409b60:	2403ffff 	li	v1,-1
  409b64:	1043001d 	beq	v0,v1,409bdc <_init+0x83e8>
  409b68:	00009821 	move	s3,zero
  409b6c:	8fa40050 	lw	a0,80(sp)
  409b70:	8f998138 	lw	t9,-32456(gp) <my_malloc>
  409b74:	00000000 	nop
  409b78:	0320f809 	jalr	t9
  409b7c:	00000000 	nop
  409b80:	8fbc0018 	lw	gp,24(sp)
  409b84:	00408821 	move	s1,v0
  409b88:	12200067 	beqz	s1,409d28 <_init+0x8534>
  409b8c:	2402ffff 	li	v0,-1
  409b90:	8f848020 	lw	a0,-32736(gp)
  409b94:	00000000 	nop
  409b98:	248448d8 	addiu	a0,a0,18648		# "/tmp/uimsg"
  409b9c:	8f858020 	lw	a1,-32736(gp)
  409ba0:	00000000 	nop
  409ba4:	24a532dc 	addiu	a1,a1,13020
  409ba8:	8f99813c 	lw	t9,-32452(gp) <fopen>
  409bac:	00000000 	nop
  409bb0:	0320f809 	jalr	t9
  409bb4:	00000000 	nop
  409bb8:	8fbc0018 	lw	gp,24(sp)
  409bbc:	00408021 	move	s0,v0
  409bc0:	16000008 	bnez	s0,409be4 <_init+0x83f0>
  409bc4:	02202021 	move	a0,s1
  409bc8:	8f9981b4 	lw	t9,-32332(gp) <my_free>
  409bcc:	00000000 	nop
  409bd0:	0320f809 	jalr	t9
  409bd4:	00000000 	nop
  409bd8:	8fbc0018 	lw	gp,24(sp)
  409bdc:	10000052 	b	409d28 <_init+0x8534>
  409be0:	2402ffff 	li	v0,-1
  409be4:	24050001 	li	a1,1
  409be8:	8fa60050 	lw	a2,80(sp)
  409bec:	02003821 	move	a3,s0
  409bf0:	8f9981c0 	lw	t9,-32320(gp) <fread>
  409bf4:	00000000 	nop
  409bf8:	0320f809 	jalr	t9
  409bfc:	00000000 	nop
  409c00:	8fbc0018 	lw	gp,24(sp)
  409c04:	02002021 	move	a0,s0
  409c08:	8f998130 	lw	t9,-32464(gp) <fclose>
  409c0c:	00000000 	nop
  409c10:	0320f809 	jalr	t9
  409c14:	00000000 	nop
  409c18:	8fbc0018 	lw	gp,24(sp)
  409c1c:	10000026 	b	409cb8 <_init+0x84c4>
  409c20:	00009021 	move	s2,zero
  409c24:	10400023 	beqz	v0,409cb4 <_init+0x84c0>
  409c28:	00131080 	sll	v0,s3,0x2
  409c2c:	8f818020 	lw	at,-32736(gp)
  409c30:	00000000 	nop
  409c34:	242148e8 	addiu	at,at,18664
  409c38:	00220821 	addu	at,at,v0
  409c3c:	8c220000 	lw	v0,0(at)
  409c40:	00000000 	nop
  409c44:	005c1021 	addu	v0,v0,gp
  409c48:	00400008 	jr	v0
  409c4c:	00000000 	nop
  409c50:	8f848108 	lw	a0,-32504(gp)
  409c54:	10000009 	b	409c7c <_init+0x8488>
  409c58:	02002821 	move	a1,s0
  409c5c:	8f8480d4 	lw	a0,-32556(gp)
  409c60:	10000006 	b	409c7c <_init+0x8488>
  409c64:	02002821 	move	a1,s0
  409c68:	8f8480e8 	lw	a0,-32536(gp)
  409c6c:	10000003 	b	409c7c <_init+0x8488>
  409c70:	02002821 	move	a1,s0
  409c74:	8f848224 	lw	a0,-32220(gp)
  409c78:	02002821 	move	a1,s0
  409c7c:	8f998030 	lw	t9,-32720(gp) <strcpy>
  409c80:	00000000 	nop
  409c84:	0320f809 	jalr	t9
  409c88:	00000000 	nop
  409c8c:	8fbc0018 	lw	gp,24(sp)
  409c90:	10000009 	b	409cb8 <_init+0x84c4>
  409c94:	26730001 	addiu	s3,s3,1
  409c98:	8f848128 	lw	a0,-32472(gp)
  409c9c:	02002821 	move	a1,s0
  409ca0:	8f998030 	lw	t9,-32720(gp) <strcpy>
  409ca4:	00000000 	nop
  409ca8:	0320f809 	jalr	t9
  409cac:	00000000 	nop
  409cb0:	8fbc0018 	lw	gp,24(sp)
  409cb4:	26730001 	addiu	s3,s3,1
  409cb8:	8fa60050 	lw	a2,80(sp)
  409cbc:	00000000 	nop
  409cc0:	0246102a 	slt	v0,s2,a2
  409cc4:	10400011 	beqz	v0,409d0c <_init+0x8518>
  409cc8:	24020017 	li	v0,23
  409ccc:	afa20010 	sw	v0,16(sp)
  409cd0:	02202021 	move	a0,s1
  409cd4:	02402821 	move	a1,s2
  409cd8:	27b000b0 	addiu	s0,sp,176
  409cdc:	02003821 	move	a3,s0
  409ce0:	8f998020 	lw	t9,-32736(gp)
  409ce4:	00000000 	nop
  409ce8:	273999e8 	addiu	t9,t9,-26136
  409cec:	00000000 	nop
  409cf0:	0320f809 	jalr	t9
  409cf4:	00000000 	nop
  409cf8:	8fbc0018 	lw	gp,24(sp)
  409cfc:	00409021 	move	s2,v0
  409d00:	2402ffff 	li	v0,-1
  409d04:	1642ffc7 	bne	s2,v0,409c24 <_init+0x8430>
  409d08:	2e620005 	sltiu	v0,s3,5
  409d0c:	02202021 	move	a0,s1
  409d10:	8f9981b4 	lw	t9,-32332(gp) <my_free>
  409d14:	00000000 	nop
  409d18:	0320f809 	jalr	t9
  409d1c:	00000000 	nop
  409d20:	8fbc0018 	lw	gp,24(sp)
  409d24:	00001021 	move	v0,zero
  409d28:	8fbf00dc 	lw	ra,220(sp)
  409d2c:	8fb300d4 	lw	s3,212(sp)
  409d30:	8fb200d0 	lw	s2,208(sp)
  409d34:	8fb100cc 	lw	s1,204(sp)
  409d38:	8fb000c8 	lw	s0,200(sp)
  409d3c:	03e00008 	jr	ra
  409d40:	27bd00e0 	addiu	sp,sp,224
  409d44:	3c1c0fc0 	lui	gp,0xfc0
  409d48:	279cf54c 	addiu	gp,gp,-2740
  409d4c:	0399e021 	addu	gp,gp,t9
  409d50:	8f858020 	lw	a1,-32736(gp)
  409d54:	00000000 	nop
  409d58:	24a548fc 	addiu	a1,a1,18684		# "Upgrade OK !"
  409d5c:	8f848108 	lw	a0,-32504(gp)
  409d60:	80a20000 	lb	v0,0(a1)
  409d64:	80a30001 	lb	v1,1(a1)
  409d68:	a0820000 	sb	v0,0(a0)
  409d6c:	a0830001 	sb	v1,1(a0)
  409d70:	80a20002 	lb	v0,2(a1)
  409d74:	80a30003 	lb	v1,3(a1)
  409d78:	a0820002 	sb	v0,2(a0)
  409d7c:	a0830003 	sb	v1,3(a0)
  409d80:	80a20004 	lb	v0,4(a1)
  409d84:	80a30005 	lb	v1,5(a1)
  409d88:	a0820004 	sb	v0,4(a0)
  409d8c:	a0830005 	sb	v1,5(a0)
  409d90:	80a20006 	lb	v0,6(a1)
  409d94:	80a30007 	lb	v1,7(a1)
  409d98:	a0820006 	sb	v0,6(a0)
  409d9c:	a0830007 	sb	v1,7(a0)
  409da0:	80a20008 	lb	v0,8(a1)
  409da4:	80a30009 	lb	v1,9(a1)
  409da8:	a0820008 	sb	v0,8(a0)
  409dac:	a0830009 	sb	v1,9(a0)
  409db0:	80a2000a 	lb	v0,10(a1)
  409db4:	80a3000b 	lb	v1,11(a1)
  409db8:	a082000a 	sb	v0,10(a0)
  409dbc:	a083000b 	sb	v1,11(a0)
  409dc0:	80a2000c 	lb	v0,12(a1)
  409dc4:	00000000 	nop
  409dc8:	a082000c 	sb	v0,12(a0)
  409dcc:	8f858020 	lw	a1,-32736(gp)
  409dd0:	00000000 	nop
  409dd4:	24a5490c 	addiu	a1,a1,18700		# "Upgrading Fail !"
  409dd8:	8f8480d4 	lw	a0,-32556(gp)
  409ddc:	80a20000 	lb	v0,0(a1)
  409de0:	80a30001 	lb	v1,1(a1)
  409de4:	a0820000 	sb	v0,0(a0)
  409de8:	a0830001 	sb	v1,1(a0)
  409dec:	80a20002 	lb	v0,2(a1)
  409df0:	80a30003 	lb	v1,3(a1)
  409df4:	a0820002 	sb	v0,2(a0)
  409df8:	a0830003 	sb	v1,3(a0)
  409dfc:	80a20004 	lb	v0,4(a1)
  409e00:	80a30005 	lb	v1,5(a1)
  409e04:	a0820004 	sb	v0,4(a0)
  409e08:	a0830005 	sb	v1,5(a0)
  409e0c:	80a20006 	lb	v0,6(a1)
  409e10:	80a30007 	lb	v1,7(a1)
  409e14:	a0820006 	sb	v0,6(a0)
  409e18:	a0830007 	sb	v1,7(a0)
  409e1c:	80a20008 	lb	v0,8(a1)
  409e20:	80a30009 	lb	v1,9(a1)
  409e24:	a0820008 	sb	v0,8(a0)
  409e28:	a0830009 	sb	v1,9(a0)
  409e2c:	80a2000a 	lb	v0,10(a1)
  409e30:	80a3000b 	lb	v1,11(a1)
  409e34:	a082000a 	sb	v0,10(a0)
  409e38:	a083000b 	sb	v1,11(a0)
  409e3c:	80a2000c 	lb	v0,12(a1)
  409e40:	80a3000d 	lb	v1,13(a1)
  409e44:	a082000c 	sb	v0,12(a0)
  409e48:	a083000d 	sb	v1,13(a0)
  409e4c:	80a2000e 	lb	v0,14(a1)
  409e50:	80a3000f 	lb	v1,15(a1)
  409e54:	a082000e 	sb	v0,14(a0)
  409e58:	a083000f 	sb	v1,15(a0)
  409e5c:	80a20010 	lb	v0,16(a1)
  409e60:	00000000 	nop
  409e64:	a0820010 	sb	v0,16(a0)
  409e68:	8f858020 	lw	a1,-32736(gp)
  409e6c:	00000000 	nop
  409e70:	24a54920 	addiu	a1,a1,18720		# "Rebooting ..."
  409e74:	8f8480e8 	lw	a0,-32536(gp)
  409e78:	80a20000 	lb	v0,0(a1)
  409e7c:	80a30001 	lb	v1,1(a1)
  409e80:	a0820000 	sb	v0,0(a0)
  409e84:	a0830001 	sb	v1,1(a0)
  409e88:	80a20002 	lb	v0,2(a1)
  409e8c:	80a30003 	lb	v1,3(a1)
  409e90:	a0820002 	sb	v0,2(a0)
  409e94:	a0830003 	sb	v1,3(a0)
  409e98:	80a20004 	lb	v0,4(a1)
  409e9c:	80a30005 	lb	v1,5(a1)
  409ea0:	a0820004 	sb	v0,4(a0)
  409ea4:	a0830005 	sb	v1,5(a0)
  409ea8:	80a20006 	lb	v0,6(a1)
  409eac:	80a30007 	lb	v1,7(a1)
  409eb0:	a0820006 	sb	v0,6(a0)
  409eb4:	a0830007 	sb	v1,7(a0)
  409eb8:	80a20008 	lb	v0,8(a1)
  409ebc:	80a30009 	lb	v1,9(a1)
  409ec0:	a0820008 	sb	v0,8(a0)
  409ec4:	a0830009 	sb	v1,9(a0)
  409ec8:	80a2000a 	lb	v0,10(a1)
  409ecc:	80a3000b 	lb	v1,11(a1)
  409ed0:	a082000a 	sb	v0,10(a0)
  409ed4:	a083000b 	sb	v1,11(a0)
  409ed8:	80a2000c 	lb	v0,12(a1)
  409edc:	80a3000d 	lb	v1,13(a1)
  409ee0:	a082000c 	sb	v0,12(a0)
  409ee4:	a083000d 	sb	v1,13(a0)
  409ee8:	8f858020 	lw	a1,-32736(gp)
  409eec:	00000000 	nop
  409ef0:	24a54930 	addiu	a1,a1,18736		# "Please Wait!"
  409ef4:	8f848224 	lw	a0,-32220(gp)
  409ef8:	80a20000 	lb	v0,0(a1)
  409efc:	80a30001 	lb	v1,1(a1)
  409f00:	a0820000 	sb	v0,0(a0)
  409f04:	a0830001 	sb	v1,1(a0)
  409f08:	80a20002 	lb	v0,2(a1)
  409f0c:	80a30003 	lb	v1,3(a1)
  409f10:	a0820002 	sb	v0,2(a0)
  409f14:	a0830003 	sb	v1,3(a0)
  409f18:	80a20004 	lb	v0,4(a1)
  409f1c:	80a30005 	lb	v1,5(a1)
  409f20:	a0820004 	sb	v0,4(a0)
  409f24:	a0830005 	sb	v1,5(a0)
  409f28:	80a20006 	lb	v0,6(a1)
  409f2c:	80a30007 	lb	v1,7(a1)
  409f30:	a0820006 	sb	v0,6(a0)
  409f34:	a0830007 	sb	v1,7(a0)
  409f38:	80a20008 	lb	v0,8(a1)
  409f3c:	80a30009 	lb	v1,9(a1)
  409f40:	a0820008 	sb	v0,8(a0)
  409f44:	a0830009 	sb	v1,9(a0)
  409f48:	80a2000a 	lb	v0,10(a1)
  409f4c:	80a3000b 	lb	v1,11(a1)
  409f50:	a082000a 	sb	v0,10(a0)
  409f54:	a083000b 	sb	v1,11(a0)
  409f58:	80a2000c 	lb	v0,12(a1)
  409f5c:	00000000 	nop
  409f60:	a082000c 	sb	v0,12(a0)
  409f64:	8f858020 	lw	a1,-32736(gp)
  409f68:	00000000 	nop
  409f6c:	24a54940 	addiu	a1,a1,18752		# "H/W Initializing"
  409f70:	8f848128 	lw	a0,-32472(gp)
  409f74:	80a20000 	lb	v0,0(a1)
  409f78:	80a30001 	lb	v1,1(a1)
  409f7c:	a0820000 	sb	v0,0(a0)
  409f80:	a0830001 	sb	v1,1(a0)
  409f84:	80a20002 	lb	v0,2(a1)
  409f88:	80a30003 	lb	v1,3(a1)
  409f8c:	a0820002 	sb	v0,2(a0)
  409f90:	a0830003 	sb	v1,3(a0)
  409f94:	80a20004 	lb	v0,4(a1)
  409f98:	80a30005 	lb	v1,5(a1)
  409f9c:	a0820004 	sb	v0,4(a0)
  409fa0:	a0830005 	sb	v1,5(a0)
  409fa4:	80a20006 	lb	v0,6(a1)
  409fa8:	80a30007 	lb	v1,7(a1)
  409fac:	a0820006 	sb	v0,6(a0)
  409fb0:	a0830007 	sb	v1,7(a0)
  409fb4:	80a20008 	lb	v0,8(a1)
  409fb8:	80a30009 	lb	v1,9(a1)
  409fbc:	a0820008 	sb	v0,8(a0)
  409fc0:	a0830009 	sb	v1,9(a0)
  409fc4:	80a2000a 	lb	v0,10(a1)
  409fc8:	80a3000b 	lb	v1,11(a1)
  409fcc:	a082000a 	sb	v0,10(a0)
  409fd0:	a083000b 	sb	v1,11(a0)
  409fd4:	80a2000c 	lb	v0,12(a1)
  409fd8:	80a3000d 	lb	v1,13(a1)
  409fdc:	a082000c 	sb	v0,12(a0)
  409fe0:	a083000d 	sb	v1,13(a0)
  409fe4:	80a2000e 	lb	v0,14(a1)
  409fe8:	80a3000f 	lb	v1,15(a1)
  409fec:	a082000e 	sb	v0,14(a0)
  409ff0:	a083000f 	sb	v1,15(a0)
  409ff4:	80a20010 	lb	v0,16(a1)
  409ff8:	00000000 	nop
  409ffc:	a0820010 	sb	v0,16(a0)
  40a000:	03e00008 	jr	ra
  40a004:	00000000 	nop
  
  
  40a008:	3c1c0fc0 	lui	gp,0xfc0
  40a00c:	279cf288 	addiu	gp,gp,-3448
  40a010:	0399e021 	addu	gp,gp,t9
  40a014:	27bdffe0 	addiu	sp,sp,-32
  40a018:	afbc0010 	sw	gp,16(sp)
  40a01c:	afbf001c 	sw	ra,28(sp)
  40a020:	afbc0018 	sw	gp,24(sp)
  40a024:	8f8181f0 	lw	at,-32272(gp)
  40a028:	00000000 	nop
  40a02c:	ac200000 	sw	zero,0(at)
  40a030:	240403e8 	li	a0,1000
  40a034:	8f9981e8 	lw	t9,-32280(gp) <sys_sleep>
  40a038:	00000000 	nop
  40a03c:	0320f809 	jalr	t9
  40a040:	00000000 	nop
  40a044:	8fbc0010 	lw	gp,16(sp)
  40a048:	00000000 	nop
  40a04c:	8f8281f0 	lw	v0,-32272(gp)
  40a050:	00000000 	nop
  40a054:	8c420000 	lw	v0,0(v0)
  40a058:	00000000 	nop
  40a05c:	1040fff5 	beqz	v0,40a034 <_init+0x8840>
  40a060:	240403e8 	li	a0,1000
  40a064:	8f99826c 	lw	t9,-32148(gp) <sys_currtime>
  40a068:	00000000 	nop
  40a06c:	0320f809 	jalr	t9
  40a070:	00000000 	nop
  40a074:	8fbc0010 	lw	gp,16(sp)
  40a078:	00000000 	nop
  40a07c:	8f8481f0 	lw	a0,-32272(gp)
  40a080:	00000000 	nop
  40a084:	8c840000 	lw	a0,0(a0)
  40a088:	00402821 	move	a1,v0
  40a08c:	8f998160 	lw	t9,-32416(gp) <sys_difftime>
  40a090:	00000000 	nop
  40a094:	0320f809 	jalr	t9
  40a098:	00000000 	nop
  40a09c:	8fbc0010 	lw	gp,16(sp)
  40a0a0:	3c030001 	lui	v1,0x1
  40a0a4:	3463d4c0 	ori	v1,v1,0xd4c0
  40a0a8:	0062182b 	sltu	v1,v1,v0
  40a0ac:	1060ffe1 	beqz	v1,40a034 <_init+0x8840>
  40a0b0:	240403e8 	li	a0,1000
  40a0b4:	8f82807c 	lw	v0,-32644(gp)
  40a0b8:	00000000 	nop
  40a0bc:	8c420000 	lw	v0,0(v0)
  40a0c0:	8f8181f0 	lw	at,-32272(gp)
  40a0c4:	00000000 	nop
  40a0c8:	ac200000 	sw	zero,0(at)
  40a0cc:	1040ffd9 	beqz	v0,40a034 <_init+0x8840>
  40a0d0:	00000000 	nop
  40a0d4:	8f848020 	lw	a0,-32736(gp)
  40a0d8:	00000000 	nop
  40a0dc:	24844954 	addiu	a0,a0,18772		# "tftp auto free"
  40a0e0:	8f998100 	lw	t9,-32512(gp) <printf>
  40a0e4:	00000000 	nop
  40a0e8:	0320f809 	jalr	t9
  40a0ec:	00000000 	nop
  40a0f0:	8fbc0010 	lw	gp,16(sp)
  40a0f4:	00000000 	nop
  40a0f8:	8f84807c 	lw	a0,-32644(gp)
  40a0fc:	00000000 	nop
  40a100:	8c840000 	lw	a0,0(a0)
  40a104:	8f998114 	lw	t9,-32492(gp) <shmdt>
  40a108:	00000000 	nop
  40a10c:	0320f809 	jalr	t9
  40a110:	00000000 	nop
  40a114:	8fbc0010 	lw	gp,16(sp)
  40a118:	00000000 	nop
  40a11c:	8f81807c 	lw	at,-32644(gp)
  40a120:	00000000 	nop
  40a124:	ac200000 	sw	zero,0(at)
  40a128:	00002821 	move	a1,zero
  40a12c:	8f8480bc 	lw	a0,-32580(gp)
  40a130:	00000000 	nop
  40a134:	8c840000 	lw	a0,0(a0)
  40a138:	00003021 	move	a2,zero
  40a13c:	8f9980e0 	lw	t9,-32544(gp) <shmctl>
  40a140:	00000000 	nop
  40a144:	0320f809 	jalr	t9
  40a148:	00000000 	nop
  40a14c:	8fbc0010 	lw	gp,16(sp)
  40a150:	1000ffb8 	b	40a034 <_init+0x8840>
  40a154:	240403e8 	li	a0,1000
  
  40a158:	3c1c0fc0 	lui	gp,0xfc0
  40a15c:	279cf138 	addiu	gp,gp,-3784
  40a160:	0399e021 	addu	gp,gp,t9
  40a164:	27bdffd8 	addiu	sp,sp,-40
  40a168:	afbc0010 	sw	gp,16(sp)
  40a16c:	afbf0020 	sw	ra,32(sp)
  40a170:	afbc001c 	sw	gp,28(sp)
  40a174:	afb00018 	sw	s0,24(sp)
  40a178:	8f998240 	lw	t9,-32192(gp) <LCDInit>
  40a17c:	00000000 	nop
  40a180:	0320f809 	jalr	t9
  40a184:	00000000 	nop
  40a188:	8fbc0010 	lw	gp,16(sp)
  40a18c:	00000000 	nop
  40a190:	8f82801c 	lw	v0,-32740(gp)
  40a194:	00000000 	nop
  40a198:	244211fc 	addiu	v0,v0,4604
  40a19c:	8c420000 	lw	v0,0(v0)
  40a1a0:	00000000 	nop
  40a1a4:	10400038 	beqz	v0,40a288 <_init+0x8a94>
  40a1a8:	00008021 	move	s0,zero
  40a1ac:	8f848220 	lw	a0,-32224(gp)
  40a1b0:	00000000 	nop
  40a1b4:	8c840000 	lw	a0,0(a0)
  40a1b8:	2405123f 	li	a1,4671
  40a1bc:	02003021 	move	a2,s0
  40a1c0:	26100001 	addiu	s0,s0,1
  40a1c4:	8f998094 	lw	t9,-32620(gp) <ioctl>
  40a1c8:	00000000 	nop
  40a1cc:	0320f809 	jalr	t9
  40a1d0:	00000000 	nop
  40a1d4:	8fbc0010 	lw	gp,16(sp)
  40a1d8:	24040064 	li	a0,100
  40a1dc:	8f9981e8 	lw	t9,-32280(gp) <sys_sleep>
  40a1e0:	00000000 	nop
  40a1e4:	0320f809 	jalr	t9
  40a1e8:	00000000 	nop
  40a1ec:	8fbc0010 	lw	gp,16(sp)
  40a1f0:	2a020040 	slti	v0,s0,64
  40a1f4:	14400002 	bnez	v0,40a200 <_init+0x8a0c>
  40a1f8:	00000000 	nop
  40a1fc:	00008021 	move	s0,zero
  40a200:	8f99826c 	lw	t9,-32148(gp) <sys_currtime>
  40a204:	00000000 	nop
  40a208:	0320f809 	jalr	t9
  40a20c:	00000000 	nop
  40a210:	8fbc0010 	lw	gp,16(sp)
  40a214:	00000000 	nop
  40a218:	8f84801c 	lw	a0,-32740(gp)
  40a21c:	00000000 	nop
  40a220:	248401dc 	addiu	a0,a0,476
  40a224:	8c840000 	lw	a0,0(a0)
  40a228:	00402821 	move	a1,v0
  40a22c:	8f998160 	lw	t9,-32416(gp) <sys_difftime>
  40a230:	00000000 	nop
  40a234:	0320f809 	jalr	t9
  40a238:	00000000 	nop
  40a23c:	8fbc0010 	lw	gp,16(sp)
  40a240:	2c422711 	sltiu	v0,v0,10001
  40a244:	14400009 	bnez	v0,40a26c <_init+0x8a78>
  40a248:	24020001 	li	v0,1
  40a24c:	8f81801c 	lw	at,-32740(gp)
  40a250:	00000000 	nop
  40a254:	242101e0 	addiu	at,at,480
  40a258:	ac220000 	sw	v0,0(at)
  40a25c:	8f81801c 	lw	at,-32740(gp)
  40a260:	00000000 	nop
  40a264:	242111fc 	addiu	at,at,4604
  40a268:	ac200000 	sw	zero,0(at)
  40a26c:	8f82801c 	lw	v0,-32740(gp)
  40a270:	00000000 	nop
  40a274:	244211fc 	addiu	v0,v0,4604
  40a278:	8c420000 	lw	v0,0(v0)
  40a27c:	00000000 	nop
  40a280:	1440ffca 	bnez	v0,40a1ac <_init+0x89b8>
  40a284:	00000000 	nop
  40a288:	2405123f 	li	a1,4671
  40a28c:	8f848220 	lw	a0,-32224(gp)
  40a290:	00000000 	nop
  40a294:	8c840000 	lw	a0,0(a0)
  40a298:	00003021 	move	a2,zero
  40a29c:	8f998094 	lw	t9,-32620(gp) <ioctl>
  40a2a0:	00000000 	nop
  40a2a4:	0320f809 	jalr	t9
  40a2a8:	00000000 	nop
  40a2ac:	8fbc0010 	lw	gp,16(sp)
  40a2b0:	00000000 	nop
  40a2b4:	8f82801c 	lw	v0,-32740(gp)
  40a2b8:	00000000 	nop
  40a2bc:	244201e0 	addiu	v0,v0,480
  40a2c0:	8c420000 	lw	v0,0(v0)
  40a2c4:	00000000 	nop
  40a2c8:	10400020 	beqz	v0,40a34c <_init+0x8b58>
  40a2cc:	00000000 	nop
  40a2d0:	8f82801c 	lw	v0,-32740(gp)
  40a2d4:	00000000 	nop
  40a2d8:	244201f8 	addiu	v0,v0,504
  40a2dc:	8f8180c4 	lw	at,-32572(gp)
  40a2e0:	00000000 	nop
  40a2e4:	ac220000 	sw	v0,0(at)
  40a2e8:	8f81817c 	lw	at,-32388(gp)
  40a2ec:	00000000 	nop
  40a2f0:	ac200000 	sw	zero,0(at)
  40a2f4:	8f848020 	lw	a0,-32736(gp)
  40a2f8:	00000000 	nop
  40a2fc:	24844964 	addiu	a0,a0,18788		# "Wait for Upgrade"
  40a300:	8f858020 	lw	a1,-32736(gp)
  40a304:	00000000 	nop
  40a308:	24a53590 	addiu	a1,a1,13712		# "192.168.15.1"
  40a30c:	8f998018 	lw	t9,-32744(gp)
  40a310:	00000000 	nop
  40a314:	27392838 	addiu	t9,t9,10296		# 0x402838
  40a318:	00000000 	nop
  40a31c:	0320f809 	jalr	t9
  40a320:	00000000 	nop
  40a324:	8fbc0010 	lw	gp,16(sp)
  40a328:	00000000 	nop
  40a32c:	8f998018 	lw	t9,-32744(gp)
  40a330:	00000000 	nop
  40a334:	273934ec 	addiu	t9,t9,13548		# 0x4034ec
  40a338:	00000000 	nop
  40a33c:	0320f809 	jalr	t9
  40a340:	00000000 	nop
  40a344:	8fbc0010 	lw	gp,16(sp)
  40a348:	00000000 	nop
  40a34c:	8f9981d0 	lw	t9,-32304(gp) <LCDFin>
  40a350:	00000000 	nop
  40a354:	0320f809 	jalr	t9
  40a358:	00000000 	nop
  40a35c:	8fbc0010 	lw	gp,16(sp)
  40a360:	00000000 	nop
  40a364:	8f998054 	lw	t9,-32684(gp) <sys_thread_exit>
  40a368:	00000000 	nop
  40a36c:	0320f809 	jalr	t9
  40a370:	00000000 	nop
  40a374:	8fbc0010 	lw	gp,16(sp)
  40a378:	8fbf0020 	lw	ra,32(sp)
  40a37c:	8fb00018 	lw	s0,24(sp)
  40a380:	03e00008 	jr	ra
  
  
  
  40a384:	27bd0028 	addiu	sp,sp,40
  40a388:	3c1c0fc0 	lui	gp,0xfc0
  40a38c:	279cef08 	addiu	gp,gp,-4344
  40a390:	0399e021 	addu	gp,gp,t9
  40a394:	27bdfdb0 	addiu	sp,sp,-592
  40a398:	afbc0010 	sw	gp,16(sp)
  40a39c:	afbf024c 	sw	ra,588(sp)
  40a3a0:	afbc0248 	sw	gp,584(sp)
  40a3a4:	afb10244 	sw	s1,580(sp)
  40a3a8:	afb00240 	sw	s0,576(sp)
  40a3ac:	00808021 	move	s0,a0
  40a3b0:	00a08821 	move	s1,a1
  40a3b4:	02111021 	addu	v0,s0,s1
  40a3b8:	a0400000 	sb	zero,0(v0)
  40a3bc:	8f848020 	lw	a0,-32736(gp)
  40a3c0:	00000000 	nop
  40a3c4:	24844978 	addiu	a0,a0,18808		# "cmd_recv: %s"
  40a3c8:	02002821 	move	a1,s0
  40a3cc:	8f998100 	lw	t9,-32512(gp) <printf>
  40a3d0:	00000000 	nop
  40a3d4:	0320f809 	jalr	t9
  40a3d8:	00000000 	nop
  40a3dc:	8fbc0010 	lw	gp,16(sp)
  40a3e0:	02002021 	move	a0,s0
  40a3e4:	02202821 	move	a1,s1
  40a3e8:	27a60018 	addiu	a2,sp,24
  40a3ec:	8f998020 	lw	t9,-32736(gp)
  40a3f0:	00000000 	nop
  40a3f4:	27399724 	addiu	t9,t9,-26844
  40a3f8:	00000000 	nop
  40a3fc:	0320f809 	jalr	t9
  40a400:	00000000 	nop
  40a404:	8fbc0010 	lw	gp,16(sp)
  40a408:	8fa40018 	lw	a0,24(sp)
  40a40c:	8f858020 	lw	a1,-32736(gp)
  40a410:	00000000 	nop
  40a414:	24a54988 	addiu	a1,a1,18824		# "share_mem_id"
  40a418:	8f99823c 	lw	t9,-32196(gp) <strcmp>
  40a41c:	00000000 	nop
  40a420:	0320f809 	jalr	t9
  40a424:	00000000 	nop
  40a428:	8fbc0010 	lw	gp,16(sp)
  40a42c:	14400119 	bnez	v0,40a894 <_init+0x90a0>
  40a430:	00000000 	nop
  40a434:	8f998020 	lw	t9,-32736(gp)
  40a438:	00000000 	nop
  40a43c:	27399b0c 	addiu	t9,t9,-25844
  40a440:	00000000 	nop
  40a444:	0320f809 	jalr	t9
  40a448:	00000000 	nop
  40a44c:	8fbc0010 	lw	gp,16(sp)
  40a450:	04410008 	bgez	v0,40a474 <_init+0x8c80>
  40a454:	00000000 	nop
  40a458:	8f998020 	lw	t9,-32736(gp)
  40a45c:	00000000 	nop
  40a460:	27399d44 	addiu	t9,t9,-25276
  40a464:	00000000 	nop
  40a468:	0320f809 	jalr	t9
  40a46c:	00000000 	nop
  40a470:	8fbc0010 	lw	gp,16(sp)
  40a474:	8fa4001c 	lw	a0,28(sp)
  40a478:	8f9980b0 	lw	t9,-32592(gp) <atoi>
  40a47c:	00000000 	nop
  40a480:	0320f809 	jalr	t9
  40a484:	00000000 	nop
  40a488:	8fbc0010 	lw	gp,16(sp)
  40a48c:	8fa40020 	lw	a0,32(sp)
  40a490:	8f818080 	lw	at,-32640(gp)
  40a494:	00000000 	nop
  40a498:	ac220000 	sw	v0,0(at)
  40a49c:	8f9980b0 	lw	t9,-32592(gp) <atoi>
  40a4a0:	00000000 	nop
  40a4a4:	0320f809 	jalr	t9
  40a4a8:	00000000 	nop
  40a4ac:	8fbc0010 	lw	gp,16(sp)
  40a4b0:	8fa40024 	lw	a0,36(sp)
  40a4b4:	00408021 	move	s0,v0
  40a4b8:	8f9980b0 	lw	t9,-32592(gp) <atoi>
  40a4bc:	00000000 	nop
  40a4c0:	0320f809 	jalr	t9
  40a4c4:	00000000 	nop
  40a4c8:	8fbc0010 	lw	gp,16(sp)
  40a4cc:	00002821 	move	a1,zero
  40a4d0:	00003021 	move	a2,zero
  40a4d4:	8f848080 	lw	a0,-32640(gp)
  40a4d8:	00000000 	nop
  40a4dc:	8c840000 	lw	a0,0(a0)
  40a4e0:	00408821 	move	s1,v0
  40a4e4:	8f998040 	lw	t9,-32704(gp) <shmat>
  40a4e8:	00000000 	nop
  40a4ec:	0320f809 	jalr	t9
  40a4f0:	00000000 	nop
  40a4f4:	8fbc0010 	lw	gp,16(sp)
  40a4f8:	00000000 	nop
  40a4fc:	8f81801c 	lw	at,-32740(gp)
  40a500:	00000000 	nop
  40a504:	242101f0 	addiu	at,at,496
  40a508:	ac220000 	sw	v0,0(at)
  40a50c:	00002021 	move	a0,zero
  40a510:	8f998018 	lw	t9,-32744(gp)
  40a514:	00000000 	nop
  40a518:	27391e34 	addiu	t9,t9,7732		# 0x401e34
  40a51c:	00000000 	nop
  40a520:	0320f809 	jalr	t9
  40a524:	00000000 	nop
  40a528:	8fbc0010 	lw	gp,16(sp)
  40a52c:	00000000 	nop
  40a530:	8f848020 	lw	a0,-32736(gp)
  40a534:	00000000 	nop
  40a538:	248446c4 	addiu	a0,a0,18116		# "rmmod sdvepvoip;rmmod sdvepfxs;"
  40a53c:	8f9981ec 	lw	t9,-32276(gp) <system>
  40a540:	00000000 	nop
  40a544:	0320f809 	jalr	t9
  40a548:	00000000 	nop
  40a54c:	8fbc0010 	lw	gp,16(sp)
  40a550:	00000000 	nop
  40a554:	8f998240 	lw	t9,-32192(gp) <LCDInit>
  40a558:	00000000 	nop
  40a55c:	0320f809 	jalr	t9
  40a560:	00000000 	nop
  40a564:	8fbc0010 	lw	gp,16(sp)
  40a568:	00000000 	nop
  40a56c:	8f9981b8 	lw	t9,-32328(gp) <FontFin>
  40a570:	00000000 	nop
  40a574:	0320f809 	jalr	t9
  40a578:	00000000 	nop
  40a57c:	8fbc0010 	lw	gp,16(sp)
  40a580:	00000000 	nop
  40a584:	8f8481a8 	lw	a0,-32344(gp)
  40a588:	8f9981fc 	lw	t9,-32260(gp) <GetBtldBootLanguage>
  40a58c:	00000000 	nop
  40a590:	0320f809 	jalr	t9
  40a594:	00000000 	nop
  40a598:	8fbc0010 	lw	gp,16(sp)
  40a59c:	00000000 	nop
  40a5a0:	8f8481a8 	lw	a0,-32344(gp)
  40a5a4:	00000000 	nop
  40a5a8:	8c840000 	lw	a0,0(a0)
  40a5ac:	8f99803c 	lw	t9,-32708(gp) <FontInit>
  40a5b0:	00000000 	nop
  40a5b4:	0320f809 	jalr	t9
  40a5b8:	00000000 	nop
  40a5bc:	8fbc0010 	lw	gp,16(sp)
  40a5c0:	02002821 	move	a1,s0
  40a5c4:	8f84801c 	lw	a0,-32740(gp)
  40a5c8:	00000000 	nop
  40a5cc:	248401f0 	addiu	a0,a0,496
  40a5d0:	8c840000 	lw	a0,0(a0)
  40a5d4:	02203021 	move	a2,s1
  40a5d8:	8f998018 	lw	t9,-32744(gp)
  40a5dc:	00000000 	nop
  40a5e0:	273961d4 	addiu	t9,t9,25044		# 0x4061d4
  40a5e4:	00000000 	nop
  40a5e8:	0320f809 	jalr	t9
  40a5ec:	00000000 	nop
  40a5f0:	8fbc0010 	lw	gp,16(sp)
  40a5f4:	14400046 	bnez	v0,40a710 <_init+0x8f1c>
  40a5f8:	00002821 	move	a1,zero
  40a5fc:	8f848108 	lw	a0,-32504(gp)
  40a600:	8f998018 	lw	t9,-32744(gp)
  40a604:	00000000 	nop
  40a608:	27392838 	addiu	t9,t9,10296		# 0x402838
  40a60c:	00000000 	nop
  40a610:	0320f809 	jalr	t9
  40a614:	00000000 	nop
  40a618:	8fbc0010 	lw	gp,16(sp)
  40a61c:	1220001a 	beqz	s1,40a688 <_init+0x8e94>
  40a620:	240405dc 	li	a0,1500
  40a624:	8f9981e8 	lw	t9,-32280(gp) <sys_sleep>
  40a628:	00000000 	nop
  40a62c:	0320f809 	jalr	t9
  40a630:	00000000 	nop
  40a634:	8fbc0010 	lw	gp,16(sp)
  40a638:	00000000 	nop
  40a63c:	8f8480e8 	lw	a0,-32536(gp)
  40a640:	8f858224 	lw	a1,-32220(gp)
  40a644:	8f998018 	lw	t9,-32744(gp)
  40a648:	00000000 	nop
  40a64c:	27392838 	addiu	t9,t9,10296		# 0x402838
  40a650:	00000000 	nop
  40a654:	0320f809 	jalr	t9
  40a658:	00000000 	nop
  40a65c:	8fbc0010 	lw	gp,16(sp)
  40a660:	00000000 	nop
  40a664:	8f998018 	lw	t9,-32744(gp)
  40a668:	00000000 	nop
  40a66c:	273929a0 	addiu	t9,t9,10656		# 0x4029a0
  40a670:	00000000 	nop
  40a674:	0320f809 	jalr	t9
  40a678:	00000000 	nop
  40a67c:	8fbc0010 	lw	gp,16(sp)
  40a680:	100000ac 	b	40a934 <_init+0x9140>
  40a684:	00000000 	nop
  40a688:	8f998018 	lw	t9,-32744(gp)
  40a68c:	00000000 	nop
  40a690:	27394d3c 	addiu	t9,t9,19772		# 0x404d3c
  40a694:	00000000 	nop
  40a698:	0320f809 	jalr	t9
  40a69c:	00000000 	nop
  40a6a0:	8fbc0010 	lw	gp,16(sp)
  40a6a4:	00000000 	nop
  40a6a8:	8f998268 	lw	t9,-32152(gp) <LEDInit>
  40a6ac:	00000000 	nop
  40a6b0:	0320f809 	jalr	t9
  40a6b4:	00000000 	nop
  40a6b8:	8fbc0010 	lw	gp,16(sp)
  40a6bc:	24100003 	li	s0,3
  40a6c0:	02002021 	move	a0,s0
  40a6c4:	24050001 	li	a1,1
  40a6c8:	00003021 	move	a2,zero
  40a6cc:	8f9981dc 	lw	t9,-32292(gp) <LEDSwitch>
  40a6d0:	00000000 	nop
  40a6d4:	0320f809 	jalr	t9
  40a6d8:	00000000 	nop
  40a6dc:	8fbc0010 	lw	gp,16(sp)
  40a6e0:	26100001 	addiu	s0,s0,1
  40a6e4:	2a02000f 	slti	v0,s0,15
  40a6e8:	1440fff6 	bnez	v0,40a6c4 <_init+0x8ed0>
  40a6ec:	02002021 	move	a0,s0
  40a6f0:	240400c8 	li	a0,200
  40a6f4:	8f9981e8 	lw	t9,-32280(gp) <sys_sleep>
  40a6f8:	00000000 	nop
  40a6fc:	0320f809 	jalr	t9
  40a700:	00000000 	nop
  40a704:	8fbc0010 	lw	gp,16(sp)
  40a708:	1000fffa 	b	40a6f4 <_init+0x8f00>
  40a70c:	240400c8 	li	a0,200
  40a710:	8f84801c 	lw	a0,-32740(gp)
  40a714:	00000000 	nop
  40a718:	248401f0 	addiu	a0,a0,496
  40a71c:	8c840000 	lw	a0,0(a0)
  40a720:	00000000 	nop
  40a724:	10800016 	beqz	a0,40a780 <_init+0x8f8c>
  40a728:	00000000 	nop
  40a72c:	8f998114 	lw	t9,-32492(gp) <shmdt>
  40a730:	00000000 	nop
  40a734:	0320f809 	jalr	t9
  40a738:	00000000 	nop
  40a73c:	8fbc0010 	lw	gp,16(sp)
  40a740:	00000000 	nop
  40a744:	8f848080 	lw	a0,-32640(gp)
  40a748:	00000000 	nop
  40a74c:	8c840000 	lw	a0,0(a0)
  40a750:	00002821 	move	a1,zero
  40a754:	00003021 	move	a2,zero
  40a758:	8f9980e0 	lw	t9,-32544(gp) <shmctl>
  40a75c:	00000000 	nop
  40a760:	0320f809 	jalr	t9
  40a764:	00000000 	nop
  40a768:	8fbc0010 	lw	gp,16(sp)
  40a76c:	00000000 	nop
  40a770:	8f81801c 	lw	at,-32740(gp)
  40a774:	00000000 	nop
  40a778:	242101f0 	addiu	at,at,496
  40a77c:	ac200000 	sw	zero,0(at)
  40a780:	8f8480d4 	lw	a0,-32556(gp)
  40a784:	8f858224 	lw	a1,-32220(gp)
  40a788:	8f998018 	lw	t9,-32744(gp)
  40a78c:	00000000 	nop
  40a790:	27392838 	addiu	t9,t9,10296		# 0x402838
  40a794:	00000000 	nop
  40a798:	0320f809 	jalr	t9
  40a79c:	00000000 	nop
  40a7a0:	8fbc0010 	lw	gp,16(sp)
  40a7a4:	24040bb8 	li	a0,3000
  40a7a8:	8f9981e8 	lw	t9,-32280(gp) <sys_sleep>
  40a7ac:	00000000 	nop
  40a7b0:	0320f809 	jalr	t9
  40a7b4:	00000000 	nop
  40a7b8:	8fbc0010 	lw	gp,16(sp)
  40a7bc:	1620005d 	bnez	s1,40a934 <_init+0x9140>
  40a7c0:	24100003 	li	s0,3
  40a7c4:	8f998018 	lw	t9,-32744(gp)
  40a7c8:	00000000 	nop
  40a7cc:	27394d3c 	addiu	t9,t9,19772		# 0x404d3c
  40a7d0:	00000000 	nop
  40a7d4:	0320f809 	jalr	t9
  40a7d8:	00000000 	nop
  40a7dc:	8fbc0010 	lw	gp,16(sp)
  40a7e0:	00000000 	nop
  40a7e4:	8f998268 	lw	t9,-32152(gp) <LEDInit>
  40a7e8:	00000000 	nop
  40a7ec:	0320f809 	jalr	t9
  40a7f0:	00000000 	nop
  40a7f4:	8fbc0010 	lw	gp,16(sp)
  40a7f8:	02002021 	move	a0,s0
  40a7fc:	24050001 	li	a1,1
  40a800:	00003021 	move	a2,zero
  40a804:	8f9981dc 	lw	t9,-32292(gp) <LEDSwitch>
  40a808:	00000000 	nop
  40a80c:	0320f809 	jalr	t9
  40a810:	00000000 	nop
  40a814:	8fbc0010 	lw	gp,16(sp)
  40a818:	26100001 	addiu	s0,s0,1
  40a81c:	2a02000f 	slti	v0,s0,15
  40a820:	1440fff6 	bnez	v0,40a7fc <_init+0x9008>
  40a824:	02002021 	move	a0,s0
  40a828:	240400c8 	li	a0,200
  40a82c:	8f9981e8 	lw	t9,-32280(gp) <sys_sleep>
  40a830:	00000000 	nop
  40a834:	0320f809 	jalr	t9
  40a838:	00000000 	nop
  40a83c:	8fbc0010 	lw	gp,16(sp)
  40a840:	24100003 	li	s0,3
  40a844:	02002021 	move	a0,s0
  40a848:	00002821 	move	a1,zero
  40a84c:	00003021 	move	a2,zero
  40a850:	8f9981dc 	lw	t9,-32292(gp) <LEDSwitch>
  40a854:	00000000 	nop
  40a858:	0320f809 	jalr	t9
  40a85c:	00000000 	nop
  40a860:	8fbc0010 	lw	gp,16(sp)
  40a864:	26100001 	addiu	s0,s0,1
  40a868:	2a02000f 	slti	v0,s0,15
  40a86c:	1440fff6 	bnez	v0,40a848 <_init+0x9054>
  40a870:	02002021 	move	a0,s0
  40a874:	240400c8 	li	a0,200
  40a878:	8f9981e8 	lw	t9,-32280(gp) <sys_sleep>
  40a87c:	00000000 	nop
  40a880:	0320f809 	jalr	t9
  40a884:	00000000 	nop
  40a888:	8fbc0010 	lw	gp,16(sp)
  40a88c:	1000ffda 	b	40a7f8 <_init+0x9004>
  40a890:	24100003 	li	s0,3
  40a894:	8fa40018 	lw	a0,24(sp)
  40a898:	8f858020 	lw	a1,-32736(gp)
  40a89c:	00000000 	nop
  40a8a0:	24a54998 	addiu	a1,a1,18840		# "sscreen_start"
  40a8a4:	8f99823c 	lw	t9,-32196(gp) <strcmp>
  40a8a8:	00000000 	nop
  40a8ac:	0320f809 	jalr	t9
  40a8b0:	00000000 	nop
  40a8b4:	8fbc0010 	lw	gp,16(sp)
  40a8b8:	1440000f 	bnez	v0,40a8f8 <_init+0x9104>
  40a8bc:	24020001 	li	v0,1
  40a8c0:	8f81801c 	lw	at,-32740(gp)
  40a8c4:	00000000 	nop
  40a8c8:	242111fc 	addiu	at,at,4604
  40a8cc:	ac220000 	sw	v0,0(at)
  40a8d0:	8f848020 	lw	a0,-32736(gp)
  40a8d4:	00000000 	nop
  40a8d8:	2484a158 	addiu	a0,a0,-24232
  40a8dc:	8f99825c 	lw	t9,-32164(gp) <sys_begin_thread>
  40a8e0:	00000000 	nop
  40a8e4:	0320f809 	jalr	t9
  40a8e8:	00000000 	nop
  40a8ec:	8fbc0010 	lw	gp,16(sp)
  40a8f0:	10000010 	b	40a934 <_init+0x9140>
  40a8f4:	00000000 	nop
  40a8f8:	8fa40018 	lw	a0,24(sp)
  40a8fc:	8f858020 	lw	a1,-32736(gp)
  40a900:	00000000 	nop
  40a904:	24a549a8 	addiu	a1,a1,18856		# "sscreen_stop"
  40a908:	8f99823c 	lw	t9,-32196(gp) <strcmp>
  40a90c:	00000000 	nop
  40a910:	0320f809 	jalr	t9
  40a914:	00000000 	nop
  40a918:	8fbc0010 	lw	gp,16(sp)
  40a91c:	14400005 	bnez	v0,40a934 <_init+0x9140>
  40a920:	00000000 	nop
  40a924:	8f81801c 	lw	at,-32740(gp)
  40a928:	00000000 	nop
  40a92c:	242111fc 	addiu	at,at,4604
  40a930:	ac200000 	sw	zero,0(at)
  40a934:	8fbf024c 	lw	ra,588(sp)
  40a938:	8fb10244 	lw	s1,580(sp)
  40a93c:	8fb00240 	lw	s0,576(sp)
  40a940:	03e00008 	jr	ra
  40a944:	27bd0250 	addiu	sp,sp,592
  40a948:	3c1c0fc0 	lui	gp,0xfc0
  40a94c:	279ce948 	addiu	gp,gp,-5816
  40a950:	0399e021 	addu	gp,gp,t9
  40a954:	27bdffc8 	addiu	sp,sp,-56
  40a958:	afbc0010 	sw	gp,16(sp)
  40a95c:	afbf0030 	sw	ra,48(sp)
  40a960:	afbc002c 	sw	gp,44(sp)
  40a964:	afb00028 	sw	s0,40(sp)
  40a968:	8f848020 	lw	a0,-32736(gp)
  40a96c:	00000000 	nop
  40a970:	248449b8 	addiu	a0,a0,18872		# "Tftp server CMD thread: begin"
  40a974:	8f998100 	lw	t9,-32512(gp) <printf>
  40a978:	00000000 	nop
  40a97c:	0320f809 	jalr	t9
  40a980:	00000000 	nop
  40a984:	8fbc0010 	lw	gp,16(sp)
  40a988:	00000000 	nop
  40a98c:	8f82815c 	lw	v0,-32420(gp)
  40a990:	00000000 	nop
  40a994:	8c420000 	lw	v0,0(v0)
  40a998:	00000000 	nop
  40a99c:	18400025 	blez	v0,40aa34 <_init+0x9240>
  40a9a0:	24050001 	li	a1,1
  40a9a4:	8f84815c 	lw	a0,-32420(gp)
  40a9a8:	8f998020 	lw	t9,-32736(gp)
  40a9ac:	00000000 	nop
  40a9b0:	273994e4 	addiu	t9,t9,-27420
  40a9b4:	00000000 	nop
  40a9b8:	0320f809 	jalr	t9
  40a9bc:	00000000 	nop
  40a9c0:	8fbc0010 	lw	gp,16(sp)
  40a9c4:	0440fff1 	bltz	v0,40a98c <_init+0x9198>
  40a9c8:	240607d0 	li	a2,2000
  40a9cc:	8f84815c 	lw	a0,-32420(gp)
  40a9d0:	00000000 	nop
  40a9d4:	8c840000 	lw	a0,0(a0)
  40a9d8:	8f90801c 	lw	s0,-32740(gp)
  40a9dc:	00000000 	nop
  40a9e0:	26101580 	addiu	s0,s0,5504
  40a9e4:	00000000 	nop
  40a9e8:	02002821 	move	a1,s0
  40a9ec:	27a70018 	addiu	a3,sp,24
  40a9f0:	8f99827c 	lw	t9,-32132(gp) <udp_recvfrom>
  40a9f4:	00000000 	nop
  40a9f8:	0320f809 	jalr	t9
  40a9fc:	00000000 	nop
  40aa00:	8fbc0010 	lw	gp,16(sp)
  40aa04:	1840ffe1 	blez	v0,40a98c <_init+0x9198>
  40aa08:	02002021 	move	a0,s0
  40aa0c:	00402821 	move	a1,v0
  40aa10:	8f998020 	lw	t9,-32736(gp)
  40aa14:	00000000 	nop
  40aa18:	2739a388 	addiu	t9,t9,-23672
  40aa1c:	00000000 	nop
  40aa20:	0320f809 	jalr	t9
  40aa24:	00000000 	nop
  40aa28:	8fbc0010 	lw	gp,16(sp)
  40aa2c:	1000ffd7 	b	40a98c <_init+0x9198>
  40aa30:	00000000 	nop
  40aa34:	8f848020 	lw	a0,-32736(gp)
  40aa38:	00000000 	nop
  40aa3c:	248449d8 	addiu	a0,a0,18904		# "Tftp server CMD thread: end"
  40aa40:	8f998100 	lw	t9,-32512(gp) <printf>
  40aa44:	00000000 	nop
  40aa48:	0320f809 	jalr	t9
  40aa4c:	00000000 	nop
  40aa50:	8fbc0010 	lw	gp,16(sp)
  40aa54:	8fbf0030 	lw	ra,48(sp)
  40aa58:	8fb00028 	lw	s0,40(sp)
  40aa5c:	8f81815c 	lw	at,-32420(gp)
  40aa60:	00000000 	nop
  40aa64:	ac200000 	sw	zero,0(at)
  40aa68:	03e00008 	jr	ra
  40aa6c:	27bd0038 	addiu	sp,sp,56
  40aa70:	3c1c0fc0 	lui	gp,0xfc0
  40aa74:	279ce820 	addiu	gp,gp,-6112
  40aa78:	0399e021 	addu	gp,gp,t9
  40aa7c:	27bdffc0 	addiu	sp,sp,-64
  40aa80:	afbc0010 	sw	gp,16(sp)
  40aa84:	afbf0038 	sw	ra,56(sp)
  40aa88:	afbc0034 	sw	gp,52(sp)
  40aa8c:	afb00030 	sw	s0,48(sp)
  40aa90:	240222b9 	li	v0,8889
  40aa94:	afa20028 	sw	v0,40(sp)
  40aa98:	27a40028 	addiu	a0,sp,40
  40aa9c:	00002821 	move	a1,zero
  40aaa0:	8f908020 	lw	s0,-32736(gp)
  40aaa4:	00000000 	nop
  40aaa8:	261049f8 	addiu	s0,s0,18936		# "127.0.0.1"
  40aaac:	00000000 	nop
  40aab0:	02003021 	move	a2,s0
  40aab4:	8f998180 	lw	t9,-32384(gp) <udp_open_host>
  40aab8:	00000000 	nop
  40aabc:	0320f809 	jalr	t9
  40aac0:	00000000 	nop
  40aac4:	8fbc0010 	lw	gp,16(sp)
  40aac8:	00000000 	nop
  40aacc:	8f81815c 	lw	at,-32420(gp)
  40aad0:	00000000 	nop
  40aad4:	ac220000 	sw	v0,0(at)
  40aad8:	04400026 	bltz	v0,40ab74 <_init+0x9380>
  40aadc:	27a40018 	addiu	a0,sp,24
  40aae0:	02002821 	move	a1,s0
  40aae4:	240622b8 	li	a2,8888
  40aae8:	8f998084 	lw	t9,-32636(gp) <xsocket_addr>
  40aaec:	00000000 	nop
  40aaf0:	0320f809 	jalr	t9
  40aaf4:	00000000 	nop
  40aaf8:	8fbc0010 	lw	gp,16(sp)
  40aafc:	0440001d 	bltz	v0,40ab74 <_init+0x9380>
  40ab00:	27a50018 	addiu	a1,sp,24
  40ab04:	8f84815c 	lw	a0,-32420(gp)
  40ab08:	00000000 	nop
  40ab0c:	8c840000 	lw	a0,0(a0)
  40ab10:	24060010 	li	a2,16
  40ab14:	8f998088 	lw	t9,-32632(gp) <connect>
  40ab18:	00000000 	nop
  40ab1c:	0320f809 	jalr	t9
  40ab20:	00000000 	nop
  40ab24:	8fbc0010 	lw	gp,16(sp)
  40ab28:	0441000a 	bgez	v0,40ab54 <_init+0x9360>
  40ab2c:	00000000 	nop
  40ab30:	8f848020 	lw	a0,-32736(gp)
  40ab34:	00000000 	nop
  40ab38:	24844a04 	addiu	a0,a0,18948		# "!1 CMD CONNECTED UDP connection failed!!!"
  40ab3c:	8f998100 	lw	t9,-32512(gp) <printf>
  40ab40:	00000000 	nop
  40ab44:	0320f809 	jalr	t9
  40ab48:	00000000 	nop
  40ab4c:	8fbc0010 	lw	gp,16(sp)
  40ab50:	00000000 	nop
  40ab54:	8f848020 	lw	a0,-32736(gp)
  40ab58:	00000000 	nop
  40ab5c:	2484a948 	addiu	a0,a0,-22200
  40ab60:	8f99825c 	lw	t9,-32164(gp) <sys_begin_thread>
  40ab64:	00000000 	nop
  40ab68:	0320f809 	jalr	t9
  40ab6c:	00000000 	nop
  40ab70:	8fbc0010 	lw	gp,16(sp)
  40ab74:	8fbf0038 	lw	ra,56(sp)
  40ab78:	8fb00030 	lw	s0,48(sp)
  40ab7c:	03e00008 	jr	ra
  40ab80:	27bd0040 	addiu	sp,sp,64

0040ab84 <main>:
  40ab84:	3c1c0fc0 	lui	gp,0xfc0
  40ab88:	279ce70c 	addiu	gp,gp,-6388
  40ab8c:	0399e021 	addu	gp,gp,t9
  40ab90:	27bdff48 	addiu	sp,sp,-184
  40ab94:	afbc0010 	sw	gp,16(sp)
  40ab98:	afbf00b0 	sw	ra,176(sp)
  40ab9c:	afbc00ac 	sw	gp,172(sp)
  40aba0:	afb000a8 	sw	s0,168(sp)
  40aba4:	8f998228 	lw	t9,-32216(gp) <fork>
  40aba8:	00000000 	nop
  40abac:	0320f809 	jalr	t9
  40abb0:	00000000 	nop
  40abb4:	8fbc0010 	lw	gp,16(sp)
  40abb8:	18400011 	blez	v0,40ac00 <main+0x7c>
  40abbc:	27a40020 	addiu	a0,sp,32
  40abc0:	8f848020 	lw	a0,-32736(gp)
  40abc4:	00000000 	nop
  40abc8:	24844a30 	addiu	a0,a0,18992		# "TFTP Server PID = %d"
  40abcc:	00402821 	move	a1,v0
  40abd0:	8f998100 	lw	t9,-32512(gp) <printf>
  40abd4:	00000000 	nop
  40abd8:	0320f809 	jalr	t9
  40abdc:	00000000 	nop
  40abe0:	8fbc0010 	lw	gp,16(sp)
  40abe4:	00002021 	move	a0,zero
  40abe8:	8f9980b4 	lw	t9,-32588(gp) <exit>
  40abec:	00000000 	nop
  40abf0:	0320f809 	jalr	t9
  40abf4:	00000000 	nop
  40abf8:	8fbc0010 	lw	gp,16(sp)
  40abfc:	00000000 	nop
  40ac00:	8f828020 	lw	v0,-32736(gp)           # Start of child code
  40ac04:	00000000 	nop
  40ac08:	244293bc 	addiu	v0,v0,-27716
  40ac0c:	00000000 	nop
  40ac10:	afa2001c 	sw	v0,28(sp)
  40ac14:	afa00018 	sw	zero,24(sp)
  40ac18:	8f9980c8 	lw	t9,-32568(gp) <sigemptyset>
  40ac1c:	00000000 	nop
  40ac20:	0320f809 	jalr	t9
  40ac24:	00000000 	nop
  40ac28:	8fbc0010 	lw	gp,16(sp)
  40ac2c:	24040002 	li	a0,2
  40ac30:	27a50018 	addiu	a1,sp,24
  40ac34:	00003021 	move	a2,zero
  40ac38:	8f998280 	lw	t9,-32128(gp) <sigaction>
  40ac3c:	00000000 	nop
  40ac40:	0320f809 	jalr	t9
  40ac44:	00000000 	nop
  40ac48:	8fbc0010 	lw	gp,16(sp)
  40ac4c:	24040003 	li	a0,3
  40ac50:	27a50018 	addiu	a1,sp,24
  40ac54:	00003021 	move	a2,zero
  40ac58:	8f998280 	lw	t9,-32128(gp) <sigaction>
  40ac5c:	00000000 	nop
  40ac60:	0320f809 	jalr	t9
  40ac64:	00000000 	nop
  40ac68:	8fbc0010 	lw	gp,16(sp)
  40ac6c:	00000000 	nop
  40ac70:	8f81807c 	lw	at,-32644(gp)
  40ac74:	00000000 	nop
  40ac78:	ac200000 	sw	zero,0(at)
  40ac7c:	8f848020 	lw	a0,-32736(gp)
  40ac80:	00000000 	nop
  40ac84:	24844a48 	addiu	a0,a0,19016		# "insmod /sbin/act_lcd.o;insmod /sip/sdvepfxs.o;insmod /sip/sdvepvoip.o"
  40ac88:	8f9981ec 	lw	t9,-32276(gp) <system>
  40ac8c:	00000000 	nop
  40ac90:	0320f809 	jalr	t9
  40ac94:	00000000 	nop
  40ac98:	8fbc0010 	lw	gp,16(sp)
  40ac9c:	24040064 	li	a0,100
  40aca0:	8f9981e8 	lw	t9,-32280(gp) <sys_sleep>
  40aca4:	00000000 	nop
  40aca8:	0320f809 	jalr	t9
  40acac:	00000000 	nop
  40acb0:	8fbc0010 	lw	gp,16(sp)
  40acb4:	00000000 	nop
  40acb8:	8f998074 	lw	t9,-32652(gp) <get_all_if>
  40acbc:	00000000 	nop
  40acc0:	0320f809 	jalr	t9
  40acc4:	00000000 	nop
  40acc8:	8fbc0010 	lw	gp,16(sp)
  40accc:	00000000 	nop
  40acd0:	8f908020 	lw	s0,-32736(gp)
  40acd4:	00000000 	nop
  40acd8:	26104a90 	addiu	s0,s0,19088		# "==============================="
  40acdc:	00000000 	nop
  40ace0:	02002021 	move	a0,s0
  40ace4:	8f998100 	lw	t9,-32512(gp) <printf>
  40ace8:	00000000 	nop
  40acec:	0320f809 	jalr	t9
  40acf0:	00000000 	nop
  40acf4:	8fbc0010 	lw	gp,16(sp)
  40acf8:	00000000 	nop
  40acfc:	8f848020 	lw	a0,-32736(gp)
  40ad00:	00000000 	nop
  40ad04:	24844ab4 	addiu	a0,a0,19124		# "TFTP_SRV V: 03.02.00 2008.01.09"
  40ad08:	8f998100 	lw	t9,-32512(gp) <printf>
  40ad0c:	00000000 	nop
  40ad10:	0320f809 	jalr	t9
  40ad14:	00000000 	nop
  40ad18:	8fbc0010 	lw	gp,16(sp)
  40ad1c:	02002021 	move	a0,s0
  40ad20:	8f998100 	lw	t9,-32512(gp) <printf>
  40ad24:	00000000 	nop
  40ad28:	0320f809 	jalr	t9
  40ad2c:	00000000 	nop
  40ad30:	8fbc0010 	lw	gp,16(sp)
  40ad34:	00000000 	nop
  40ad38:	8f998018 	lw	t9,-32744(gp)
  40ad3c:	00000000 	nop
  40ad40:	27394f2c 	addiu	t9,t9,20268		# 0x404f2c
  40ad44:	00000000 	nop
  40ad48:	0320f809 	jalr	t9
  40ad4c:	00000000 	nop
  40ad50:	8fbc0010 	lw	gp,16(sp)
  40ad54:	00000000 	nop
  40ad58:	8f998020 	lw	t9,-32736(gp)
  40ad5c:	00000000 	nop
  40ad60:	2739aa70 	addiu	t9,t9,-21904
  40ad64:	00000000 	nop
  40ad68:	0320f809 	jalr	t9
  40ad6c:	00000000 	nop
  40ad70:	8fbc0010 	lw	gp,16(sp)
  40ad74:	00000000 	nop
  40ad78:	8f99826c 	lw	t9,-32148(gp) <sys_currtime>
  40ad7c:	00000000 	nop
  40ad80:	0320f809 	jalr	t9
  40ad84:	00000000 	nop
  40ad88:	8fbc0010 	lw	gp,16(sp)
  40ad8c:	00000000 	nop
  40ad90:	8f81801c 	lw	at,-32740(gp)
  40ad94:	00000000 	nop
  40ad98:	242101dc 	addiu	at,at,476
  40ad9c:	ac220000 	sw	v0,0(at)
  40ada0:	8f848020 	lw	a0,-32736(gp)
  40ada4:	00000000 	nop
  40ada8:	2484a158 	addiu	a0,a0,-24232            # a0 = 40A158
  40adac:	8f99825c 	lw	t9,-32164(gp) <sys_begin_thread>
  40adb0:	00000000 	nop
  40adb4:	0320f809 	jalr	t9
  40adb8:	00000000 	nop
  40adbc:	8fbc0010 	lw	gp,16(sp)
  40adc0:	00000000 	nop
  40adc4:	8f848020 	lw	a0,-32736(gp)
  40adc8:	00000000 	nop
  40adcc:       2484a008        addiu   a0,a0,-24568           # a0 = 40A008
  40add0:	8f99825c 	lw	t9,-32164(gp) <sys_begin_thread>
  40add4:	00000000 	nop
  40add8:	0320f809 	jalr	t9
  40addc:	00000000 	nop
  40ade0:	8fbc0010 	lw	gp,16(sp)
  40ade4:	00000000 	nop
  40ade8:	8f848184 	lw	a0,-32380(gp)
  40adec:	24051550 	li	a1,5456
  40adf0:	8f998020 	lw	t9,-32736(gp)
  40adf4:	00000000 	nop
  40adf8:       273991f4        addiu   t9,t9,-28172          # t9 = 4091F4
  40adfc:	00000000 	nop
  40ae00:	0320f809 	jalr	t9
  40ae04:	00000000 	nop
  40ae08:	8fbc0010 	lw	gp,16(sp)
  40ae0c:	24040fa0 	li	a0,4000
  40ae10:	8f9981e8 	lw	t9,-32280(gp) <sys_sleep>
  40ae14:	00000000 	nop
  40ae18:	0320f809 	jalr	t9
  40ae1c:	00000000 	nop
  40ae20:	8fbc0010 	lw	gp,16(sp)
  40ae24:	00000000 	nop
  40ae28:	8f848020 	lw	a0,-32736(gp)
  40ae2c:	00000000 	nop
  40ae30:	24844ad8 	addiu	a0,a0,19160		# "cd /sbin;chmod 755 act_sip;./act_sip ph"
  40ae34:	8f9981ec 	lw	t9,-32276(gp) <system>
  40ae38:	00000000 	nop
  40ae3c:	0320f809 	jalr	t9
  40ae40:	00000000 	nop
  40ae44:	8fbc0010 	lw	gp,16(sp)
  40ae48:	00000000 	nop
  40ae4c:	8f998018 	lw	t9,-32744(gp)
  40ae50:	00000000 	nop
  40ae54:	27396ddc 	addiu	t9,t9,28124		# 0x406ddc
  40ae58:	00000000 	nop
  40ae5c:       0320f809        jalr    t9                      # <run_server>
  40ae60:	00000000 	nop
  40ae64:	8fbc0010 	lw	gp,16(sp)
  40ae68:	8fbf00b0 	lw	ra,176(sp)
  40ae6c:	8fb000a8 	lw	s0,168(sp)
  40ae70:	03e00008 	jr	ra
  40ae74:	27bd00b8 	addiu	sp,sp,184
	...
  40ae80:	3c1c0fc0 	lui	gp,0xfc0
  40ae84:	279ce410 	addiu	gp,gp,-7152
  40ae88:	0399e021 	addu	gp,gp,t9
  40ae8c:	27bdff88 	addiu	sp,sp,-120
  40ae90:	afbc0010 	sw	gp,16(sp)
  40ae94:	afbf0070 	sw	ra,112(sp)
  40ae98:	afbc006c 	sw	gp,108(sp)
  40ae9c:	afb40068 	sw	s4,104(sp)
  40aea0:	afb30064 	sw	s3,100(sp)
  40aea4:	afb20060 	sw	s2,96(sp)
  40aea8:	afb1005c 	sw	s1,92(sp)
  40aeac:	afb00058 	sw	s0,88(sp)
  40aeb0:	00009821 	move	s3,zero
  40aeb4:	00a0a021 	move	s4,a1
  40aeb8:	0274102a 	slt	v0,s3,s4
  40aebc:	1040002f 	beqz	v0,40af7c <main+0x3f8>
  40aec0:	00808821 	move	s1,a0
  40aec4:	27b00018 	addiu	s0,sp,24
  40aec8:	10400014 	beqz	v0,40af1c <main+0x398>
  40aecc:	00009021 	move	s2,zero
  40aed0:	92260000 	lbu	a2,0(s1)
  40aed4:	26310001 	addiu	s1,s1,1
  40aed8:	02002021 	move	a0,s0
  40aedc:	8f858020 	lw	a1,-32736(gp)
  40aee0:	00000000 	nop
  40aee4:	24a54b08 	addiu	a1,a1,19208		# "%02X"
  40aee8:	26100003 	addiu	s0,s0,3
  40aeec:	26520001 	addiu	s2,s2,1
  40aef0:	8f998060 	lw	t9,-32672(gp) <sprintf>
  40aef4:	00000000 	nop
  40aef8:	0320f809 	jalr	t9
  40aefc:	00000000 	nop
  40af00:	8fbc0010 	lw	gp,16(sp)
  40af04:	2a420010 	slti	v0,s2,16
  40af08:	10400004 	beqz	v0,40af1c <main+0x398>
  40af0c:	26730001 	addiu	s3,s3,1
  40af10:	0274102a 	slt	v0,s3,s4
  40af14:	1440ffee 	bnez	v0,40aed0 <main+0x34c>
  40af18:	00000000 	nop
  40af1c:	02002021 	move	a0,s0
  40af20:	8f858020 	lw	a1,-32736(gp)
  40af24:	00000000 	nop
  40af28:	24a54b10 	addiu	a1,a1,19216
  40af2c:	8f998060 	lw	t9,-32672(gp) <sprintf>
  40af30:	00000000 	nop
  40af34:	0320f809 	jalr	t9
  40af38:	00000000 	nop
  40af3c:	8fbc0010 	lw	gp,16(sp)
  40af40:	00000000 	nop
  40af44:	8f848020 	lw	a0,-32736(gp)
  40af48:	00000000 	nop
  40af4c:	24844b14 	addiu	a0,a0,19220
  40af50:	27a50018 	addiu	a1,sp,24
  40af54:	8f998020 	lw	t9,-32736(gp)
  40af58:	00000000 	nop
  40af5c:	2739cd14 	addiu	t9,t9,-13036
  40af60:	00000000 	nop
  40af64:	0320f809 	jalr	t9
  40af68:	00000000 	nop
  40af6c:	8fbc0010 	lw	gp,16(sp)
  40af70:	0274102a 	slt	v0,s3,s4
  40af74:	1440ffd4 	bnez	v0,40aec8 <main+0x344>
  40af78:	27b00018 	addiu	s0,sp,24
  40af7c:	8fbf0070 	lw	ra,112(sp)
  40af80:	8fb40068 	lw	s4,104(sp)
  40af84:	8fb30064 	lw	s3,100(sp)
  40af88:	8fb20060 	lw	s2,96(sp)
  40af8c:	8fb1005c 	lw	s1,92(sp)
  40af90:	8fb00058 	lw	s0,88(sp)
  40af94:	03e00008 	jr	ra
  40af98:	27bd0078 	addiu	sp,sp,120

0040af9c <my_malloc>:
  40af9c:	3c1c0fc0 	lui	gp,0xfc0
  40afa0:	279ce2f4 	addiu	gp,gp,-7436
  40afa4:	0399e021 	addu	gp,gp,t9
  40afa8:	27bdffd8 	addiu	sp,sp,-40
  40afac:	afbc0010 	sw	gp,16(sp)
  40afb0:	afbf0024 	sw	ra,36(sp)
  40afb4:	afbc0020 	sw	gp,32(sp)
  40afb8:	afb1001c 	sw	s1,28(sp)
  40afbc:	afb00018 	sw	s0,24(sp)
  40afc0:	00808821 	move	s1,a0
  40afc4:	12200063 	beqz	s1,40b154 <my_malloc+0x1b8>
  40afc8:	00001021 	move	v0,zero
  40afcc:	8f82801c 	lw	v0,-32740(gp)
  40afd0:	00000000 	nop
  40afd4:	2442120c 	addiu	v0,v0,4620
  40afd8:	8c420000 	lw	v0,0(v0)
  40afdc:	00000000 	nop
  40afe0:	10400022 	beqz	v0,40b06c <my_malloc+0xd0>
  40afe4:	24020001 	li	v0,1
  40afe8:	8f848020 	lw	a0,-32736(gp)
  40afec:	00000000 	nop
  40aff0:	24844b18 	addiu	a0,a0,19224		# "!0 my_malloc: sema-check"
  40aff4:	8f998020 	lw	t9,-32736(gp)
  40aff8:	00000000 	nop
  40affc:	2739cd14 	addiu	t9,t9,-13036
  40b000:	00000000 	nop
  40b004:	0320f809 	jalr	t9
  40b008:	00000000 	nop
  40b00c:	8fbc0010 	lw	gp,16(sp)
  40b010:	00000000 	nop
  40b014:	8f82801c 	lw	v0,-32740(gp)
  40b018:	00000000 	nop
  40b01c:	2442120c 	addiu	v0,v0,4620
  40b020:	8c420000 	lw	v0,0(v0)
  40b024:	00000000 	nop
  40b028:	10400010 	beqz	v0,40b06c <my_malloc+0xd0>
  40b02c:	24020001 	li	v0,1
  40b030:	8f998020 	lw	t9,-32736(gp)
  40b034:	00000000 	nop
  40b038:	2739b7a0 	addiu	t9,t9,-18528
  40b03c:	00000000 	nop
  40b040:	0320f809 	jalr	t9
  40b044:	00000000 	nop
  40b048:	8fbc0010 	lw	gp,16(sp)
  40b04c:	00000000 	nop
  40b050:	8f82801c 	lw	v0,-32740(gp)
  40b054:	00000000 	nop
  40b058:	2442120c 	addiu	v0,v0,4620
  40b05c:	8c420000 	lw	v0,0(v0)
  40b060:	00000000 	nop
  40b064:	1440fff2 	bnez	v0,40b030 <my_malloc+0x94>
  40b068:	24020001 	li	v0,1
  40b06c:	8f81801c 	lw	at,-32740(gp)
  40b070:	00000000 	nop
  40b074:	2421120c 	addiu	at,at,4620
  40b078:	ac220000 	sw	v0,0(at)
  40b07c:	26240004 	addiu	a0,s1,4
  40b080:	8f9981d4 	lw	t9,-32300(gp) <malloc>
  40b084:	00000000 	nop
  40b088:	0320f809 	jalr	t9
  40b08c:	00000000 	nop
  40b090:	8fbc0010 	lw	gp,16(sp)
  40b094:	00000000 	nop
  40b098:	8f81801c 	lw	at,-32740(gp)
  40b09c:	00000000 	nop
  40b0a0:	2421120c 	addiu	at,at,4620
  40b0a4:	ac200000 	sw	zero,0(at)
  40b0a8:	00408021 	move	s0,v0
  40b0ac:	1200001d 	beqz	s0,40b124 <my_malloc+0x188>
  40b0b0:	00111603 	sra	v0,s1,0x18
  40b0b4:	a2020000 	sb	v0,0(s0)
  40b0b8:	00111403 	sra	v0,s1,0x10
  40b0bc:	a2020001 	sb	v0,1(s0)
  40b0c0:	00111203 	sra	v0,s1,0x8
  40b0c4:	a2020002 	sb	v0,2(s0)
  40b0c8:	a2110003 	sb	s1,3(s0)
  40b0cc:	26100004 	addiu	s0,s0,4
  40b0d0:	02002021 	move	a0,s0
  40b0d4:	00002821 	move	a1,zero
  40b0d8:	02203021 	move	a2,s1
  40b0dc:	8f998090 	lw	t9,-32624(gp) <memset>
  40b0e0:	00000000 	nop
  40b0e4:	0320f809 	jalr	t9
  40b0e8:	00000000 	nop
  40b0ec:	8fbc0010 	lw	gp,16(sp)
  40b0f0:	00000000 	nop
  40b0f4:	8f83801c 	lw	v1,-32740(gp)
  40b0f8:	00000000 	nop
  40b0fc:	24631200 	addiu	v1,v1,4608
  40b100:	8c630000 	lw	v1,0(v1)
  40b104:	00000000 	nop
  40b108:	00711821 	addu	v1,v1,s1
  40b10c:	8f81801c 	lw	at,-32740(gp)
  40b110:	00000000 	nop
  40b114:	24211200 	addiu	at,at,4608
  40b118:	ac230000 	sw	v1,0(at)
  40b11c:	1000000d 	b	40b154 <my_malloc+0x1b8>
  40b120:	02001021 	move	v0,s0
  40b124:	8f848020 	lw	a0,-32736(gp)
  40b128:	00000000 	nop
  40b12c:	24844b34 	addiu	a0,a0,19252		# "!8 my_malloc(%d) error"
  40b130:	02202821 	move	a1,s1
  40b134:	8f998020 	lw	t9,-32736(gp)
  40b138:	00000000 	nop
  40b13c:	2739cd14 	addiu	t9,t9,-13036
  40b140:	00000000 	nop
  40b144:	0320f809 	jalr	t9
  40b148:	00000000 	nop
  40b14c:	8fbc0010 	lw	gp,16(sp)
  40b150:	00001021 	move	v0,zero
  40b154:	8fbf0024 	lw	ra,36(sp)
  40b158:	8fb1001c 	lw	s1,28(sp)
  40b15c:	8fb00018 	lw	s0,24(sp)
  40b160:	03e00008 	jr	ra
  40b164:	27bd0028 	addiu	sp,sp,40

0040b168 <my_free>:
  40b168:	3c1c0fc0 	lui	gp,0xfc0
  40b16c:	279ce128 	addiu	gp,gp,-7896
  40b170:	0399e021 	addu	gp,gp,t9
  40b174:	27bdffd8 	addiu	sp,sp,-40
  40b178:	afbc0010 	sw	gp,16(sp)
  40b17c:	afbf0024 	sw	ra,36(sp)
  40b180:	afbc0020 	sw	gp,32(sp)
  40b184:	afb1001c 	sw	s1,28(sp)
  40b188:	1080002f 	beqz	a0,40b248 <my_free+0xe0>
  40b18c:	afb00018 	sw	s0,24(sp)
  40b190:	2490fffc 	addiu	s0,a0,-4
  40b194:	00008821 	move	s1,zero
  40b198:	00002021 	move	a0,zero
  40b19c:	02041021 	addu	v0,s0,a0
  40b1a0:	24840001 	addiu	a0,a0,1
  40b1a4:	90430000 	lbu	v1,0(v0)
  40b1a8:	00111200 	sll	v0,s1,0x8
  40b1ac:	00438821 	addu	s1,v0,v1
  40b1b0:	28820004 	slti	v0,a0,4
  40b1b4:	1440fffa 	bnez	v0,40b1a0 <my_free+0x38>
  40b1b8:	02041021 	addu	v0,s0,a0
  40b1bc:	1620000b 	bnez	s1,40b1ec <my_free+0x84>
  40b1c0:	02002021 	move	a0,s0
  40b1c4:	8f848020 	lw	a0,-32736(gp)
  40b1c8:	00000000 	nop
  40b1cc:	24844b4c 	addiu	a0,a0,19276		# "Double Free!!!"
  40b1d0:	8f998100 	lw	t9,-32512(gp) <printf>
  40b1d4:	00000000 	nop
  40b1d8:	0320f809 	jalr	t9
  40b1dc:	00000000 	nop
  40b1e0:	8fbc0010 	lw	gp,16(sp)
  40b1e4:	10000018 	b	40b248 <my_free+0xe0>
  40b1e8:	00000000 	nop
  40b1ec:	00002821 	move	a1,zero
  40b1f0:	26260004 	addiu	a2,s1,4
  40b1f4:	8f998090 	lw	t9,-32624(gp) <memset>
  40b1f8:	00000000 	nop
  40b1fc:	0320f809 	jalr	t9
  40b200:	00000000 	nop
  40b204:	8fbc0010 	lw	gp,16(sp)
  40b208:	00000000 	nop
  40b20c:	8f82801c 	lw	v0,-32740(gp)
  40b210:	00000000 	nop
  40b214:	24421200 	addiu	v0,v0,4608
  40b218:	8c420000 	lw	v0,0(v0)
  40b21c:	02002021 	move	a0,s0
  40b220:	00511023 	subu	v0,v0,s1
  40b224:	8f81801c 	lw	at,-32740(gp)
  40b228:	00000000 	nop
  40b22c:	24211200 	addiu	at,at,4608
  40b230:	ac220000 	sw	v0,0(at)
  40b234:	8f998098 	lw	t9,-32616(gp) <free>
  40b238:	00000000 	nop
  40b23c:	0320f809 	jalr	t9
  40b240:	00000000 	nop
  40b244:	8fbc0010 	lw	gp,16(sp)
  40b248:	8fbf0024 	lw	ra,36(sp)
  40b24c:	8fb1001c 	lw	s1,28(sp)
  40b250:	8fb00018 	lw	s0,24(sp)
  40b254:	03e00008 	jr	ra
  40b258:	27bd0028 	addiu	sp,sp,40
  40b25c:	3c1c0fc0 	lui	gp,0xfc0
  40b260:	279ce034 	addiu	gp,gp,-8140
  40b264:	0399e021 	addu	gp,gp,t9
  40b268:	27bdffe0 	addiu	sp,sp,-32
  40b26c:	afbc0010 	sw	gp,16(sp)
  40b270:	afbf001c 	sw	ra,28(sp)
  40b274:	afbc0018 	sw	gp,24(sp)
  40b278:	0080c821 	move	t9,a0
  40b27c:	0320f809 	jalr	t9
  40b280:	00000000 	nop
  40b284:	8fbc0010 	lw	gp,16(sp)
  40b288:	8fbf001c 	lw	ra,28(sp)
  40b28c:	00001021 	move	v0,zero
  40b290:	03e00008 	jr	ra
  40b294:	27bd0020 	addiu	sp,sp,32

0040b298 <sys_begin_thread>:
  40b298:	3c1c0fc0 	lui	gp,0xfc0
  40b29c:	279cdff8 	addiu	gp,gp,-8200
  40b2a0:	0399e021 	addu	gp,gp,t9
  40b2a4:	27bdffd8 	addiu	sp,sp,-40
  40b2a8:	afbc0010 	sw	gp,16(sp)
  40b2ac:	afbf0024 	sw	ra,36(sp)
  40b2b0:	afbc0020 	sw	gp,32(sp)
  40b2b4:	00803821 	move	a3,a0
  40b2b8:	27a40018 	addiu	a0,sp,24
  40b2bc:	00002821 	move	a1,zero
  40b2c0:	8f868020 	lw	a2,-32736(gp)
  40b2c4:	00000000 	nop
  40b2c8:	24c6b25c 	addiu	a2,a2,-19876
  40b2cc:	8f9980ac 	lw	t9,-32596(gp) <pthread_create>
  40b2d0:	00000000 	nop
  40b2d4:	0320f809 	jalr	t9
  40b2d8:	00000000 	nop
  40b2dc:	8fbc0010 	lw	gp,16(sp)
  40b2e0:	8fbf0024 	lw	ra,36(sp)
  40b2e4:	00000000 	nop
  40b2e8:	03e00008 	jr	ra
  40b2ec:	27bd0028 	addiu	sp,sp,40

0040b2f0 <sys_thread_exit>:
  40b2f0:	3c1c0fc0 	lui	gp,0xfc0
  40b2f4:	279cdfa0 	addiu	gp,gp,-8288
  40b2f8:	0399e021 	addu	gp,gp,t9
  40b2fc:	27bdffe0 	addiu	sp,sp,-32
  40b300:	afbc0010 	sw	gp,16(sp)
  40b304:	afbf001c 	sw	ra,28(sp)
  40b308:	afbc0018 	sw	gp,24(sp)
  40b30c:	00002021 	move	a0,zero
  40b310:	8f9980b8 	lw	t9,-32584(gp) <pthread_exit>
  40b314:	00000000 	nop
  40b318:	0320f809 	jalr	t9
  40b31c:	00000000 	nop
  40b320:	8fbc0010 	lw	gp,16(sp)
  40b324:	00000000 	nop
  40b328:	3c1c0fc0 	lui	gp,0xfc0
  40b32c:	279cdf68 	addiu	gp,gp,-8344
  40b330:	0399e021 	addu	gp,gp,t9
  40b334:	27bdffe0 	addiu	sp,sp,-32
  40b338:	afbc0010 	sw	gp,16(sp)
  40b33c:	afbf001c 	sw	ra,28(sp)
  40b340:	afbc0018 	sw	gp,24(sp)
  40b344:	8f998204 	lw	t9,-32252(gp) <pthread_cancel>
  40b348:	00000000 	nop
  40b34c:	0320f809 	jalr	t9
  40b350:	00000000 	nop
  40b354:	8fbc0010 	lw	gp,16(sp)
  40b358:	8fbf001c 	lw	ra,28(sp)
  40b35c:	00000000 	nop
  40b360:	03e00008 	jr	ra
  40b364:	27bd0020 	addiu	sp,sp,32
  40b368:	3c1c0fc0 	lui	gp,0xfc0
  40b36c:	279cdf28 	addiu	gp,gp,-8408
  40b370:	0399e021 	addu	gp,gp,t9
  40b374:	27bdffd8 	addiu	sp,sp,-40
  40b378:	afbc0010 	sw	gp,16(sp)
  40b37c:	afbf0020 	sw	ra,32(sp)
  40b380:	afbc001c 	sw	gp,28(sp)
  40b384:	afb00018 	sw	s0,24(sp)
  40b388:	8f998020 	lw	t9,-32736(gp)
  40b38c:	00000000 	nop
  40b390:	2739b4b8 	addiu	t9,t9,-19272
  40b394:	00000000 	nop
  40b398:	0320f809 	jalr	t9
  40b39c:	00000000 	nop
  40b3a0:	8fbc0010 	lw	gp,16(sp)
  40b3a4:	00408021 	move	s0,v0
  40b3a8:	02002021 	move	a0,s0
  40b3ac:	8f998020 	lw	t9,-32736(gp)
  40b3b0:	00000000 	nop
  40b3b4:	2739b5ac 	addiu	t9,t9,-19028
  40b3b8:	00000000 	nop
  40b3bc:	0320f809 	jalr	t9
  40b3c0:	00000000 	nop
  40b3c4:	8fbc0010 	lw	gp,16(sp)
  40b3c8:	02001021 	move	v0,s0
  40b3cc:	8fbf0020 	lw	ra,32(sp)
  40b3d0:	8fb00018 	lw	s0,24(sp)
  40b3d4:	03e00008 	jr	ra
  40b3d8:	27bd0028 	addiu	sp,sp,40
  40b3dc:	3c1c0fc0 	lui	gp,0xfc0
  40b3e0:	279cdeb4 	addiu	gp,gp,-8524
  40b3e4:	0399e021 	addu	gp,gp,t9
  40b3e8:	27bdffe0 	addiu	sp,sp,-32
  40b3ec:	afbc0010 	sw	gp,16(sp)
  40b3f0:	afbf001c 	sw	ra,28(sp)
  40b3f4:	afbc0018 	sw	gp,24(sp)
  40b3f8:	8f998020 	lw	t9,-32736(gp)
  40b3fc:	00000000 	nop
  40b400:	2739b53c 	addiu	t9,t9,-19140
  40b404:	00000000 	nop
  40b408:	0320f809 	jalr	t9
  40b40c:	00000000 	nop
  40b410:	8fbc0010 	lw	gp,16(sp)
  40b414:	8fbf001c 	lw	ra,28(sp)
  40b418:	00000000 	nop
  40b41c:	03e00008 	jr	ra
  40b420:	27bd0020 	addiu	sp,sp,32
  40b424:	3c1c0fc0 	lui	gp,0xfc0
  40b428:	279cde6c 	addiu	gp,gp,-8596
  40b42c:	0399e021 	addu	gp,gp,t9
  40b430:	27bdffe0 	addiu	sp,sp,-32
  40b434:	afbc0010 	sw	gp,16(sp)
  40b438:	afbf001c 	sw	ra,28(sp)
  40b43c:	afbc0018 	sw	gp,24(sp)
  40b440:	00002821 	move	a1,zero
  40b444:	8f998020 	lw	t9,-32736(gp)
  40b448:	00000000 	nop
  40b44c:	2739b5f0 	addiu	t9,t9,-18960
  40b450:	00000000 	nop
  40b454:	0320f809 	jalr	t9
  40b458:	00000000 	nop
  40b45c:	8fbc0010 	lw	gp,16(sp)
  40b460:	8fbf001c 	lw	ra,28(sp)
  40b464:	00000000 	nop
  40b468:	03e00008 	jr	ra
  40b46c:	27bd0020 	addiu	sp,sp,32
  40b470:	3c1c0fc0 	lui	gp,0xfc0
  40b474:	279cde20 	addiu	gp,gp,-8672
  40b478:	0399e021 	addu	gp,gp,t9
  40b47c:	27bdffe0 	addiu	sp,sp,-32
  40b480:	afbc0010 	sw	gp,16(sp)
  40b484:	afbf001c 	sw	ra,28(sp)
  40b488:	afbc0018 	sw	gp,24(sp)
  40b48c:	8f998020 	lw	t9,-32736(gp)
  40b490:	00000000 	nop
  40b494:	2739b5ac 	addiu	t9,t9,-19028
  40b498:	00000000 	nop
  40b49c:	0320f809 	jalr	t9
  40b4a0:	00000000 	nop
  40b4a4:	8fbc0010 	lw	gp,16(sp)
  40b4a8:	8fbf001c 	lw	ra,28(sp)
  40b4ac:	00000000 	nop
  40b4b0:	03e00008 	jr	ra
  40b4b4:	27bd0020 	addiu	sp,sp,32
  40b4b8:	3c1c0fc0 	lui	gp,0xfc0
  40b4bc:	279cddd8 	addiu	gp,gp,-8744
  40b4c0:	0399e021 	addu	gp,gp,t9
  40b4c4:	27bdffd8 	addiu	sp,sp,-40
  40b4c8:	afbc0010 	sw	gp,16(sp)
  40b4cc:	afbf0020 	sw	ra,32(sp)
  40b4d0:	afbc001c 	sw	gp,28(sp)
  40b4d4:	afb00018 	sw	s0,24(sp)
  40b4d8:	24040010 	li	a0,16
  40b4dc:	8f998020 	lw	t9,-32736(gp)
  40b4e0:	00000000 	nop
  40b4e4:	2739af9c 	addiu	t9,t9,-20580
  40b4e8:	00000000 	nop
  40b4ec:	0320f809 	jalr	t9
  40b4f0:	00000000 	nop
  40b4f4:	8fbc0010 	lw	gp,16(sp)
  40b4f8:	00408021 	move	s0,v0
  40b4fc:	1200000a 	beqz	s0,40b528 <sys_thread_exit+0x238>
  40b500:	02002021 	move	a0,s0
  40b504:	00002821 	move	a1,zero
  40b508:	00003021 	move	a2,zero
  40b50c:	8f998200 	lw	t9,-32256(gp) <sem_init>
  40b510:	00000000 	nop
  40b514:	0320f809 	jalr	t9
  40b518:	00000000 	nop
  40b51c:	8fbc0010 	lw	gp,16(sp)
  40b520:	10000002 	b	40b52c <sys_thread_exit+0x23c>
  40b524:	02001021 	move	v0,s0
  40b528:	00001021 	move	v0,zero
  40b52c:	8fbf0020 	lw	ra,32(sp)
  40b530:	8fb00018 	lw	s0,24(sp)
  40b534:	03e00008 	jr	ra
  40b538:	27bd0028 	addiu	sp,sp,40
  40b53c:	3c1c0fc0 	lui	gp,0xfc0
  40b540:	279cdd54 	addiu	gp,gp,-8876
  40b544:	0399e021 	addu	gp,gp,t9
  40b548:	27bdffd8 	addiu	sp,sp,-40
  40b54c:	afbc0010 	sw	gp,16(sp)
  40b550:	afbf0020 	sw	ra,32(sp)
  40b554:	afbc001c 	sw	gp,28(sp)
  40b558:	afb00018 	sw	s0,24(sp)
  40b55c:	00808021 	move	s0,a0
  40b560:	1200000e 	beqz	s0,40b59c <sys_thread_exit+0x2ac>
  40b564:	00000000 	nop
  40b568:	8f998168 	lw	t9,-32408(gp) <sem_destroy>
  40b56c:	00000000 	nop
  40b570:	0320f809 	jalr	t9
  40b574:	00000000 	nop
  40b578:	8fbc0010 	lw	gp,16(sp)
  40b57c:	02002021 	move	a0,s0
  40b580:	8f998020 	lw	t9,-32736(gp)
  40b584:	00000000 	nop
  40b588:	2739b168 	addiu	t9,t9,-20120
  40b58c:	00000000 	nop
  40b590:	0320f809 	jalr	t9
  40b594:	00000000 	nop
  40b598:	8fbc0010 	lw	gp,16(sp)
  40b59c:	8fbf0020 	lw	ra,32(sp)
  40b5a0:	8fb00018 	lw	s0,24(sp)
  40b5a4:	03e00008 	jr	ra
  40b5a8:	27bd0028 	addiu	sp,sp,40
  40b5ac:	3c1c0fc0 	lui	gp,0xfc0
  40b5b0:	279cdce4 	addiu	gp,gp,-8988
  40b5b4:	0399e021 	addu	gp,gp,t9
  40b5b8:	27bdffe0 	addiu	sp,sp,-32
  40b5bc:	afbc0010 	sw	gp,16(sp)
  40b5c0:	afbf001c 	sw	ra,28(sp)
  40b5c4:	10800006 	beqz	a0,40b5e0 <sys_thread_exit+0x2f0>
  40b5c8:	afbc0018 	sw	gp,24(sp)
  40b5cc:	8f998064 	lw	t9,-32668(gp) <sem_post>
  40b5d0:	00000000 	nop
  40b5d4:	0320f809 	jalr	t9
  40b5d8:	00000000 	nop
  40b5dc:	8fbc0010 	lw	gp,16(sp)
  40b5e0:	8fbf001c 	lw	ra,28(sp)
  40b5e4:	00000000 	nop
  40b5e8:	03e00008 	jr	ra
  40b5ec:	27bd0020 	addiu	sp,sp,32
  40b5f0:	3c1c0fc0 	lui	gp,0xfc0
  40b5f4:	279cdca0 	addiu	gp,gp,-9056
  40b5f8:	0399e021 	addu	gp,gp,t9
  40b5fc:	27bdffc0 	addiu	sp,sp,-64
  40b600:	afbc0010 	sw	gp,16(sp)
  40b604:	afbf0038 	sw	ra,56(sp)
  40b608:	afbc0034 	sw	gp,52(sp)
  40b60c:	afb20030 	sw	s2,48(sp)
  40b610:	afb1002c 	sw	s1,44(sp)
  40b614:	afb00028 	sw	s0,40(sp)
  40b618:	00009021 	move	s2,zero
  40b61c:	00808821 	move	s1,a0
  40b620:	16200003 	bnez	s1,40b630 <sys_thread_exit+0x340>
  40b624:	00a08021 	move	s0,a1
  40b628:	10000057 	b	40b788 <sys_thread_exit+0x498>
  40b62c:	2402ffff 	li	v0,-1
  40b630:	16000009 	bnez	s0,40b658 <sys_thread_exit+0x368>
  40b634:	2a0203e8 	slti	v0,s0,1000
  40b638:	02202021 	move	a0,s1
  40b63c:	8f99809c 	lw	t9,-32612(gp) <sem_wait>
  40b640:	00000000 	nop
  40b644:	0320f809 	jalr	t9
  40b648:	00000000 	nop
  40b64c:	8fbc0010 	lw	gp,16(sp)
  40b650:	1000004d 	b	40b788 <sys_thread_exit+0x498>
  40b654:	00001021 	move	v0,zero
  40b658:	10400017 	beqz	v0,40b6b8 <sys_thread_exit+0x3c8>
  40b65c:	02202021 	move	a0,s1
  40b660:	8f998170 	lw	t9,-32400(gp) <sem_trywait>
  40b664:	00000000 	nop
  40b668:	0320f809 	jalr	t9
  40b66c:	00000000 	nop
  40b670:	8fbc0010 	lw	gp,16(sp)
  40b674:	10400043 	beqz	v0,40b784 <sys_thread_exit+0x494>
  40b678:	02002021 	move	a0,s0
  40b67c:	8f998020 	lw	t9,-32736(gp)
  40b680:	00000000 	nop
  40b684:	2739b7ec 	addiu	t9,t9,-18452
  40b688:	00000000 	nop
  40b68c:	0320f809 	jalr	t9
  40b690:	00000000 	nop
  40b694:	8fbc0010 	lw	gp,16(sp)
  40b698:	02202021 	move	a0,s1
  40b69c:	8f998170 	lw	t9,-32400(gp) <sem_trywait>
  40b6a0:	00000000 	nop
  40b6a4:	0320f809 	jalr	t9
  40b6a8:	00000000 	nop
  40b6ac:	8fbc0010 	lw	gp,16(sp)
  40b6b0:	10000035 	b	40b788 <sys_thread_exit+0x498>
  40b6b4:	0002102b 	sltu	v0,zero,v0
  40b6b8:	27a40018 	addiu	a0,sp,24
  40b6bc:	00002821 	move	a1,zero
  40b6c0:	8f9980d8 	lw	t9,-32552(gp) <gettimeofday>
  40b6c4:	00000000 	nop
  40b6c8:	0320f809 	jalr	t9
  40b6cc:	00000000 	nop
  40b6d0:	8fbc0010 	lw	gp,16(sp)
  40b6d4:	3c021062 	lui	v0,0x1062
  40b6d8:	34424dd3 	ori	v0,v0,0x4dd3
  40b6dc:	02020018 	mult	s0,v0
  40b6e0:	00101fc3 	sra	v1,s0,0x1f
  40b6e4:	240603e8 	li	a2,1000
  40b6e8:	00001010 	mfhi	v0
  40b6ec:	00021183 	sra	v0,v0,0x6
  40b6f0:	00433823 	subu	a3,v0,v1
  40b6f4:	00e60018 	mult	a3,a2
  40b6f8:	00001012 	mflo	v0
  40b6fc:	02021023 	subu	v0,s0,v0
  40b700:	00460018 	mult	v0,a2
  40b704:	8fa4001c 	lw	a0,28(sp)
  40b708:	3c03000f 	lui	v1,0xf
  40b70c:	34634240 	ori	v1,v1,0x4240
  40b710:	00001012 	mflo	v0
  40b714:	00821021 	addu	v0,a0,v0
  40b718:	0062182a 	slt	v1,v1,v0
  40b71c:	10600006 	beqz	v1,40b738 <sys_thread_exit+0x448>
  40b720:	afa2001c 	sw	v0,28(sp)
  40b724:	3c01fff0 	lui	at,0xfff0
  40b728:	3421bdc0 	ori	at,at,0xbdc0
  40b72c:	00221021 	addu	v0,at,v0
  40b730:	afa2001c 	sw	v0,28(sp)
  40b734:	24120001 	li	s2,1
  40b738:	02202021 	move	a0,s1
  40b73c:	27a50020 	addiu	a1,sp,32
  40b740:	8fa3001c 	lw	v1,28(sp)
  40b744:	8fa20018 	lw	v0,24(sp)
  40b748:	00660018 	mult	v1,a2
  40b74c:	00471021 	addu	v0,v0,a3
  40b750:	00521021 	addu	v0,v0,s2
  40b754:	afa20020 	sw	v0,32(sp)
  40b758:	00001812 	mflo	v1
  40b75c:	afa30024 	sw	v1,36(sp)
  40b760:	8f998044 	lw	t9,-32700(gp) <sem_timedwait>
  40b764:	00000000 	nop
  40b768:	0320f809 	jalr	t9
  40b76c:	00000000 	nop
  40b770:	8fbc0010 	lw	gp,16(sp)
  40b774:	00402021 	move	a0,v0
  40b778:	24030091 	li	v1,145
  40b77c:	10830002 	beq	a0,v1,40b788 <sys_thread_exit+0x498>
  40b780:	24020001 	li	v0,1
  40b784:	00001021 	move	v0,zero
  40b788:	8fbf0038 	lw	ra,56(sp)
  40b78c:	8fb20030 	lw	s2,48(sp)
  40b790:	8fb1002c 	lw	s1,44(sp)
  40b794:	8fb00028 	lw	s0,40(sp)
  40b798:	03e00008 	jr	ra
  40b79c:	27bd0040 	addiu	sp,sp,64
  40b7a0:	3c1c0fc0 	lui	gp,0xfc0
  40b7a4:	279cdaf0 	addiu	gp,gp,-9488
  40b7a8:	0399e021 	addu	gp,gp,t9
  40b7ac:	27bdffe0 	addiu	sp,sp,-32
  40b7b0:	afbc0010 	sw	gp,16(sp)
  40b7b4:	afbf001c 	sw	ra,28(sp)
  40b7b8:	afbc0018 	sw	gp,24(sp)
  40b7bc:	24040001 	li	a0,1
  40b7c0:	8f998020 	lw	t9,-32736(gp)
  40b7c4:	00000000 	nop
  40b7c8:	2739b7ec 	addiu	t9,t9,-18452
  40b7cc:	00000000 	nop
  40b7d0:	0320f809 	jalr	t9
  40b7d4:	00000000 	nop
  40b7d8:	8fbc0010 	lw	gp,16(sp)
  40b7dc:	8fbf001c 	lw	ra,28(sp)
  40b7e0:	00000000 	nop
  40b7e4:	03e00008 	jr	ra
  40b7e8:	27bd0020 	addiu	sp,sp,32

0040b7ec <sys_sleep>:
  40b7ec:	3c1c0fc0 	lui	gp,0xfc0
  40b7f0:	279cdaa4 	addiu	gp,gp,-9564
  40b7f4:	0399e021 	addu	gp,gp,t9
  40b7f8:	27bdffe0 	addiu	sp,sp,-32
  40b7fc:	afbc0010 	sw	gp,16(sp)
  40b800:	240203e8 	li	v0,1000
  40b804:	00820018 	mult	a0,v0
  40b808:	afbf001c 	sw	ra,28(sp)
  40b80c:	afbc0018 	sw	gp,24(sp)
  40b810:	00002012 	mflo	a0
  40b814:	8f998284 	lw	t9,-32124(gp) <usleep>
  40b818:	00000000 	nop
  40b81c:	0320f809 	jalr	t9
  40b820:	00000000 	nop
  40b824:	8fbc0010 	lw	gp,16(sp)
  40b828:	8fbf001c 	lw	ra,28(sp)
  40b82c:	00000000 	nop
  40b830:	03e00008 	jr	ra
  40b834:	27bd0020 	addiu	sp,sp,32

0040b838 <sys_currtime>:
  40b838:	3c1c0fc0 	lui	gp,0xfc0
  40b83c:	279cda58 	addiu	gp,gp,-9640
  40b840:	0399e021 	addu	gp,gp,t9
  40b844:	27bdffd8 	addiu	sp,sp,-40
  40b848:	afbc0010 	sw	gp,16(sp)
  40b84c:	afbf0024 	sw	ra,36(sp)
  40b850:	afbc0020 	sw	gp,32(sp)
  40b854:	27a40018 	addiu	a0,sp,24
  40b858:	00002821 	move	a1,zero
  40b85c:	8f9980d8 	lw	t9,-32552(gp) <gettimeofday>
  40b860:	00000000 	nop
  40b864:	0320f809 	jalr	t9
  40b868:	00000000 	nop
  40b86c:	8fbc0010 	lw	gp,16(sp)
  40b870:	3c021062 	lui	v0,0x1062
  40b874:	8fa5001c 	lw	a1,28(sp)
  40b878:	34424dd3 	ori	v0,v0,0x4dd3
  40b87c:	00a20018 	mult	a1,v0
  40b880:	240303e8 	li	v1,1000
  40b884:	8fa40018 	lw	a0,24(sp)
  40b888:	00001010 	mfhi	v0
  40b88c:	00830018 	mult	a0,v1
  40b890:	00052fc3 	sra	a1,a1,0x1f
  40b894:	00021183 	sra	v0,v0,0x6
  40b898:	00451023 	subu	v0,v0,a1
  40b89c:	00002012 	mflo	a0
  40b8a0:	00821021 	addu	v0,a0,v0
  40b8a4:	14400002 	bnez	v0,40b8b0 <sys_currtime+0x78>
  40b8a8:	00000000 	nop
  40b8ac:	24020001 	li	v0,1
  40b8b0:	8fbf0024 	lw	ra,36(sp)
  40b8b4:	00000000 	nop
  40b8b8:	03e00008 	jr	ra
  40b8bc:	27bd0028 	addiu	sp,sp,40

0040b8c0 <sys_difftime>:
  40b8c0:	3c1c0fc0 	lui	gp,0xfc0
  40b8c4:	279cd9d0 	addiu	gp,gp,-9776
  40b8c8:	0399e021 	addu	gp,gp,t9
  40b8cc:	27bdffd8 	addiu	sp,sp,-40
  40b8d0:	afbc0010 	sw	gp,16(sp)
  40b8d4:	afbf0020 	sw	ra,32(sp)
  40b8d8:	afbc001c 	sw	gp,28(sp)
  40b8dc:	afb00018 	sw	s0,24(sp)
  40b8e0:	14a00009 	bnez	a1,40b908 <sys_difftime+0x48>
  40b8e4:	00808021 	move	s0,a0
  40b8e8:	8f998020 	lw	t9,-32736(gp)
  40b8ec:	00000000 	nop
  40b8f0:	2739b838 	addiu	t9,t9,-18376
  40b8f4:	00000000 	nop
  40b8f8:	0320f809 	jalr	t9
  40b8fc:	00000000 	nop
  40b900:	8fbc0010 	lw	gp,16(sp)
  40b904:	00402821 	move	a1,v0
  40b908:	00b0102b 	sltu	v0,a1,s0
  40b90c:	00b01023 	subu	v0,a1,s0
  40b910:	8fbf0020 	lw	ra,32(sp)
  40b914:	8fb00018 	lw	s0,24(sp)
  40b918:	03e00008 	jr	ra
  40b91c:	27bd0028 	addiu	sp,sp,40
  40b920:	3c1c0fc0 	lui	gp,0xfc0
  40b924:	279cd970 	addiu	gp,gp,-9872
  40b928:	0399e021 	addu	gp,gp,t9
  40b92c:	27bdffe0 	addiu	sp,sp,-32
  40b930:	afbc0010 	sw	gp,16(sp)
  40b934:	afbf001c 	sw	ra,28(sp)
  40b938:	afbc0018 	sw	gp,24(sp)
  40b93c:	8f998020 	lw	t9,-32736(gp)
  40b940:	00000000 	nop
  40b944:	2739b8c0 	addiu	t9,t9,-18240
  40b948:	00000000 	nop
  40b94c:	0320f809 	jalr	t9
  40b950:	00000000 	nop
  40b954:	8fbc0010 	lw	gp,16(sp)
  40b958:	8fbf001c 	lw	ra,28(sp)
  40b95c:	00000000 	nop
  40b960:	03e00008 	jr	ra
  40b964:	27bd0020 	addiu	sp,sp,32

0040b968 <sys_net_ip>:
  40b968:	3c1c0fc0 	lui	gp,0xfc0
  40b96c:	279cd928 	addiu	gp,gp,-9944
  40b970:	0399e021 	addu	gp,gp,t9
  40b974:	27bdffe0 	addiu	sp,sp,-32
  40b978:	afbc0010 	sw	gp,16(sp)
  40b97c:	afbf001c 	sw	ra,28(sp)
  40b980:	afbc0018 	sw	gp,24(sp)
  40b984:	8f998158 	lw	t9,-32424(gp) <xsocket_get_ip>
  40b988:	00000000 	nop
  40b98c:	0320f809 	jalr	t9
  40b990:	00000000 	nop
  40b994:	8fbc0010 	lw	gp,16(sp)
  40b998:	8fbf001c 	lw	ra,28(sp)
  40b99c:	00000000 	nop
  40b9a0:	03e00008 	jr	ra
  40b9a4:	27bd0020 	addiu	sp,sp,32
  40b9a8:	3c1c0fc0 	lui	gp,0xfc0
  40b9ac:	279cd8e8 	addiu	gp,gp,-10008
  40b9b0:	0399e021 	addu	gp,gp,t9
  40b9b4:	27bdffe0 	addiu	sp,sp,-32
  40b9b8:	afbc0010 	sw	gp,16(sp)
  40b9bc:	18a0000c 	blez	a1,40b9f0 <sys_net_ip+0x88>
  40b9c0:	afbc0018 	sw	gp,24(sp)
  40b9c4:	80820000 	lb	v0,0(a0)
  40b9c8:	8f838260 	lw	v1,-32160(gp)
  40b9cc:	00000000 	nop
  40b9d0:	8c630000 	lw	v1,0(v1)
  40b9d4:	00021080 	sll	v0,v0,0x2
  40b9d8:	00431021 	addu	v0,v0,v1
  40b9dc:	8c420000 	lw	v0,0(v0)
  40b9e0:	24a5ffff 	addiu	a1,a1,-1
  40b9e4:	a0820000 	sb	v0,0(a0)
  40b9e8:	14a0fff6 	bnez	a1,40b9c4 <sys_net_ip+0x5c>
  40b9ec:	24840001 	addiu	a0,a0,1
  40b9f0:	03e00008 	jr	ra
  40b9f4:	27bd0020 	addiu	sp,sp,32
  40b9f8:	3c1c0fc0 	lui	gp,0xfc0
  40b9fc:	279cd898 	addiu	gp,gp,-10088
  40ba00:	0399e021 	addu	gp,gp,t9
  40ba04:	27bdffd8 	addiu	sp,sp,-40
  40ba08:	afbc0010 	sw	gp,16(sp)
  40ba0c:	afbf0020 	sw	ra,32(sp)
  40ba10:	afbc001c 	sw	gp,28(sp)
  40ba14:	afb00018 	sw	s0,24(sp)
  40ba18:	00808021 	move	s0,a0
  40ba1c:	8f998144 	lw	t9,-32444(gp) <strlen>
  40ba20:	00000000 	nop
  40ba24:	0320f809 	jalr	t9
  40ba28:	00000000 	nop
  40ba2c:	8fbc0010 	lw	gp,16(sp)
  40ba30:	02002021 	move	a0,s0
  40ba34:	00402821 	move	a1,v0
  40ba38:	8f998020 	lw	t9,-32736(gp)
  40ba3c:	00000000 	nop
  40ba40:	2739b9a8 	addiu	t9,t9,-18008
  40ba44:	00000000 	nop
  40ba48:	0320f809 	jalr	t9
  40ba4c:	00000000 	nop
  40ba50:	8fbc0010 	lw	gp,16(sp)
  40ba54:	8fbf0020 	lw	ra,32(sp)
  40ba58:	8fb00018 	lw	s0,24(sp)
  40ba5c:	03e00008 	jr	ra
  40ba60:	27bd0028 	addiu	sp,sp,40
  40ba64:	3c1c0fc0 	lui	gp,0xfc0
  40ba68:	279cd82c 	addiu	gp,gp,-10196
  40ba6c:	0399e021 	addu	gp,gp,t9
  40ba70:	27bdff50 	addiu	sp,sp,-176
  40ba74:	afbc0010 	sw	gp,16(sp)
  40ba78:	afbf00ac 	sw	ra,172(sp)
  40ba7c:	afbc00a8 	sw	gp,168(sp)
  40ba80:	afb300a4 	sw	s3,164(sp)
  40ba84:	afb200a0 	sw	s2,160(sp)
  40ba88:	afb1009c 	sw	s1,156(sp)
  40ba8c:	afb00098 	sw	s0,152(sp)
  40ba90:	00801021 	move	v0,a0
  40ba94:	27b20018 	addiu	s2,sp,24
  40ba98:	02402021 	move	a0,s2
  40ba9c:	00a08021 	move	s0,a1
  40baa0:	00402821 	move	a1,v0
  40baa4:	00c08821 	move	s1,a2
  40baa8:	8f9980ec 	lw	t9,-32532(gp) <memcpy>
  40baac:	00000000 	nop
  40bab0:	0320f809 	jalr	t9
  40bab4:	00000000 	nop
  40bab8:	8fbc0010 	lw	gp,16(sp)
  40babc:	27b30058 	addiu	s3,sp,88
  40bac0:	02602021 	move	a0,s3
  40bac4:	02002821 	move	a1,s0
  40bac8:	02203021 	move	a2,s1
  40bacc:	8f9980ec 	lw	t9,-32532(gp) <memcpy>
  40bad0:	00000000 	nop
  40bad4:	0320f809 	jalr	t9
  40bad8:	00000000 	nop
  40badc:	8fbc0010 	lw	gp,16(sp)
  40bae0:	1a20000f 	blez	s1,40bb20 <sys_net_ip+0x1b8>
  40bae4:	00002021 	move	a0,zero
  40bae8:	8f85812c 	lw	a1,-32468(gp)
  40baec:	00000000 	nop
  40baf0:	8ca50000 	lw	a1,0(a1)
  40baf4:	02441821 	addu	v1,s2,a0
  40baf8:	80620000 	lb	v0,0(v1)
  40bafc:	00000000 	nop
  40bb00:	00021080 	sll	v0,v0,0x2
  40bb04:	00451021 	addu	v0,v0,a1
  40bb08:	8c420000 	lw	v0,0(v0)
  40bb0c:	24840001 	addiu	a0,a0,1
  40bb10:	a0620000 	sb	v0,0(v1)
  40bb14:	0091102a 	slt	v0,a0,s1
  40bb18:	1440fff7 	bnez	v0,40baf8 <sys_net_ip+0x190>
  40bb1c:	02441821 	addu	v1,s2,a0
  40bb20:	1a20000f 	blez	s1,40bb60 <sys_net_ip+0x1f8>
  40bb24:	00002021 	move	a0,zero
  40bb28:	8f85812c 	lw	a1,-32468(gp)
  40bb2c:	00000000 	nop
  40bb30:	8ca50000 	lw	a1,0(a1)
  40bb34:	02641821 	addu	v1,s3,a0
  40bb38:	80620000 	lb	v0,0(v1)
  40bb3c:	00000000 	nop
  40bb40:	00021080 	sll	v0,v0,0x2
  40bb44:	00451021 	addu	v0,v0,a1
  40bb48:	8c420000 	lw	v0,0(v0)
  40bb4c:	24840001 	addiu	a0,a0,1
  40bb50:	a0620000 	sb	v0,0(v1)
  40bb54:	0091102a 	slt	v0,a0,s1
  40bb58:	1440fff7 	bnez	v0,40bb38 <sys_net_ip+0x1d0>
  40bb5c:	02641821 	addu	v1,s3,a0
  40bb60:	27a40018 	addiu	a0,sp,24
  40bb64:	27a50058 	addiu	a1,sp,88
  40bb68:	02203021 	move	a2,s1
  40bb6c:	8f99811c 	lw	t9,-32484(gp) <memcmp>
  40bb70:	00000000 	nop
  40bb74:	0320f809 	jalr	t9
  40bb78:	00000000 	nop
  40bb7c:	8fbc0010 	lw	gp,16(sp)
  40bb80:	8fbf00ac 	lw	ra,172(sp)
  40bb84:	8fb300a4 	lw	s3,164(sp)
  40bb88:	8fb200a0 	lw	s2,160(sp)
  40bb8c:	8fb1009c 	lw	s1,156(sp)
  40bb90:	8fb00098 	lw	s0,152(sp)
  40bb94:	03e00008 	jr	ra
  40bb98:	27bd00b0 	addiu	sp,sp,176
  40bb9c:	3c1c0fc0 	lui	gp,0xfc0
  40bba0:	279cd6f4 	addiu	gp,gp,-10508
  40bba4:	0399e021 	addu	gp,gp,t9
  40bba8:	27bdffd0 	addiu	sp,sp,-48
  40bbac:	afbc0010 	sw	gp,16(sp)
  40bbb0:	afbf002c 	sw	ra,44(sp)
  40bbb4:	afbc0028 	sw	gp,40(sp)
  40bbb8:	afb30024 	sw	s3,36(sp)
  40bbbc:	afb20020 	sw	s2,32(sp)
  40bbc0:	afb1001c 	sw	s1,28(sp)
  40bbc4:	afb00018 	sw	s0,24(sp)
  40bbc8:	00808821 	move	s1,a0
  40bbcc:	00a09021 	move	s2,a1
  40bbd0:	12200014 	beqz	s1,40bc24 <sys_net_ip+0x2bc>
  40bbd4:	00c09821 	move	s3,a2
  40bbd8:	12400012 	beqz	s2,40bc24 <sys_net_ip+0x2bc>
  40bbdc:	02202021 	move	a0,s1
  40bbe0:	8f998144 	lw	t9,-32444(gp) <strlen>
  40bbe4:	00000000 	nop
  40bbe8:	0320f809 	jalr	t9
  40bbec:	00000000 	nop
  40bbf0:	8fbc0010 	lw	gp,16(sp)
  40bbf4:	02402021 	move	a0,s2
  40bbf8:	00408021 	move	s0,v0
  40bbfc:	8f998144 	lw	t9,-32444(gp) <strlen>
  40bc00:	00000000 	nop
  40bc04:	0320f809 	jalr	t9
  40bc08:	00000000 	nop
  40bc0c:	8fbc0010 	lw	gp,16(sp)
  40bc10:	0213802a 	slt	s0,s0,s3
  40bc14:	16000003 	bnez	s0,40bc24 <sys_net_ip+0x2bc>
  40bc18:	0053102a 	slt	v0,v0,s3
  40bc1c:	10400003 	beqz	v0,40bc2c <sys_net_ip+0x2c4>
  40bc20:	02202021 	move	a0,s1
  40bc24:	1000000a 	b	40bc50 <sys_net_ip+0x2e8>
  40bc28:	2402ffff 	li	v0,-1
  40bc2c:	02402821 	move	a1,s2
  40bc30:	02603021 	move	a2,s3
  40bc34:	8f998020 	lw	t9,-32736(gp)
  40bc38:	00000000 	nop
  40bc3c:	2739ba64 	addiu	t9,t9,-17820
  40bc40:	00000000 	nop
  40bc44:	0320f809 	jalr	t9
  40bc48:	00000000 	nop
  40bc4c:	8fbc0010 	lw	gp,16(sp)
  40bc50:	8fbf002c 	lw	ra,44(sp)
  40bc54:	8fb30024 	lw	s3,36(sp)
  40bc58:	8fb20020 	lw	s2,32(sp)
  40bc5c:	8fb1001c 	lw	s1,28(sp)
  40bc60:	8fb00018 	lw	s0,24(sp)
  40bc64:	03e00008 	jr	ra
  40bc68:	27bd0030 	addiu	sp,sp,48

0040bc6c <my_stricmp>:
  40bc6c:	3c1c0fc0 	lui	gp,0xfc0
  40bc70:	279cd624 	addiu	gp,gp,-10716
  40bc74:	0399e021 	addu	gp,gp,t9
  40bc78:	27bdffd0 	addiu	sp,sp,-48
  40bc7c:	afbc0010 	sw	gp,16(sp)
  40bc80:	afbf0028 	sw	ra,40(sp)
  40bc84:	afbc0024 	sw	gp,36(sp)
  40bc88:	afb20020 	sw	s2,32(sp)
  40bc8c:	afb1001c 	sw	s1,28(sp)
  40bc90:	afb00018 	sw	s0,24(sp)
  40bc94:	00808821 	move	s1,a0
  40bc98:	1220001d 	beqz	s1,40bd10 <my_stricmp+0xa4>
  40bc9c:	00a09021 	move	s2,a1
  40bca0:	1240001b 	beqz	s2,40bd10 <my_stricmp+0xa4>
  40bca4:	02202021 	move	a0,s1
  40bca8:	8f998144 	lw	t9,-32444(gp) <strlen>
  40bcac:	00000000 	nop
  40bcb0:	0320f809 	jalr	t9
  40bcb4:	00000000 	nop
  40bcb8:	8fbc0010 	lw	gp,16(sp)
  40bcbc:	02402021 	move	a0,s2
  40bcc0:	00408021 	move	s0,v0
  40bcc4:	8f998144 	lw	t9,-32444(gp) <strlen>
  40bcc8:	00000000 	nop
  40bccc:	0320f809 	jalr	t9
  40bcd0:	00000000 	nop
  40bcd4:	8fbc0010 	lw	gp,16(sp)
  40bcd8:	1602000e 	bne	s0,v0,40bd14 <my_stricmp+0xa8>
  40bcdc:	2402ffff 	li	v0,-1
  40bce0:	02202021 	move	a0,s1
  40bce4:	02402821 	move	a1,s2
  40bce8:	02003021 	move	a2,s0
  40bcec:	8f998020 	lw	t9,-32736(gp)
  40bcf0:	00000000 	nop
  40bcf4:	2739ba64 	addiu	t9,t9,-17820
  40bcf8:	00000000 	nop
  40bcfc:	0320f809 	jalr	t9
  40bd00:	00000000 	nop
  40bd04:	8fbc0010 	lw	gp,16(sp)
  40bd08:	10000002 	b	40bd14 <my_stricmp+0xa8>
  40bd0c:	00000000 	nop
  40bd10:	2402ffff 	li	v0,-1
  40bd14:	8fbf0028 	lw	ra,40(sp)
  40bd18:	8fb20020 	lw	s2,32(sp)
  40bd1c:	8fb1001c 	lw	s1,28(sp)
  40bd20:	8fb00018 	lw	s0,24(sp)
  40bd24:	03e00008 	jr	ra
  40bd28:	27bd0030 	addiu	sp,sp,48
  40bd2c:	3c1c0fc0 	lui	gp,0xfc0
  40bd30:	279cd564 	addiu	gp,gp,-10908
  40bd34:	0399e021 	addu	gp,gp,t9
  40bd38:	27bdffd8 	addiu	sp,sp,-40
  40bd3c:	afbc0010 	sw	gp,16(sp)
  40bd40:	afbf0020 	sw	ra,32(sp)
  40bd44:	afbc001c 	sw	gp,28(sp)
  40bd48:	afb00018 	sw	s0,24(sp)
  40bd4c:	00808021 	move	s0,a0
  40bd50:	8f998144 	lw	t9,-32444(gp) <strlen>
  40bd54:	00000000 	nop
  40bd58:	0320f809 	jalr	t9
  40bd5c:	00000000 	nop
  40bd60:	8fbc0010 	lw	gp,16(sp)
  40bd64:	1840000e 	blez	v0,40bda0 <my_stricmp+0x134>
  40bd68:	00000000 	nop
  40bd6c:	02002021 	move	a0,s0
  40bd70:	00402821 	move	a1,v0
  40bd74:	80820000 	lb	v0,0(a0)
  40bd78:	8f83812c 	lw	v1,-32468(gp)
  40bd7c:	00000000 	nop
  40bd80:	8c630000 	lw	v1,0(v1)
  40bd84:	00021080 	sll	v0,v0,0x2
  40bd88:	00431021 	addu	v0,v0,v1
  40bd8c:	8c420000 	lw	v0,0(v0)
  40bd90:	24a5ffff 	addiu	a1,a1,-1
  40bd94:	a0820000 	sb	v0,0(a0)
  40bd98:	14a0fff6 	bnez	a1,40bd74 <my_stricmp+0x108>
  40bd9c:	24840001 	addiu	a0,a0,1
  40bda0:	8fbf0020 	lw	ra,32(sp)
  40bda4:	8fb00018 	lw	s0,24(sp)
  40bda8:	03e00008 	jr	ra
  40bdac:	27bd0028 	addiu	sp,sp,40
  40bdb0:	3c1c0fc0 	lui	gp,0xfc0
  40bdb4:	279cd4e0 	addiu	gp,gp,-11040
  40bdb8:	0399e021 	addu	gp,gp,t9
  40bdbc:	00a04021 	move	t0,a1
  40bdc0:	8d060000 	lw	a2,0(t0)
  40bdc4:	00803821 	move	a3,a0
  40bdc8:	00e61021 	addu	v0,a3,a2
  40bdcc:	80420000 	lb	v0,0(v0)
  40bdd0:	8f83808c 	lw	v1,-32628(gp)
  40bdd4:	00000000 	nop
  40bdd8:	8c630000 	lw	v1,0(v1)
  40bddc:	00021040 	sll	v0,v0,0x1
  40bde0:	00431021 	addu	v0,v0,v1
  40bde4:	94420000 	lhu	v0,0(v0)
  40bde8:	00000000 	nop
  40bdec:	30420008 	andi	v0,v0,0x8
  40bdf0:	10400016 	beqz	v0,40be4c <my_stricmp+0x1e0>
  40bdf4:	00002821 	move	a1,zero
  40bdf8:	2404000a 	li	a0,10
  40bdfc:	00e61821 	addu	v1,a3,a2
  40be00:	24c20001 	addiu	v0,a2,1
  40be04:	00a40018 	mult	a1,a0
  40be08:	80650000 	lb	a1,0(v1)
  40be0c:	ad020000 	sw	v0,0(t0)
  40be10:	00403021 	move	a2,v0
  40be14:	00e61021 	addu	v0,a3,a2
  40be18:	80420000 	lb	v0,0(v0)
  40be1c:	8f83808c 	lw	v1,-32628(gp)
  40be20:	00000000 	nop
  40be24:	8c630000 	lw	v1,0(v1)
  40be28:	00021040 	sll	v0,v0,0x1
  40be2c:	00431021 	addu	v0,v0,v1
  40be30:	94420000 	lhu	v0,0(v0)
  40be34:	00000000 	nop
  40be38:	30420008 	andi	v0,v0,0x8
  40be3c:	00002012 	mflo	a0
  40be40:	2484ffd0 	addiu	a0,a0,-48
  40be44:	1440ffec 	bnez	v0,40bdf8 <my_stricmp+0x18c>
  40be48:	00852821 	addu	a1,a0,a1
  40be4c:	03e00008 	jr	ra
  40be50:	00a01021 	move	v0,a1
  40be54:	3c1c0fc0 	lui	gp,0xfc0
  40be58:	279cd43c 	addiu	gp,gp,-11204
  40be5c:	0399e021 	addu	gp,gp,t9
  40be60:	27bdffc8 	addiu	sp,sp,-56
  40be64:	afbc0010 	sw	gp,16(sp)
  40be68:	afbf0034 	sw	ra,52(sp)
  40be6c:	afbc0030 	sw	gp,48(sp)
  40be70:	afb3002c 	sw	s3,44(sp)
  40be74:	afb20028 	sw	s2,40(sp)
  40be78:	afb10024 	sw	s1,36(sp)
  40be7c:	afb00020 	sw	s0,32(sp)
  40be80:	00808821 	move	s1,a0
  40be84:	00a09821 	move	s3,a1
  40be88:	8f998144 	lw	t9,-32444(gp) <strlen>
  40be8c:	00000000 	nop
  40be90:	0320f809 	jalr	t9
  40be94:	00000000 	nop
  40be98:	8fbc0010 	lw	gp,16(sp)
  40be9c:	00409021 	move	s2,v0
  40bea0:	1e40000b 	bgtz	s2,40bed0 <my_stricmp+0x264>
  40bea4:	00008021 	move	s0,zero
  40bea8:	02602021 	move	a0,s3
  40beac:	00002821 	move	a1,zero
  40beb0:	24060004 	li	a2,4
  40beb4:	8f998090 	lw	t9,-32624(gp) <memset>
  40beb8:	00000000 	nop
  40bebc:	0320f809 	jalr	t9
  40bec0:	00000000 	nop
  40bec4:	8fbc0010 	lw	gp,16(sp)
  40bec8:	1000001a 	b	40bf34 <my_stricmp+0x2c8>
  40becc:	00000000 	nop
  40bed0:	afa00018 	sw	zero,24(sp)
  40bed4:	8fa20018 	lw	v0,24(sp)
  40bed8:	00000000 	nop
  40bedc:	0052102a 	slt	v0,v0,s2
  40bee0:	10400014 	beqz	v0,40bf34 <my_stricmp+0x2c8>
  40bee4:	02202021 	move	a0,s1
  40bee8:	27a50018 	addiu	a1,sp,24
  40beec:	8f998020 	lw	t9,-32736(gp)
  40bef0:	00000000 	nop
  40bef4:	2739bdb0 	addiu	t9,t9,-16976
  40bef8:	00000000 	nop
  40befc:	0320f809 	jalr	t9
  40bf00:	00000000 	nop
  40bf04:	8fbc0010 	lw	gp,16(sp)
  40bf08:	02701821 	addu	v1,s3,s0
  40bf0c:	a0620000 	sb	v0,0(v1)
  40bf10:	8fa20018 	lw	v0,24(sp)
  40bf14:	00000000 	nop
  40bf18:	02221821 	addu	v1,s1,v0
  40bf1c:	24420001 	addiu	v0,v0,1
  40bf20:	afa20018 	sw	v0,24(sp)
  40bf24:	80630000 	lb	v1,0(v1)
  40bf28:	2402002e 	li	v0,46
  40bf2c:	1062ffe9 	beq	v1,v0,40bed4 <my_stricmp+0x268>
  40bf30:	26100001 	addiu	s0,s0,1
  40bf34:	8fbf0034 	lw	ra,52(sp)
  40bf38:	8fb3002c 	lw	s3,44(sp)
  40bf3c:	8fb20028 	lw	s2,40(sp)
  40bf40:	8fb10024 	lw	s1,36(sp)
  40bf44:	8fb00020 	lw	s0,32(sp)
  40bf48:	03e00008 	jr	ra
  40bf4c:	27bd0038 	addiu	sp,sp,56
  40bf50:	3c1c0fc0 	lui	gp,0xfc0
  40bf54:	279cd340 	addiu	gp,gp,-11456
  40bf58:	0399e021 	addu	gp,gp,t9
  40bf5c:	03e00008 	jr	ra
  40bf60:	00001021 	move	v0,zero

0040bf64 <sys_net_mac>:
  40bf64:	3c1c0fc0 	lui	gp,0xfc0
  40bf68:	279cd32c 	addiu	gp,gp,-11476
  40bf6c:	0399e021 	addu	gp,gp,t9
  40bf70:	27bdffd8 	addiu	sp,sp,-40
  40bf74:	afbc0010 	sw	gp,16(sp)
  40bf78:	afbf0020 	sw	ra,32(sp)
  40bf7c:	afbc001c 	sw	gp,28(sp)
  40bf80:	afb00018 	sw	s0,24(sp)
  40bf84:	8f82801c 	lw	v0,-32740(gp)
  40bf88:	00000000 	nop
  40bf8c:	24421220 	addiu	v0,v0,4640
  40bf90:	8c420000 	lw	v0,0(v0)
  40bf94:	00000000 	nop
  40bf98:	10400011 	beqz	v0,40bfe0 <sys_net_mac+0x7c>
  40bf9c:	00808021 	move	s0,a0
  40bfa0:	8f81801c 	lw	at,-32740(gp)
  40bfa4:	00000000 	nop
  40bfa8:	24211220 	addiu	at,at,4640
  40bfac:	ac200000 	sw	zero,0(at)
  40bfb0:	8f84801c 	lw	a0,-32740(gp)
  40bfb4:	00000000 	nop
  40bfb8:	24841210 	addiu	a0,a0,4624
  40bfbc:	8f85801c 	lw	a1,-32740(gp)
  40bfc0:	00000000 	nop
  40bfc4:	24a51f90 	addiu	a1,a1,8080
  40bfc8:	8f9981c4 	lw	t9,-32316(gp) <get_if_mac>
  40bfcc:	00000000 	nop
  40bfd0:	0320f809 	jalr	t9
  40bfd4:	00000000 	nop
  40bfd8:	8fbc0010 	lw	gp,16(sp)
  40bfdc:	00000000 	nop
  40bfe0:	8f85801c 	lw	a1,-32740(gp)
  40bfe4:	00000000 	nop
  40bfe8:	24a51f90 	addiu	a1,a1,8080
  40bfec:	00000000 	nop
  40bff0:	80a20000 	lb	v0,0(a1)
  40bff4:	80a30001 	lb	v1,1(a1)
  40bff8:	80a40002 	lb	a0,2(a1)
  40bffc:	a2020000 	sb	v0,0(s0)
  40c000:	a2030001 	sb	v1,1(s0)
  40c004:	a2040002 	sb	a0,2(s0)
  40c008:	80a20003 	lb	v0,3(a1)
  40c00c:	80a30004 	lb	v1,4(a1)
  40c010:	80a40005 	lb	a0,5(a1)
  40c014:	a2020003 	sb	v0,3(s0)
  40c018:	a2030004 	sb	v1,4(s0)
  40c01c:	a2040005 	sb	a0,5(s0)
  40c020:	8fbf0020 	lw	ra,32(sp)
  40c024:	8fb00018 	lw	s0,24(sp)
  40c028:	24020006 	li	v0,6
  40c02c:	03e00008 	jr	ra
  40c030:	27bd0028 	addiu	sp,sp,40

0040c034 <sys_lan_mac>:
  40c034:	3c1c0fc0 	lui	gp,0xfc0
  40c038:	279cd25c 	addiu	gp,gp,-11684
  40c03c:	0399e021 	addu	gp,gp,t9
  40c040:	27bdffd8 	addiu	sp,sp,-40
  40c044:	afbc0010 	sw	gp,16(sp)
  40c048:	afbf0024 	sw	ra,36(sp)
  40c04c:	afbc0020 	sw	gp,32(sp)
  40c050:	afb1001c 	sw	s1,28(sp)
  40c054:	afb00018 	sw	s0,24(sp)
  40c058:	00008021 	move	s0,zero
  40c05c:	8f82801c 	lw	v0,-32740(gp)
  40c060:	00000000 	nop
  40c064:	24421224 	addiu	v0,v0,4644
  40c068:	8c420000 	lw	v0,0(v0)
  40c06c:	00000000 	nop
  40c070:	10400026 	beqz	v0,40c10c <sys_lan_mac+0xd8>
  40c074:	00808821 	move	s1,a0
  40c078:	8f81801c 	lw	at,-32740(gp)
  40c07c:	00000000 	nop
  40c080:	24211224 	addiu	at,at,4644
  40c084:	ac200000 	sw	zero,0(at)
  40c088:	8f84801c 	lw	a0,-32740(gp)
  40c08c:	00000000 	nop
  40c090:	24841f98 	addiu	a0,a0,8088
  40c094:	8f998020 	lw	t9,-32736(gp)
  40c098:	00000000 	nop
  40c09c:	2739bf64 	addiu	t9,t9,-16540
  40c0a0:	00000000 	nop
  40c0a4:	0320f809 	jalr	t9
  40c0a8:	00000000 	nop
  40c0ac:	8fbc0010 	lw	gp,16(sp)
  40c0b0:	24040005 	li	a0,5
  40c0b4:	8f83801c 	lw	v1,-32740(gp)
  40c0b8:	00000000 	nop
  40c0bc:	24631f98 	addiu	v1,v1,8088
  40c0c0:	00641821 	addu	v1,v1,a0
  40c0c4:	90630000 	lbu	v1,0(v1)
  40c0c8:	8f85801c 	lw	a1,-32740(gp)
  40c0cc:	00000000 	nop
  40c0d0:	24a51f98 	addiu	a1,a1,8088
  40c0d4:	16000003 	bnez	s0,40c0e4 <sys_lan_mac+0xb0>
  40c0d8:	24020005 	li	v0,5
  40c0dc:	14820003 	bne	a0,v0,40c0ec <sys_lan_mac+0xb8>
  40c0e0:	2c620100 	sltiu	v0,v1,256
  40c0e4:	24630001 	addiu	v1,v1,1
  40c0e8:	2c620100 	sltiu	v0,v1,256
  40c0ec:	14400003 	bnez	v0,40c0fc <sys_lan_mac+0xc8>
  40c0f0:	00008021 	move	s0,zero
  40c0f4:	00001821 	move	v1,zero
  40c0f8:	24100001 	li	s0,1
  40c0fc:	00851021 	addu	v0,a0,a1
  40c100:	2484ffff 	addiu	a0,a0,-1
  40c104:	0481ffeb 	bgez	a0,40c0b4 <sys_lan_mac+0x80>
  40c108:	a0430000 	sb	v1,0(v0)
  40c10c:	8f85801c 	lw	a1,-32740(gp)
  40c110:	00000000 	nop
  40c114:	24a51f98 	addiu	a1,a1,8088
  40c118:	00000000 	nop
  40c11c:	80a20000 	lb	v0,0(a1)
  40c120:	80a30001 	lb	v1,1(a1)
  40c124:	80a40002 	lb	a0,2(a1)
  40c128:	a2220000 	sb	v0,0(s1)
  40c12c:	a2230001 	sb	v1,1(s1)
  40c130:	a2240002 	sb	a0,2(s1)
  40c134:	80a20003 	lb	v0,3(a1)
  40c138:	80a30004 	lb	v1,4(a1)
  40c13c:	80a40005 	lb	a0,5(a1)
  40c140:	a2220003 	sb	v0,3(s1)
  40c144:	a2230004 	sb	v1,4(s1)
  40c148:	a2240005 	sb	a0,5(s1)
  40c14c:	8fbf0024 	lw	ra,36(sp)
  40c150:	8fb1001c 	lw	s1,28(sp)
  40c154:	8fb00018 	lw	s0,24(sp)
  40c158:	24020006 	li	v0,6
  40c15c:	03e00008 	jr	ra
  40c160:	27bd0028 	addiu	sp,sp,40
  40c164:	3c1c0fc0 	lui	gp,0xfc0
  40c168:	279cd12c 	addiu	gp,gp,-11988
  40c16c:	0399e021 	addu	gp,gp,t9
  40c170:	27bdffc0 	addiu	sp,sp,-64
  40c174:	afbc0020 	sw	gp,32(sp)
  40c178:	afbf0038 	sw	ra,56(sp)
  40c17c:	afbc0034 	sw	gp,52(sp)
  40c180:	afb00030 	sw	s0,48(sp)
  40c184:	00808021 	move	s0,a0
  40c188:	27a40028 	addiu	a0,sp,40
  40c18c:	8f998020 	lw	t9,-32736(gp)
  40c190:	00000000 	nop
  40c194:	2739bf64 	addiu	t9,t9,-16540
  40c198:	00000000 	nop
  40c19c:	0320f809 	jalr	t9
  40c1a0:	00000000 	nop
  40c1a4:	8fbc0020 	lw	gp,32(sp)
  40c1a8:	02002021 	move	a0,s0
  40c1ac:	8f858020 	lw	a1,-32736(gp)
  40c1b0:	00000000 	nop
  40c1b4:	24a54b5c 	addiu	a1,a1,19292		# "%.2X%.2X%.2X%.2X%.2X%.2X"
  40c1b8:	93a2002a 	lbu	v0,42(sp)
  40c1bc:	93a3002b 	lbu	v1,43(sp)
  40c1c0:	93a60028 	lbu	a2,40(sp)
  40c1c4:	93a70029 	lbu	a3,41(sp)
  40c1c8:	afa20010 	sw	v0,16(sp)
  40c1cc:	afa30014 	sw	v1,20(sp)
  40c1d0:	93a2002c 	lbu	v0,44(sp)
  40c1d4:	93a3002d 	lbu	v1,45(sp)
  40c1d8:	afa20018 	sw	v0,24(sp)
  40c1dc:	afa3001c 	sw	v1,28(sp)
  40c1e0:	8f998060 	lw	t9,-32672(gp) <sprintf>
  40c1e4:	00000000 	nop
  40c1e8:	0320f809 	jalr	t9
  40c1ec:	00000000 	nop
  40c1f0:	8fbc0020 	lw	gp,32(sp)
  40c1f4:	8fbf0038 	lw	ra,56(sp)
  40c1f8:	8fb00030 	lw	s0,48(sp)
  40c1fc:	03e00008 	jr	ra
  40c200:	27bd0040 	addiu	sp,sp,64

0040c204 <ip_ip4>:
  40c204:	3c1c0fc0 	lui	gp,0xfc0
  40c208:	279cd08c 	addiu	gp,gp,-12148
  40c20c:	0399e021 	addu	gp,gp,t9
  40c210:	00803021 	move	a2,a0
  40c214:	00004021 	move	t0,zero
  40c218:	80c20000 	lb	v0,0(a2)
  40c21c:	8f89808c 	lw	t1,-32628(gp)
  40c220:	00000000 	nop
  40c224:	8d290000 	lw	t1,0(t1)
  40c228:	00021040 	sll	v0,v0,0x1
  40c22c:	00491021 	addu	v0,v0,t1
  40c230:	94420000 	lhu	v0,0(v0)
  40c234:	90c70000 	lbu	a3,0(a2)
  40c238:	30420008 	andi	v0,v0,0x8
  40c23c:	10400010 	beqz	v0,40c280 <ip_ip4+0x7c>
  40c240:	00002021 	move	a0,zero
  40c244:	2403000a 	li	v1,10
  40c248:	24c60001 	addiu	a2,a2,1
  40c24c:	00830018 	mult	a0,v1
  40c250:	00072600 	sll	a0,a3,0x18
  40c254:	80c20000 	lb	v0,0(a2)
  40c258:	00042603 	sra	a0,a0,0x18
  40c25c:	00021040 	sll	v0,v0,0x1
  40c260:	00491021 	addu	v0,v0,t1
  40c264:	94420000 	lhu	v0,0(v0)
  40c268:	90c70000 	lbu	a3,0(a2)
  40c26c:	30420008 	andi	v0,v0,0x8
  40c270:	00001812 	mflo	v1
  40c274:	2463ffd0 	addiu	v1,v1,-48
  40c278:	1440fff2 	bnez	v0,40c244 <ip_ip4+0x40>
  40c27c:	00642021 	addu	a0,v1,a0
  40c280:	00a81021 	addu	v0,a1,t0
  40c284:	a0440000 	sb	a0,0(v0)
  40c288:	80c30000 	lb	v1,0(a2)
  40c28c:	2402002e 	li	v0,46
  40c290:	14620005 	bne	v1,v0,40c2a8 <ip_ip4+0xa4>
  40c294:	24c60001 	addiu	a2,a2,1
  40c298:	25080001 	addiu	t0,t0,1
  40c29c:	29020004 	slti	v0,t0,4
  40c2a0:	1440ffdd 	bnez	v0,40c218 <ip_ip4+0x14>
  40c2a4:	00000000 	nop
  40c2a8:	03e00008 	jr	ra
  40c2ac:	00001021 	move	v0,zero

0040c2b0 <ip4_ip>:
  40c2b0:	3c1c0fc0 	lui	gp,0xfc0
  40c2b4:	279ccfe0 	addiu	gp,gp,-12320
  40c2b8:	0399e021 	addu	gp,gp,t9
  40c2bc:	27bdffd8 	addiu	sp,sp,-40
  40c2c0:	afbc0018 	sw	gp,24(sp)
  40c2c4:	afbf0024 	sw	ra,36(sp)
  40c2c8:	afbc0020 	sw	gp,32(sp)
  40c2cc:	00801021 	move	v0,a0
  40c2d0:	90430002 	lbu	v1,2(v0)
  40c2d4:	90440003 	lbu	a0,3(v0)
  40c2d8:	afa30010 	sw	v1,16(sp)
  40c2dc:	afa40014 	sw	a0,20(sp)
  40c2e0:	00a02021 	move	a0,a1
  40c2e4:	90460000 	lbu	a2,0(v0)
  40c2e8:	90470001 	lbu	a3,1(v0)
  40c2ec:	8f858020 	lw	a1,-32736(gp)
  40c2f0:	00000000 	nop
  40c2f4:	24a54b78 	addiu	a1,a1,19320		# "%d.%d.%d.%d"
  40c2f8:	8f998060 	lw	t9,-32672(gp) <sprintf>
  40c2fc:	00000000 	nop
  40c300:	0320f809 	jalr	t9
  40c304:	00000000 	nop
  40c308:	8fbc0018 	lw	gp,24(sp)
  40c30c:	8fbf0024 	lw	ra,36(sp)
  40c310:	00001021 	move	v0,zero
  40c314:	03e00008 	jr	ra
  40c318:	27bd0028 	addiu	sp,sp,40
  40c31c:	3c1c0fc0 	lui	gp,0xfc0
  40c320:	279ccf74 	addiu	gp,gp,-12428
  40c324:	0399e021 	addu	gp,gp,t9
  40c328:	00001821 	move	v1,zero
  40c32c:	00831021 	addu	v0,a0,v1
  40c330:	80420000 	lb	v0,0(v0)
  40c334:	00000000 	nop
  40c338:	10400003 	beqz	v0,40c348 <ip4_ip+0x98>
  40c33c:	24630001 	addiu	v1,v1,1
  40c340:	03e00008 	jr	ra
  40c344:	00001021 	move	v0,zero
  40c348:	28620004 	slti	v0,v1,4
  40c34c:	1440fff8 	bnez	v0,40c330 <ip4_ip+0x80>
  40c350:	00831021 	addu	v0,a0,v1
  40c354:	03e00008 	jr	ra
  40c358:	24020001 	li	v0,1
  40c35c:	3c1c0fc0 	lui	gp,0xfc0
  40c360:	279ccf34 	addiu	gp,gp,-12492
  40c364:	0399e021 	addu	gp,gp,t9
  40c368:	27bdffe0 	addiu	sp,sp,-32
  40c36c:	afbc0010 	sw	gp,16(sp)
  40c370:	afbf001c 	sw	ra,28(sp)
  40c374:	afbc0018 	sw	gp,24(sp)
  40c378:	00002821 	move	a1,zero
  40c37c:	24060004 	li	a2,4
  40c380:	8f998090 	lw	t9,-32624(gp) <memset>
  40c384:	00000000 	nop
  40c388:	0320f809 	jalr	t9
  40c38c:	00000000 	nop
  40c390:	8fbc0010 	lw	gp,16(sp)
  40c394:	8fbf001c 	lw	ra,28(sp)
  40c398:	00000000 	nop
  40c39c:	03e00008 	jr	ra
  40c3a0:	27bd0020 	addiu	sp,sp,32
  40c3a4:	3c1c0fc0 	lui	gp,0xfc0
  40c3a8:	279cceec 	addiu	gp,gp,-12564
  40c3ac:	0399e021 	addu	gp,gp,t9
  40c3b0:	27bdffe0 	addiu	sp,sp,-32
  40c3b4:	afbc0010 	sw	gp,16(sp)
  40c3b8:	afbf001c 	sw	ra,28(sp)
  40c3bc:	afbc0018 	sw	gp,24(sp)
  40c3c0:	24060004 	li	a2,4
  40c3c4:	8f99811c 	lw	t9,-32484(gp) <memcmp>
  40c3c8:	00000000 	nop
  40c3cc:	0320f809 	jalr	t9
  40c3d0:	00000000 	nop
  40c3d4:	8fbc0010 	lw	gp,16(sp)
  40c3d8:	8fbf001c 	lw	ra,28(sp)
  40c3dc:	00000000 	nop
  40c3e0:	03e00008 	jr	ra
  40c3e4:	27bd0020 	addiu	sp,sp,32
  40c3e8:	3c1c0fc0 	lui	gp,0xfc0
  40c3ec:	279ccea8 	addiu	gp,gp,-12632
  40c3f0:	0399e021 	addu	gp,gp,t9
  40c3f4:	80a20000 	lb	v0,0(a1)
  40c3f8:	80a30001 	lb	v1,1(a1)
  40c3fc:	80a60002 	lb	a2,2(a1)
  40c400:	80a70003 	lb	a3,3(a1)
  40c404:	a0820000 	sb	v0,0(a0)
  40c408:	a0830001 	sb	v1,1(a0)
  40c40c:	a0860002 	sb	a2,2(a0)
  40c410:	a0870003 	sb	a3,3(a0)
  40c414:	03e00008 	jr	ra
  40c418:	24020004 	li	v0,4
  40c41c:	3c1c0fc0 	lui	gp,0xfc0
  40c420:	279cce74 	addiu	gp,gp,-12684
  40c424:	0399e021 	addu	gp,gp,t9
  40c428:	10e00030 	beqz	a3,40c4ec <ip4_ip+0x23c>
  40c42c:	00000000 	nop
  40c430:	18c00019 	blez	a2,40c498 <ip4_ip+0x1e8>
  40c434:	24020001 	li	v0,1
  40c438:	14a20019 	bne	a1,v0,40c4a0 <ip4_ip+0x1f0>
  40c43c:	2402ffff 	li	v0,-1
  40c440:	24e2ffff 	addiu	v0,a3,-1
  40c444:	00822021 	addu	a0,a0,v0
  40c448:	00403821 	move	a3,v0
  40c44c:	2402ffff 	li	v0,-1
  40c450:	10e20008 	beq	a3,v0,40c474 <ip4_ip+0x1c4>
  40c454:	00861821 	addu	v1,a0,a2
  40c458:	90820000 	lbu	v0,0(a0)
  40c45c:	2484ffff 	addiu	a0,a0,-1
  40c460:	24e7ffff 	addiu	a3,a3,-1
  40c464:	a0620000 	sb	v0,0(v1)
  40c468:	2402ffff 	li	v0,-1
  40c46c:	14e2fffa 	bne	a3,v0,40c458 <ip4_ip+0x1a8>
  40c470:	2463ffff 	addiu	v1,v1,-1
  40c474:	24c6ffff 	addiu	a2,a2,-1
  40c478:	2402ffff 	li	v0,-1
  40c47c:	10c2001b 	beq	a2,v0,40c4ec <ip4_ip+0x23c>
  40c480:	00000000 	nop
  40c484:	a0600000 	sb	zero,0(v1)
  40c488:	24c6ffff 	addiu	a2,a2,-1
  40c48c:	2402ffff 	li	v0,-1
  40c490:	14c2fffc 	bne	a2,v0,40c484 <ip4_ip+0x1d4>
  40c494:	2463ffff 	addiu	v1,v1,-1
  40c498:	03e00008 	jr	ra
  40c49c:	00000000 	nop
  40c4a0:	14a2fffd 	bne	a1,v0,40c498 <ip4_ip+0x1e8>
  40c4a4:	24e7ffff 	addiu	a3,a3,-1
  40c4a8:	10e5000c 	beq	a3,a1,40c4dc <ip4_ip+0x22c>
  40c4ac:	00861823 	subu	v1,a0,a2
  40c4b0:	90820000 	lbu	v0,0(a0)
  40c4b4:	24840001 	addiu	a0,a0,1
  40c4b8:	24e7ffff 	addiu	a3,a3,-1
  40c4bc:	a0620000 	sb	v0,0(v1)
  40c4c0:	2402ffff 	li	v0,-1
  40c4c4:	14e2fffa 	bne	a3,v0,40c4b0 <ip4_ip+0x200>
  40c4c8:	24630001 	addiu	v1,v1,1
  40c4cc:	10000005 	b	40c4e4 <ip4_ip+0x234>
  40c4d0:	24c6ffff 	addiu	a2,a2,-1
  40c4d4:	a0600000 	sb	zero,0(v1)
  40c4d8:	24630001 	addiu	v1,v1,1
  40c4dc:	24c6ffff 	addiu	a2,a2,-1
  40c4e0:	2402ffff 	li	v0,-1
  40c4e4:	14c2fffb 	bne	a2,v0,40c4d4 <ip4_ip+0x224>
  40c4e8:	00000000 	nop
  40c4ec:	03e00008 	jr	ra
  40c4f0:	00000000 	nop
  40c4f4:	3c1c0fc0 	lui	gp,0xfc0
  40c4f8:	279ccd9c 	addiu	gp,gp,-12900
  40c4fc:	0399e021 	addu	gp,gp,t9
  40c500:	03e00008 	jr	ra
  40c504:	00001021 	move	v0,zero
  40c508:	3c1c0fc0 	lui	gp,0xfc0
  40c50c:	279ccd88 	addiu	gp,gp,-12920
  40c510:	0399e021 	addu	gp,gp,t9
  40c514:	03e00008 	jr	ra
  40c518:	00001021 	move	v0,zero
  40c51c:	3c1c0fc0 	lui	gp,0xfc0
  40c520:	279ccd74 	addiu	gp,gp,-12940
  40c524:	0399e021 	addu	gp,gp,t9
  40c528:	27bdffa0 	addiu	sp,sp,-96
  40c52c:	afbc0010 	sw	gp,16(sp)
  40c530:	afbf005c 	sw	ra,92(sp)
  40c534:	afbc0058 	sw	gp,88(sp)
  40c538:	27a40019 	addiu	a0,sp,25
  40c53c:	00002821 	move	a1,zero
  40c540:	8f828020 	lw	v0,-32736(gp)
  40c544:	00000000 	nop
  40c548:	24424b90 	addiu	v0,v0,19344
  40c54c:	90420000 	lbu	v0,0(v0)
  40c550:	2406002f 	li	a2,47
  40c554:	a3a20018 	sb	v0,24(sp)
  40c558:	8f998090 	lw	t9,-32624(gp) <memset>
  40c55c:	00000000 	nop
  40c560:	0320f809 	jalr	t9
  40c564:	00000000 	nop
  40c568:	8fbc0010 	lw	gp,16(sp)
  40c56c:	8fbf005c 	lw	ra,92(sp)
  40c570:	00000000 	nop
  40c574:	03e00008 	jr	ra
  40c578:	27bd0060 	addiu	sp,sp,96
  40c57c:	3c1c0fc0 	lui	gp,0xfc0
  40c580:	279ccd14 	addiu	gp,gp,-13036
  40c584:	0399e021 	addu	gp,gp,t9
  40c588:	10a00010 	beqz	a1,40c5cc <ip4_ip+0x31c>
  40c58c:	24a2ffff 	addiu	v0,a1,-1
  40c590:	00823021 	addu	a2,a0,v0
  40c594:	000517c2 	srl	v0,a1,0x1f
  40c598:	00a21021 	addu	v0,a1,v0
  40c59c:	00021043 	sra	v0,v0,0x1
  40c5a0:	1840000a 	blez	v0,40c5cc <ip4_ip+0x31c>
  40c5a4:	00803821 	move	a3,a0
  40c5a8:	00402821 	move	a1,v0
  40c5ac:	24a5ffff 	addiu	a1,a1,-1
  40c5b0:	90c20000 	lbu	v0,0(a2)
  40c5b4:	80e30000 	lb	v1,0(a3)
  40c5b8:	a0e20000 	sb	v0,0(a3)
  40c5bc:	24e70001 	addiu	a3,a3,1
  40c5c0:	a0c30000 	sb	v1,0(a2)
  40c5c4:	14a0fff9 	bnez	a1,40c5ac <ip4_ip+0x2fc>
  40c5c8:	24c6ffff 	addiu	a2,a2,-1
  40c5cc:	03e00008 	jr	ra
  40c5d0:	00801021 	move	v0,a0
  40c5d4:	3c1c0fc0 	lui	gp,0xfc0
  40c5d8:	279cccbc 	addiu	gp,gp,-13124
  40c5dc:	0399e021 	addu	gp,gp,t9
  40c5e0:	27bdffb0 	addiu	sp,sp,-80
  40c5e4:	afbc0010 	sw	gp,16(sp)
  40c5e8:	afbf0048 	sw	ra,72(sp)
  40c5ec:	afbc0044 	sw	gp,68(sp)
  40c5f0:	afb40040 	sw	s4,64(sp)
  40c5f4:	afb3003c 	sw	s3,60(sp)
  40c5f8:	afb20038 	sw	s2,56(sp)
  40c5fc:	afb10034 	sw	s1,52(sp)
  40c600:	afb00030 	sw	s0,48(sp)
  40c604:	afa00020 	sw	zero,32(sp)
  40c608:	3c120055 	lui	s2,0x55
  40c60c:	36520917 	ori	s2,s2,0x917
  40c610:	3c130055 	lui	s3,0x55
  40c614:	0080a021 	move	s4,a0
  40c618:	82820020 	lb	v0,32(s4)
  40c61c:	82830021 	lb	v1,33(s4)
  40c620:	82840022 	lb	a0,34(s4)
  40c624:	82860023 	lb	a2,35(s4)
  40c628:	a3a20020 	sb	v0,32(sp)
  40c62c:	a3a30021 	sb	v1,33(sp)
  40c630:	a3a40022 	sb	a0,34(sp)
  40c634:	a3a60023 	sb	a2,35(sp)
  40c638:	8fa60020 	lw	a2,32(sp)
  40c63c:	00000000 	nop
  40c640:	24c20100 	addiu	v0,a2,256
  40c644:	10a2000d 	beq	a1,v0,40c67c <ip4_ip+0x3cc>
  40c648:	36730917 	ori	s3,s3,0x917
  40c64c:	8f848020 	lw	a0,-32736(gp)
  40c650:	00000000 	nop
  40c654:	24844b94 	addiu	a0,a0,19348		# "!2 ACT CheckSum src_len = %d length = %d"
  40c658:	8f998020 	lw	t9,-32736(gp)
  40c65c:	00000000 	nop
  40c660:	2739cd14 	addiu	t9,t9,-13036
  40c664:	00000000 	nop
  40c668:	0320f809 	jalr	t9
  40c66c:	00000000 	nop
  40c670:	8fbc0010 	lw	gp,16(sp)
  40c674:	1000007e 	b	40c870 <ip4_ip+0x5c0>
  40c678:	2402ffff 	li	v0,-1
  40c67c:	24c20003 	addiu	v0,a2,3
  40c680:	00028083 	sra	s0,v0,0x2
  40c684:	02852021 	addu	a0,s4,a1
  40c688:	00002821 	move	a1,zero
  40c68c:	24060003 	li	a2,3
  40c690:	8f998090 	lw	t9,-32624(gp) <memset>
  40c694:	00000000 	nop
  40c698:	0320f809 	jalr	t9
  40c69c:	00000000 	nop
  40c6a0:	8fbc0010 	lw	gp,16(sp)
  40c6a4:	2610ffff 	addiu	s0,s0,-1
  40c6a8:	2402ffff 	li	v0,-1
  40c6ac:	12020008 	beq	s0,v0,40c6d0 <ip4_ip+0x420>
  40c6b0:	26910100 	addiu	s1,s4,256
  40c6b4:	8e220000 	lw	v0,0(s1)
  40c6b8:	2610ffff 	addiu	s0,s0,-1
  40c6bc:	02629826 	xor	s3,s3,v0
  40c6c0:	02429021 	addu	s2,s2,v0
  40c6c4:	2402ffff 	li	v0,-1
  40c6c8:	1602fffa 	bne	s0,v0,40c6b4 <ip4_ip+0x404>
  40c6cc:	26310004 	addiu	s1,s1,4
  40c6d0:	828200a0 	lb	v0,160(s4)
  40c6d4:	828300a1 	lb	v1,161(s4)
  40c6d8:	828400a2 	lb	a0,162(s4)
  40c6dc:	828500a3 	lb	a1,163(s4)
  40c6e0:	a3a20024 	sb	v0,36(sp)
  40c6e4:	a3a30025 	sb	v1,37(sp)
  40c6e8:	a3a40026 	sb	a0,38(sp)
  40c6ec:	a3a50027 	sb	a1,39(sp)
  40c6f0:	828600a8 	lb	a2,168(s4)
  40c6f4:	828200a9 	lb	v0,169(s4)
  40c6f8:	828300aa 	lb	v1,170(s4)
  40c6fc:	828400ab 	lb	a0,171(s4)
  40c700:	a3a60028 	sb	a2,40(sp)
  40c704:	a3a20029 	sb	v0,41(sp)
  40c708:	a3a3002a 	sb	v1,42(sp)
  40c70c:	a3a4002b 	sb	a0,43(sp)
  40c710:	8fa60024 	lw	a2,36(sp)
  40c714:	00000000 	nop
  40c718:	14c00005 	bnez	a2,40c730 <ip4_ip+0x480>
  40c71c:	00000000 	nop
  40c720:	8fa20028 	lw	v0,40(sp)
  40c724:	00000000 	nop
  40c728:	10400051 	beqz	v0,40c870 <ip4_ip+0x5c0>
  40c72c:	24020001 	li	v0,1
  40c730:	1246000d 	beq	s2,a2,40c768 <ip4_ip+0x4b8>
  40c734:	02402821 	move	a1,s2
  40c738:	8f848020 	lw	a0,-32736(gp)
  40c73c:	00000000 	nop
  40c740:	24844bc0 	addiu	a0,a0,19392		# "!2 Act CheckSum = %X lSum = %X"
  40c744:	8f998020 	lw	t9,-32736(gp)
  40c748:	00000000 	nop
  40c74c:	2739cd14 	addiu	t9,t9,-13036
  40c750:	00000000 	nop
  40c754:	0320f809 	jalr	t9
  40c758:	00000000 	nop
  40c75c:	8fbc0010 	lw	gp,16(sp)
  40c760:	10000043 	b	40c870 <ip4_ip+0x5c0>
  40c764:	2402ffff 	li	v0,-1
  40c768:	8fa60028 	lw	a2,40(sp)
  40c76c:	00000000 	nop
  40c770:	1266000d 	beq	s3,a2,40c7a8 <ip4_ip+0x4f8>
  40c774:	02602821 	move	a1,s3
  40c778:	8f848020 	lw	a0,-32736(gp)
  40c77c:	00000000 	nop
  40c780:	24844be0 	addiu	a0,a0,19424		# "!2 Act CheckSum iCheckInt = %X iCheckXor = %X"
  40c784:	8f998020 	lw	t9,-32736(gp)
  40c788:	00000000 	nop
  40c78c:	2739cd14 	addiu	t9,t9,-13036
  40c790:	00000000 	nop
  40c794:	0320f809 	jalr	t9
  40c798:	00000000 	nop
  40c79c:	8fbc0010 	lw	gp,16(sp)
  40c7a0:	10000033 	b	40c870 <ip4_ip+0x5c0>
  40c7a4:	2402ffff 	li	v0,-1
  40c7a8:	27b00018 	addiu	s0,sp,24
  40c7ac:	02002021 	move	a0,s0
  40c7b0:	00002821 	move	a1,zero
  40c7b4:	24060008 	li	a2,8
  40c7b8:	8f998090 	lw	t9,-32624(gp) <memset>
  40c7bc:	00000000 	nop
  40c7c0:	0320f809 	jalr	t9
  40c7c4:	00000000 	nop
  40c7c8:	8fbc0010 	lw	gp,16(sp)
  40c7cc:	92820a17 	lbu	v0,2583(s4)
  40c7d0:	24050001 	li	a1,1
  40c7d4:	a3a20018 	sb	v0,24(sp)
  40c7d8:	00b01021 	addu	v0,a1,s0
  40c7dc:	00051c00 	sll	v1,a1,0x10
  40c7e0:	9042ffff 	lbu	v0,-1(v0)
  40c7e4:	02052021 	addu	a0,s0,a1
  40c7e8:	24420100 	addiu	v0,v0,256
  40c7ec:	00621821 	addu	v1,v1,v0
  40c7f0:	02831821 	addu	v1,s4,v1
  40c7f4:	90620000 	lbu	v0,0(v1)
  40c7f8:	24a50001 	addiu	a1,a1,1
  40c7fc:	a0820000 	sb	v0,0(a0)
  40c800:	28a20004 	slti	v0,a1,4
  40c804:	1440fff5 	bnez	v0,40c7dc <ip4_ip+0x52c>
  40c808:	00b01021 	addu	v0,a1,s0
  40c80c:	27a40018 	addiu	a0,sp,24
  40c810:	8fa20020 	lw	v0,32(sp)
  40c814:	268500b0 	addiu	a1,s4,176
  40c818:	00541021 	addu	v0,v0,s4
  40c81c:	9042ffff 	lbu	v0,-1(v0)
  40c820:	24060005 	li	a2,5
  40c824:	a3a2001c 	sb	v0,28(sp)
  40c828:	8f99811c 	lw	t9,-32484(gp) <memcmp>
  40c82c:	00000000 	nop
  40c830:	0320f809 	jalr	t9
  40c834:	00000000 	nop
  40c838:	8fbc0010 	lw	gp,16(sp)
  40c83c:	1040000c 	beqz	v0,40c870 <ip4_ip+0x5c0>
  40c840:	24020001 	li	v0,1
  40c844:	8f848020 	lw	a0,-32736(gp)
  40c848:	00000000 	nop
  40c84c:	24844c10 	addiu	a0,a0,19472		# "!2 Act CheckSum check point error"
  40c850:	8f998020 	lw	t9,-32736(gp)
  40c854:	00000000 	nop
  40c858:	2739cd14 	addiu	t9,t9,-13036
  40c85c:	00000000 	nop
  40c860:	0320f809 	jalr	t9
  40c864:	00000000 	nop
  40c868:	8fbc0010 	lw	gp,16(sp)
  40c86c:	2402ffff 	li	v0,-1
  40c870:	8fbf0048 	lw	ra,72(sp)
  40c874:	8fb40040 	lw	s4,64(sp)
  40c878:	8fb3003c 	lw	s3,60(sp)
  40c87c:	8fb20038 	lw	s2,56(sp)
  40c880:	8fb10034 	lw	s1,52(sp)
  40c884:	8fb00030 	lw	s0,48(sp)
  40c888:	03e00008 	jr	ra
  40c88c:	27bd0050 	addiu	sp,sp,80

0040c890 <RC4Cry>:
  40c890:	3c1c0fc0 	lui	gp,0xfc0
  40c894:	279cca00 	addiu	gp,gp,-13824
  40c898:	0399e021 	addu	gp,gp,t9
  40c89c:	27bdf7c8 	addiu	sp,sp,-2104
  40c8a0:	afbc0010 	sw	gp,16(sp)
  40c8a4:	afbf0834 	sw	ra,2100(sp)
  40c8a8:	afbc0830 	sw	gp,2096(sp)
  40c8ac:	afb5082c 	sw	s5,2092(sp)
  40c8b0:	afb40828 	sw	s4,2088(sp)
  40c8b4:	afb30824 	sw	s3,2084(sp)
  40c8b8:	afb20820 	sw	s2,2080(sp)
  40c8bc:	afb1081c 	sw	s1,2076(sp)
  40c8c0:	afb00818 	sw	s0,2072(sp)
  40c8c4:	0080a821 	move	s5,a0
  40c8c8:	00a09821 	move	s3,a1
  40c8cc:	00c0a021 	move	s4,a2
  40c8d0:	00009021 	move	s2,zero
  40c8d4:	00008021 	move	s0,zero
  40c8d8:	00101080 	sll	v0,s0,0x2
  40c8dc:	27b10018 	addiu	s1,sp,24
  40c8e0:	02221021 	addu	v0,s1,v0
  40c8e4:	ac500000 	sw	s0,0(v0)
  40c8e8:	26100001 	addiu	s0,s0,1
  40c8ec:	2a020100 	slti	v0,s0,256
  40c8f0:	1440fffb 	bnez	v0,40c8e0 <RC4Cry+0x50>
  40c8f4:	00101080 	sll	v0,s0,0x2
  40c8f8:	00008021 	move	s0,zero
  40c8fc:	02602021 	move	a0,s3
  40c900:	8f998144 	lw	t9,-32444(gp) <strlen>
  40c904:	00000000 	nop
  40c908:	0320f809 	jalr	t9
  40c90c:	00000000 	nop
  40c910:	8fbc0010 	lw	gp,16(sp)
  40c914:	16420003 	bne	s2,v0,40c924 <RC4Cry+0x94>
  40c918:	02721821 	addu	v1,s3,s2
  40c91c:	00009021 	move	s2,zero
  40c920:	02721821 	addu	v1,s3,s2
  40c924:	00101080 	sll	v0,s0,0x2
  40c928:	26100001 	addiu	s0,s0,1
  40c92c:	27a60418 	addiu	a2,sp,1048
  40c930:	80630000 	lb	v1,0(v1)
  40c934:	00c21021 	addu	v0,a2,v0
  40c938:	ac430000 	sw	v1,0(v0)
  40c93c:	2a020100 	slti	v0,s0,256
  40c940:	1440ffee 	bnez	v0,40c8fc <RC4Cry+0x6c>
  40c944:	26520001 	addiu	s2,s2,1
  40c948:	00009021 	move	s2,zero
  40c94c:	00008021 	move	s0,zero
  40c950:	00101080 	sll	v0,s0,0x2
  40c954:	02222821 	addu	a1,s1,v0
  40c958:	00c21021 	addu	v0,a2,v0
  40c95c:	8ca40000 	lw	a0,0(a1)
  40c960:	8c430000 	lw	v1,0(v0)
  40c964:	02441021 	addu	v0,s2,a0
  40c968:	00431021 	addu	v0,v0,v1
  40c96c:	305200ff 	andi	s2,v0,0xff
  40c970:	00121080 	sll	v0,s2,0x2
  40c974:	02221021 	addu	v0,s1,v0
  40c978:	8c430000 	lw	v1,0(v0)
  40c97c:	26100001 	addiu	s0,s0,1
  40c980:	aca30000 	sw	v1,0(a1)
  40c984:	ac440000 	sw	a0,0(v0)
  40c988:	2a020100 	slti	v0,s0,256
  40c98c:	1440fff0 	bnez	v0,40c950 <RC4Cry+0xc0>
  40c990:	00000000 	nop
  40c994:	00009021 	move	s2,zero
  40c998:	1a80002c 	blez	s4,40ca4c <RC4Cry+0x1bc>
  40c99c:	00008021 	move	s0,zero
  40c9a0:	02a02021 	move	a0,s5
  40c9a4:	02803021 	move	a2,s4
  40c9a8:	26030001 	addiu	v1,s0,1
  40c9ac:	80890000 	lb	t1,0(a0)
  40c9b0:	04610002 	bgez	v1,40c9bc <RC4Cry+0x12c>
  40c9b4:	00601021 	move	v0,v1
  40c9b8:	26020100 	addiu	v0,s0,256
  40c9bc:	00028203 	sra	s0,v0,0x8
  40c9c0:	00101200 	sll	v0,s0,0x8
  40c9c4:	00628023 	subu	s0,v1,v0
  40c9c8:	00101080 	sll	v0,s0,0x2
  40c9cc:	02223821 	addu	a3,s1,v0
  40c9d0:	8ce50000 	lw	a1,0(a3)
  40c9d4:	00000000 	nop
  40c9d8:	02451021 	addu	v0,s2,a1
  40c9dc:	305200ff 	andi	s2,v0,0xff
  40c9e0:	00121080 	sll	v0,s2,0x2
  40c9e4:	02221021 	addu	v0,s1,v0
  40c9e8:	8c430000 	lw	v1,0(v0)
  40c9ec:	00a04021 	move	t0,a1
  40c9f0:	ace30000 	sw	v1,0(a3)
  40c9f4:	04a10002 	bgez	a1,40ca00 <RC4Cry+0x170>
  40c9f8:	ac450000 	sw	a1,0(v0)
  40c9fc:	24a800ff 	addiu	t0,a1,255
  40ca00:	00081203 	sra	v0,t0,0x8
  40ca04:	00021200 	sll	v0,v0,0x8
  40ca08:	8ce30000 	lw	v1,0(a3)
  40ca0c:	00a21023 	subu	v0,a1,v0
  40ca10:	00621821 	addu	v1,v1,v0
  40ca14:	04610002 	bgez	v1,40ca20 <RC4Cry+0x190>
  40ca18:	00601021 	move	v0,v1
  40ca1c:	246200ff 	addiu	v0,v1,255
  40ca20:	00021203 	sra	v0,v0,0x8
  40ca24:	00021200 	sll	v0,v0,0x8
  40ca28:	00621023 	subu	v0,v1,v0
  40ca2c:	00021080 	sll	v0,v0,0x2
  40ca30:	02221021 	addu	v0,s1,v0
  40ca34:	8c420000 	lw	v0,0(v0)
  40ca38:	24c6ffff 	addiu	a2,a2,-1
  40ca3c:	01221026 	xor	v0,t1,v0
  40ca40:	a0820000 	sb	v0,0(a0)
  40ca44:	14c0ffd8 	bnez	a2,40c9a8 <RC4Cry+0x118>
  40ca48:	24840001 	addiu	a0,a0,1
  40ca4c:	8fbf0834 	lw	ra,2100(sp)
  40ca50:	8fb5082c 	lw	s5,2092(sp)
  40ca54:	8fb40828 	lw	s4,2088(sp)
  40ca58:	8fb30824 	lw	s3,2084(sp)
  40ca5c:	8fb20820 	lw	s2,2080(sp)
  40ca60:	8fb1081c 	lw	s1,2076(sp)
  40ca64:	8fb00818 	lw	s0,2072(sp)
  40ca68:	03e00008 	jr	ra
  40ca6c:	27bd0838 	addiu	sp,sp,2104
  40ca70:	3c1c0fc0 	lui	gp,0xfc0
  40ca74:	279cc820 	addiu	gp,gp,-14304
  40ca78:	0399e021 	addu	gp,gp,t9
  40ca7c:	27bdffd8 	addiu	sp,sp,-40
  40ca80:	afbc0010 	sw	gp,16(sp)
  40ca84:	afbf0020 	sw	ra,32(sp)
  40ca88:	afbc001c 	sw	gp,28(sp)
  40ca8c:	afb00018 	sw	s0,24(sp)
  40ca90:	00808021 	move	s0,a0
  40ca94:	1200002c 	beqz	s0,40cb48 <RC4Cry+0x2b8>
  40ca98:	00000000 	nop
  40ca9c:	8f998144 	lw	t9,-32444(gp) <strlen>
  40caa0:	00000000 	nop
  40caa4:	0320f809 	jalr	t9
  40caa8:	00000000 	nop
  40caac:	8fbc0010 	lw	gp,16(sp)
  40cab0:	00004021 	move	t0,zero
  40cab4:	00003821 	move	a3,zero
  40cab8:	00404821 	move	t1,v0
  40cabc:	1920001c 	blez	t1,40cb30 <RC4Cry+0x2a0>
  40cac0:	00003021 	move	a2,zero
  40cac4:	02002021 	move	a0,s0
  40cac8:	80850000 	lb	a1,0(a0)
  40cacc:	8f82808c 	lw	v0,-32628(gp)
  40cad0:	00000000 	nop
  40cad4:	8c420000 	lw	v0,0(v0)
  40cad8:	00051840 	sll	v1,a1,0x1
  40cadc:	00621821 	addu	v1,v1,v0
  40cae0:	94620000 	lhu	v0,0(v1)
  40cae4:	00000000 	nop
  40cae8:	30420008 	andi	v0,v0,0x8
  40caec:	10400003 	beqz	v0,40cafc <RC4Cry+0x26c>
  40caf0:	2402002a 	li	v0,42
  40caf4:	1000000a 	b	40cb20 <RC4Cry+0x290>
  40caf8:	24060001 	li	a2,1
  40cafc:	10a20003 	beq	a1,v0,40cb0c <RC4Cry+0x27c>
  40cb00:	2402002e 	li	v0,46
  40cb04:	14a20010 	bne	a1,v0,40cb48 <RC4Cry+0x2b8>
  40cb08:	00001021 	move	v0,zero
  40cb0c:	14c00003 	bnez	a2,40cb1c <RC4Cry+0x28c>
  40cb10:	25080001 	addiu	t0,t0,1
  40cb14:	1000000c 	b	40cb48 <RC4Cry+0x2b8>
  40cb18:	00001021 	move	v0,zero
  40cb1c:	00003021 	move	a2,zero
  40cb20:	24e70001 	addiu	a3,a3,1
  40cb24:	00e9102a 	slt	v0,a3,t1
  40cb28:	1440ffe7 	bnez	v0,40cac8 <RC4Cry+0x238>
  40cb2c:	24840001 	addiu	a0,a0,1
  40cb30:	24020003 	li	v0,3
  40cb34:	15020004 	bne	t0,v0,40cb48 <RC4Cry+0x2b8>
  40cb38:	00001021 	move	v0,zero
  40cb3c:	14c00002 	bnez	a2,40cb48 <RC4Cry+0x2b8>
  40cb40:	24020001 	li	v0,1
  40cb44:	00001021 	move	v0,zero
  40cb48:	8fbf0020 	lw	ra,32(sp)
  40cb4c:	8fb00018 	lw	s0,24(sp)
  40cb50:	03e00008 	jr	ra
  40cb54:	27bd0028 	addiu	sp,sp,40
  40cb58:	3c1c0fc0 	lui	gp,0xfc0
  40cb5c:	279cc738 	addiu	gp,gp,-14536
  40cb60:	0399e021 	addu	gp,gp,t9
  40cb64:	27bdffe0 	addiu	sp,sp,-32
  40cb68:	afbc0010 	sw	gp,16(sp)
  40cb6c:	afbf001c 	sw	ra,28(sp)
  40cb70:	afbc0018 	sw	gp,24(sp)
  40cb74:	8f848020 	lw	a0,-32736(gp)
  40cb78:	00000000 	nop
  40cb7c:	24844c34 	addiu	a0,a0,19508		# "Flash clear Not Porting"
  40cb80:	8f998020 	lw	t9,-32736(gp)
  40cb84:	00000000 	nop
  40cb88:	2739cd14 	addiu	t9,t9,-13036
  40cb8c:	00000000 	nop
  40cb90:	0320f809 	jalr	t9
  40cb94:	00000000 	nop
  40cb98:	8fbc0010 	lw	gp,16(sp)
  40cb9c:	8fbf001c 	lw	ra,28(sp)
  40cba0:	00001021 	move	v0,zero
  40cba4:	03e00008 	jr	ra
  40cba8:	27bd0020 	addiu	sp,sp,32
  40cbac:	3c1c0fc0 	lui	gp,0xfc0
  40cbb0:	279cc6e4 	addiu	gp,gp,-14620
  40cbb4:	0399e021 	addu	gp,gp,t9
  40cbb8:	27bdffe0 	addiu	sp,sp,-32
  40cbbc:	afbc0010 	sw	gp,16(sp)
  40cbc0:	afbf001c 	sw	ra,28(sp)
  40cbc4:	afbc0018 	sw	gp,24(sp)
  40cbc8:	8f848020 	lw	a0,-32736(gp)
  40cbcc:	00000000 	nop
  40cbd0:	24844c50 	addiu	a0,a0,19536		# "Flash read Not Porting"
  40cbd4:	8f998020 	lw	t9,-32736(gp)
  40cbd8:	00000000 	nop
  40cbdc:	2739cd14 	addiu	t9,t9,-13036
  40cbe0:	00000000 	nop
  40cbe4:	0320f809 	jalr	t9
  40cbe8:	00000000 	nop
  40cbec:	8fbc0010 	lw	gp,16(sp)
  40cbf0:	8fbf001c 	lw	ra,28(sp)
  40cbf4:	00001021 	move	v0,zero
  40cbf8:	03e00008 	jr	ra
  40cbfc:	27bd0020 	addiu	sp,sp,32
  40cc00:	3c1c0fc0 	lui	gp,0xfc0
  40cc04:	279cc690 	addiu	gp,gp,-14704
  40cc08:	0399e021 	addu	gp,gp,t9
  40cc0c:	27bdffe0 	addiu	sp,sp,-32
  40cc10:	afbc0010 	sw	gp,16(sp)
  40cc14:	afbf001c 	sw	ra,28(sp)
  40cc18:	afbc0018 	sw	gp,24(sp)
  40cc1c:	8f848020 	lw	a0,-32736(gp)
  40cc20:	00000000 	nop
  40cc24:	24844c68 	addiu	a0,a0,19560		# "Flash Write Not Porting"
  40cc28:	8f998020 	lw	t9,-32736(gp)
  40cc2c:	00000000 	nop
  40cc30:	2739cd14 	addiu	t9,t9,-13036
  40cc34:	00000000 	nop
  40cc38:	0320f809 	jalr	t9
  40cc3c:	00000000 	nop
  40cc40:	8fbc0010 	lw	gp,16(sp)
  40cc44:	8fbf001c 	lw	ra,28(sp)
  40cc48:	00001021 	move	v0,zero
  40cc4c:	03e00008 	jr	ra
  40cc50:	27bd0020 	addiu	sp,sp,32
  40cc54:	3c1c0fc0 	lui	gp,0xfc0
  40cc58:	279cc63c 	addiu	gp,gp,-14788
  40cc5c:	0399e021 	addu	gp,gp,t9
  40cc60:	27bdffe0 	addiu	sp,sp,-32
  40cc64:	afbc0010 	sw	gp,16(sp)
  40cc68:	afbf001c 	sw	ra,28(sp)
  40cc6c:	afbc0018 	sw	gp,24(sp)
  40cc70:	8f82801c 	lw	v0,-32740(gp)
  40cc74:	00000000 	nop
  40cc78:	24421230 	addiu	v0,v0,4656
  40cc7c:	94420000 	lhu	v0,0(v0)
  40cc80:	00802821 	move	a1,a0
  40cc84:	24430001 	addiu	v1,v0,1
  40cc88:	8f81801c 	lw	at,-32740(gp)
  40cc8c:	00000000 	nop
  40cc90:	24211230 	addiu	at,at,4656
  40cc94:	a4230000 	sh	v1,0(at)
  40cc98:	00021400 	sll	v0,v0,0x10
  40cc9c:	00021283 	sra	v0,v0,0xa
  40cca0:	8f84816c 	lw	a0,-32404(gp)
  40cca4:	00000000 	nop
  40cca8:	00822021 	addu	a0,a0,v0
  40ccac:	8f998030 	lw	t9,-32720(gp) <strcpy>
  40ccb0:	00000000 	nop
  40ccb4:	0320f809 	jalr	t9
  40ccb8:	00000000 	nop
  40ccbc:	8fbc0010 	lw	gp,16(sp)
  40ccc0:	00000000 	nop
  40ccc4:	8f82801c 	lw	v0,-32740(gp)
  40ccc8:	00000000 	nop
  40cccc:	24421230 	addiu	v0,v0,4656
  40ccd0:	84420000 	lh	v0,0(v0)
  40ccd4:	00000000 	nop
  40ccd8:	2842007e 	slti	v0,v0,126
  40ccdc:	14400009 	bnez	v0,40cd04 <RC4Cry+0x474>
  40cce0:	24020001 	li	v0,1
  40cce4:	8f81801c 	lw	at,-32740(gp)
  40cce8:	00000000 	nop
  40ccec:	24211230 	addiu	at,at,4656
  40ccf0:	a4200000 	sh	zero,0(at)
  40ccf4:	8f81801c 	lw	at,-32740(gp)
  40ccf8:	00000000 	nop
  40ccfc:	24211232 	addiu	at,at,4658
  40cd00:	a4220000 	sh	v0,0(at)
  40cd04:	8fbf001c 	lw	ra,28(sp)
  40cd08:	00000000 	nop
  40cd0c:	03e00008 	jr	ra
  40cd10:	27bd0020 	addiu	sp,sp,32

0040cd14 <act_printf>:
  40cd14:	3c1c0fc0 	lui	gp,0xfc0
  40cd18:	279cc57c 	addiu	gp,gp,-14980
  40cd1c:	0399e021 	addu	gp,gp,t9
  40cd20:	afa40000 	sw	a0,0(sp)
  40cd24:	afa50004 	sw	a1,4(sp)
  40cd28:	afa60008 	sw	a2,8(sp)
  40cd2c:	03e00008 	jr	ra
  40cd30:	afa7000c 	sw	a3,12(sp)

0040cd34 <data_printf>:
  40cd34:	3c1c0fc0 	lui	gp,0xfc0
  40cd38:	279cc55c 	addiu	gp,gp,-15012
  40cd3c:	0399e021 	addu	gp,gp,t9
  40cd40:	27bdfdd8 	addiu	sp,sp,-552
  40cd44:	afbc0010 	sw	gp,16(sp)
  40cd48:	afa60230 	sw	a2,560(sp)
  40cd4c:	afa70234 	sw	a3,564(sp)
  40cd50:	afbf0224 	sw	ra,548(sp)
  40cd54:	afbc0220 	sw	gp,544(sp)
  40cd58:	afb1021c 	sw	s1,540(sp)
  40cd5c:	afb00218 	sw	s0,536(sp)
  40cd60:	00808821 	move	s1,a0
  40cd64:	27a40018 	addiu	a0,sp,24
  40cd68:	00a08021 	move	s0,a1
  40cd6c:	00c02821 	move	a1,a2
  40cd70:	27a60234 	addiu	a2,sp,564
  40cd74:	8f998274 	lw	t9,-32140(gp) <vsprintf>
  40cd78:	00000000 	nop
  40cd7c:	0320f809 	jalr	t9
  40cd80:	00000000 	nop
  40cd84:	8fbc0010 	lw	gp,16(sp)
  40cd88:	27a40018 	addiu	a0,sp,24
  40cd8c:	8f998144 	lw	t9,-32444(gp) <strlen>
  40cd90:	00000000 	nop
  40cd94:	0320f809 	jalr	t9
  40cd98:	00000000 	nop
  40cd9c:	8fbc0010 	lw	gp,16(sp)
  40cda0:	02202021 	move	a0,s1
  40cda4:	02002821 	move	a1,s0
  40cda8:	27a60018 	addiu	a2,sp,24
  40cdac:	00403821 	move	a3,v0
  40cdb0:	8f998020 	lw	t9,-32736(gp)
  40cdb4:	00000000 	nop
  40cdb8:	2739cde0 	addiu	t9,t9,-12832
  40cdbc:	00000000 	nop
  40cdc0:	0320f809 	jalr	t9
  40cdc4:	00000000 	nop
  40cdc8:	8fbc0010 	lw	gp,16(sp)
  40cdcc:	8fbf0224 	lw	ra,548(sp)
  40cdd0:	8fb1021c 	lw	s1,540(sp)
  40cdd4:	8fb00218 	lw	s0,536(sp)
  40cdd8:	03e00008 	jr	ra
  40cddc:	27bd0228 	addiu	sp,sp,552
  40cde0:	3c1c0fc0 	lui	gp,0xfc0
  40cde4:	279cc4b0 	addiu	gp,gp,-15184
  40cde8:	0399e021 	addu	gp,gp,t9
  40cdec:	27bdffd8 	addiu	sp,sp,-40
  40cdf0:	afbc0010 	sw	gp,16(sp)
  40cdf4:	afbf0024 	sw	ra,36(sp)
  40cdf8:	afbc0020 	sw	gp,32(sp)
  40cdfc:	afb1001c 	sw	s1,28(sp)
  40ce00:	afb00018 	sw	s0,24(sp)
  40ce04:	00a08021 	move	s0,a1
  40ce08:	00e08821 	move	s1,a3
  40ce0c:	00c02821 	move	a1,a2
  40ce10:	8e020000 	lw	v0,0(s0)
  40ce14:	02203021 	move	a2,s1
  40ce18:	00822021 	addu	a0,a0,v0
  40ce1c:	8f9980ec 	lw	t9,-32532(gp) <memcpy>
  40ce20:	00000000 	nop
  40ce24:	0320f809 	jalr	t9
  40ce28:	00000000 	nop
  40ce2c:	8fbc0010 	lw	gp,16(sp)
  40ce30:	8e020000 	lw	v0,0(s0)
  40ce34:	8fbf0024 	lw	ra,36(sp)
  40ce38:	00511021 	addu	v0,v0,s1
  40ce3c:	ae020000 	sw	v0,0(s0)
  40ce40:	8fb1001c 	lw	s1,28(sp)
  40ce44:	8fb00018 	lw	s0,24(sp)
  40ce48:	03e00008 	jr	ra
  40ce4c:	27bd0028 	addiu	sp,sp,40
  40ce50:	3c1c0fc0 	lui	gp,0xfc0
  40ce54:	279cc440 	addiu	gp,gp,-15296
  40ce58:	0399e021 	addu	gp,gp,t9
  40ce5c:	27bdffb8 	addiu	sp,sp,-72
  40ce60:	afbc0010 	sw	gp,16(sp)
  40ce64:	afbf0044 	sw	ra,68(sp)
  40ce68:	afbc0040 	sw	gp,64(sp)
  40ce6c:	afb7003c 	sw	s7,60(sp)
  40ce70:	afb60038 	sw	s6,56(sp)
  40ce74:	afb50034 	sw	s5,52(sp)
  40ce78:	afb40030 	sw	s4,48(sp)
  40ce7c:	afb3002c 	sw	s3,44(sp)
  40ce80:	afb20028 	sw	s2,40(sp)
  40ce84:	afb10024 	sw	s1,36(sp)
  40ce88:	afb00020 	sw	s0,32(sp)
  40ce8c:	00808021 	move	s0,a0
  40ce90:	00a0b821 	move	s7,a1
  40ce94:	8f998144 	lw	t9,-32444(gp) <strlen>
  40ce98:	00000000 	nop
  40ce9c:	0320f809 	jalr	t9
  40cea0:	00000000 	nop
  40cea4:	8fbc0010 	lw	gp,16(sp)
  40cea8:	00409821 	move	s3,v0
  40ceac:	16600003 	bnez	s3,40cebc <data_printf+0x188>
  40ceb0:	0000a021 	move	s4,zero
  40ceb4:	10000039 	b	40cf9c <data_printf+0x268>
  40ceb8:	2402ffff 	li	v0,-1
  40cebc:	0000b021 	move	s6,zero
  40cec0:	0000a821 	move	s5,zero
  40cec4:	1a600024 	blez	s3,40cf58 <data_printf+0x224>
  40cec8:	00008821 	move	s1,zero
  40cecc:	02009021 	move	s2,s0
  40ced0:	82500000 	lb	s0,0(s2)
  40ced4:	8f84801c 	lw	a0,-32740(gp)
  40ced8:	00000000 	nop
  40cedc:	24841234 	addiu	a0,a0,4660
  40cee0:	02002821 	move	a1,s0
  40cee4:	8f998270 	lw	t9,-32144(gp) <strchr>
  40cee8:	00000000 	nop
  40ceec:	0320f809 	jalr	t9
  40cef0:	00000000 	nop
  40cef4:	8fbc0010 	lw	gp,16(sp)
  40cef8:	10400027 	beqz	v0,40cf98 <data_printf+0x264>
  40cefc:	2402002e 	li	v0,46
  40cf00:	1602000a 	bne	s0,v0,40cf2c <data_printf+0x1f8>
  40cf04:	2402000a 	li	v0,10
  40cf08:	12c00023 	beqz	s6,40cf98 <data_printf+0x264>
  40cf0c:	24020003 	li	v0,3
  40cf10:	12820021 	beq	s4,v0,40cf98 <data_printf+0x264>
  40cf14:	03b41021 	addu	v0,sp,s4
  40cf18:	a0510018 	sb	s1,24(v0)
  40cf1c:	26940001 	addiu	s4,s4,1
  40cf20:	0000b021 	move	s6,zero
  40cf24:	10000008 	b	40cf48 <data_printf+0x214>
  40cf28:	00008821 	move	s1,zero
  40cf2c:	02220018 	mult	s1,v0
  40cf30:	00001012 	mflo	v0
  40cf34:	2442ffd0 	addiu	v0,v0,-48
  40cf38:	00508821 	addu	s1,v0,s0
  40cf3c:	2a220100 	slti	v0,s1,256
  40cf40:	10400015 	beqz	v0,40cf98 <data_printf+0x264>
  40cf44:	24160001 	li	s6,1
  40cf48:	26b50001 	addiu	s5,s5,1
  40cf4c:	02b3102a 	slt	v0,s5,s3
  40cf50:	1440ffdf 	bnez	v0,40ced0 <data_printf+0x19c>
  40cf54:	26520001 	addiu	s2,s2,1
  40cf58:	24020003 	li	v0,3
  40cf5c:	1682000f 	bne	s4,v0,40cf9c <data_printf+0x268>
  40cf60:	00001021 	move	v0,zero
  40cf64:	12c0000d 	beqz	s6,40cf9c <data_printf+0x268>
  40cf68:	00000000 	nop
  40cf6c:	a3b1001b 	sb	s1,27(sp)
  40cf70:	83a20018 	lb	v0,24(sp)
  40cf74:	83a30019 	lb	v1,25(sp)
  40cf78:	83a4001a 	lb	a0,26(sp)
  40cf7c:	83a5001b 	lb	a1,27(sp)
  40cf80:	a2e20000 	sb	v0,0(s7)
  40cf84:	a2e30001 	sb	v1,1(s7)
  40cf88:	a2e40002 	sb	a0,2(s7)
  40cf8c:	a2e50003 	sb	a1,3(s7)
  40cf90:	10000002 	b	40cf9c <data_printf+0x268>
  40cf94:	24020001 	li	v0,1
  40cf98:	00001021 	move	v0,zero
  40cf9c:	8fbf0044 	lw	ra,68(sp)
  40cfa0:	8fb7003c 	lw	s7,60(sp)
  40cfa4:	8fb60038 	lw	s6,56(sp)
  40cfa8:	8fb50034 	lw	s5,52(sp)
  40cfac:	8fb40030 	lw	s4,48(sp)
  40cfb0:	8fb3002c 	lw	s3,44(sp)
  40cfb4:	8fb20028 	lw	s2,40(sp)
  40cfb8:	8fb10024 	lw	s1,36(sp)
  40cfbc:	8fb00020 	lw	s0,32(sp)
  40cfc0:	03e00008 	jr	ra
  40cfc4:	27bd0048 	addiu	sp,sp,72
  40cfc8:	3c1c0fc0 	lui	gp,0xfc0
  40cfcc:	279cc2c8 	addiu	gp,gp,-15672
  40cfd0:	0399e021 	addu	gp,gp,t9
  40cfd4:	27bdffe0 	addiu	sp,sp,-32
  40cfd8:	afbc0010 	sw	gp,16(sp)
  40cfdc:	afbf001c 	sw	ra,28(sp)
  40cfe0:	afbc0018 	sw	gp,24(sp)
  40cfe4:	00002021 	move	a0,zero
  40cfe8:	8f998164 	lw	t9,-32412(gp) <time>
  40cfec:	00000000 	nop
  40cff0:	0320f809 	jalr	t9
  40cff4:	00000000 	nop
  40cff8:	8fbc0010 	lw	gp,16(sp)
  40cffc:	8fbf001c 	lw	ra,28(sp)
  40d000:	00000000 	nop
  40d004:	03e00008 	jr	ra
  40d008:	27bd0020 	addiu	sp,sp,32
  40d00c:	3c1c0fc0 	lui	gp,0xfc0
  40d010:	279cc284 	addiu	gp,gp,-15740
  40d014:	0399e021 	addu	gp,gp,t9
  40d018:	27bdffd8 	addiu	sp,sp,-40
  40d01c:	afbc0010 	sw	gp,16(sp)
  40d020:	afbf0020 	sw	ra,32(sp)
  40d024:	afbc001c 	sw	gp,28(sp)
  40d028:	afb00018 	sw	s0,24(sp)
  40d02c:	00808021 	move	s0,a0
  40d030:	12000008 	beqz	s0,40d054 <data_printf+0x320>
  40d034:	02002021 	move	a0,s0
  40d038:	8f998144 	lw	t9,-32444(gp) <strlen>
  40d03c:	00000000 	nop
  40d040:	0320f809 	jalr	t9
  40d044:	00000000 	nop
  40d048:	8fbc0010 	lw	gp,16(sp)
  40d04c:	14400003 	bnez	v0,40d05c <data_printf+0x328>
  40d050:	02002021 	move	a0,s0
  40d054:	10000020 	b	40d0d8 <data_printf+0x3a4>
  40d058:	2402ffff 	li	v0,-1
  40d05c:	8f998144 	lw	t9,-32444(gp) <strlen>
  40d060:	00000000 	nop
  40d064:	0320f809 	jalr	t9
  40d068:	00000000 	nop
  40d06c:	8fbc0010 	lw	gp,16(sp)
  40d070:	00402021 	move	a0,v0
  40d074:	04800016 	bltz	a0,40d0d0 <data_printf+0x39c>
  40d078:	02041021 	addu	v0,s0,a0
  40d07c:	90430000 	lbu	v1,0(v0)
  40d080:	00000000 	nop
  40d084:	1060fffb 	beqz	v1,40d074 <data_printf+0x340>
  40d088:	2484ffff 	addiu	a0,a0,-1
  40d08c:	24840001 	addiu	a0,a0,1
  40d090:	2402000a 	li	v0,10
  40d094:	1062fff7 	beq	v1,v0,40d074 <data_printf+0x340>
  40d098:	2484ffff 	addiu	a0,a0,-1
  40d09c:	24840001 	addiu	a0,a0,1
  40d0a0:	2402000d 	li	v0,13
  40d0a4:	1062fff3 	beq	v1,v0,40d074 <data_printf+0x340>
  40d0a8:	2484ffff 	addiu	a0,a0,-1
  40d0ac:	24840001 	addiu	a0,a0,1
  40d0b0:	24020020 	li	v0,32
  40d0b4:	1062ffef 	beq	v1,v0,40d074 <data_printf+0x340>
  40d0b8:	2484ffff 	addiu	a0,a0,-1
  40d0bc:	24840001 	addiu	a0,a0,1
  40d0c0:	24020009 	li	v0,9
  40d0c4:	1062ffeb 	beq	v1,v0,40d074 <data_printf+0x340>
  40d0c8:	2484ffff 	addiu	a0,a0,-1
  40d0cc:	24840001 	addiu	a0,a0,1
  40d0d0:	00901021 	addu	v0,a0,s0
  40d0d4:	a0400001 	sb	zero,1(v0)
  40d0d8:	8fbf0020 	lw	ra,32(sp)
  40d0dc:	8fb00018 	lw	s0,24(sp)
  40d0e0:	03e00008 	jr	ra
  40d0e4:	27bd0028 	addiu	sp,sp,40
  40d0e8:	3c1c0fc0 	lui	gp,0xfc0
  40d0ec:	279cc1a8 	addiu	gp,gp,-15960
  40d0f0:	0399e021 	addu	gp,gp,t9
  40d0f4:	27bdffd8 	addiu	sp,sp,-40
  40d0f8:	afbc0010 	sw	gp,16(sp)
  40d0fc:	afbf0020 	sw	ra,32(sp)
  40d100:	afbc001c 	sw	gp,28(sp)
  40d104:	afb00018 	sw	s0,24(sp)
  40d108:	00808021 	move	s0,a0
  40d10c:	12000008 	beqz	s0,40d130 <data_printf+0x3fc>
  40d110:	02002021 	move	a0,s0
  40d114:	8f998144 	lw	t9,-32444(gp) <strlen>
  40d118:	00000000 	nop
  40d11c:	0320f809 	jalr	t9
  40d120:	00000000 	nop
  40d124:	8fbc0010 	lw	gp,16(sp)
  40d128:	14400003 	bnez	v0,40d138 <data_printf+0x404>
  40d12c:	02002021 	move	a0,s0
  40d130:	1000001b 	b	40d1a0 <data_printf+0x46c>
  40d134:	2402ffff 	li	v0,-1
  40d138:	8f998144 	lw	t9,-32444(gp) <strlen>
  40d13c:	00000000 	nop
  40d140:	0320f809 	jalr	t9
  40d144:	00000000 	nop
  40d148:	8fbc0010 	lw	gp,16(sp)
  40d14c:	00002021 	move	a0,zero
  40d150:	02002821 	move	a1,s0
  40d154:	10000003 	b	40d164 <data_printf+0x430>
  40d158:	00403021 	move	a2,v0
  40d15c:	24a50001 	addiu	a1,a1,1
  40d160:	24840001 	addiu	a0,a0,1
  40d164:	0086102a 	slt	v0,a0,a2
  40d168:	1040000d 	beqz	v0,40d1a0 <data_printf+0x46c>
  40d16c:	00000000 	nop
  40d170:	90a30000 	lbu	v1,0(a1)
  40d174:	24020020 	li	v0,32
  40d178:	1062fff8 	beq	v1,v0,40d15c <data_printf+0x428>
  40d17c:	24020009 	li	v0,9
  40d180:	1062fff6 	beq	v1,v0,40d15c <data_printf+0x428>
  40d184:	00000000 	nop
  40d188:	02002021 	move	a0,s0
  40d18c:	8f998030 	lw	t9,-32720(gp) <strcpy>
  40d190:	00000000 	nop
  40d194:	0320f809 	jalr	t9
  40d198:	00000000 	nop
  40d19c:	8fbc0010 	lw	gp,16(sp)
  40d1a0:	8fbf0020 	lw	ra,32(sp)
  40d1a4:	8fb00018 	lw	s0,24(sp)
  40d1a8:	03e00008 	jr	ra
  40d1ac:	27bd0028 	addiu	sp,sp,40
  40d1b0:	3c1c0fc0 	lui	gp,0xfc0
  40d1b4:	279cc0e0 	addiu	gp,gp,-16160
  40d1b8:	0399e021 	addu	gp,gp,t9
  40d1bc:	27bdffd8 	addiu	sp,sp,-40
  40d1c0:	afbc0010 	sw	gp,16(sp)
  40d1c4:	afbf0020 	sw	ra,32(sp)
  40d1c8:	afbc001c 	sw	gp,28(sp)
  40d1cc:	afb00018 	sw	s0,24(sp)
  40d1d0:	00808021 	move	s0,a0
  40d1d4:	12000008 	beqz	s0,40d1f8 <data_printf+0x4c4>
  40d1d8:	02002021 	move	a0,s0
  40d1dc:	8f998144 	lw	t9,-32444(gp) <strlen>
  40d1e0:	00000000 	nop
  40d1e4:	0320f809 	jalr	t9
  40d1e8:	00000000 	nop
  40d1ec:	8fbc0010 	lw	gp,16(sp)
  40d1f0:	14400003 	bnez	v0,40d200 <data_printf+0x4cc>
  40d1f4:	02002021 	move	a0,s0
  40d1f8:	10000010 	b	40d23c <data_printf+0x508>
  40d1fc:	2402ffff 	li	v0,-1
  40d200:	8f998020 	lw	t9,-32736(gp)
  40d204:	00000000 	nop
  40d208:	2739d0e8 	addiu	t9,t9,-12056
  40d20c:	00000000 	nop
  40d210:	0320f809 	jalr	t9
  40d214:	00000000 	nop
  40d218:	8fbc0010 	lw	gp,16(sp)
  40d21c:	02002021 	move	a0,s0
  40d220:	8f998020 	lw	t9,-32736(gp)
  40d224:	00000000 	nop
  40d228:	2739d00c 	addiu	t9,t9,-12276
  40d22c:	00000000 	nop
  40d230:	0320f809 	jalr	t9
  40d234:	00000000 	nop
  40d238:	8fbc0010 	lw	gp,16(sp)
  40d23c:	8fbf0020 	lw	ra,32(sp)
  40d240:	8fb00018 	lw	s0,24(sp)
  40d244:	03e00008 	jr	ra
  40d248:	27bd0028 	addiu	sp,sp,40
  40d24c:	3c1c0fc0 	lui	gp,0xfc0
  40d250:	279cc044 	addiu	gp,gp,-16316
  40d254:	0399e021 	addu	gp,gp,t9
  40d258:	90850000 	lbu	a1,0(a0)
  40d25c:	240200ff 	li	v0,255
  40d260:	30a300ff 	andi	v1,a1,0xff
  40d264:	1462000d 	bne	v1,v0,40d29c <data_printf+0x568>
  40d268:	00000000 	nop
  40d26c:	90820001 	lbu	v0,1(a0)
  40d270:	00000000 	nop
  40d274:	14430009 	bne	v0,v1,40d29c <data_printf+0x568>
  40d278:	00000000 	nop
  40d27c:	90830002 	lbu	v1,2(a0)
  40d280:	00000000 	nop
  40d284:	14620005 	bne	v1,v0,40d29c <data_printf+0x568>
  40d288:	00000000 	nop
  40d28c:	90820003 	lbu	v0,3(a0)
  40d290:	00000000 	nop
  40d294:	10430010 	beq	v0,v1,40d2d8 <data_printf+0x5a4>
  40d298:	00001021 	move	v0,zero
  40d29c:	14a0000e 	bnez	a1,40d2d8 <data_printf+0x5a4>
  40d2a0:	24020001 	li	v0,1
  40d2a4:	90820001 	lbu	v0,1(a0)
  40d2a8:	00000000 	nop
  40d2ac:	1040000a 	beqz	v0,40d2d8 <data_printf+0x5a4>
  40d2b0:	24020001 	li	v0,1
  40d2b4:	90820002 	lbu	v0,2(a0)
  40d2b8:	00000000 	nop
  40d2bc:	10400006 	beqz	v0,40d2d8 <data_printf+0x5a4>
  40d2c0:	24020001 	li	v0,1
  40d2c4:	90830003 	lbu	v1,3(a0)
  40d2c8:	00000000 	nop
  40d2cc:	14600002 	bnez	v1,40d2d8 <data_printf+0x5a4>
  40d2d0:	00001021 	move	v0,zero
  40d2d4:	24020001 	li	v0,1
  40d2d8:	03e00008 	jr	ra
  40d2dc:	00000000 	nop
  40d2e0:	3c1c0fc0 	lui	gp,0xfc0
  40d2e4:	279cbfb0 	addiu	gp,gp,-16464
  40d2e8:	0399e021 	addu	gp,gp,t9
  40d2ec:	90850000 	lbu	a1,0(a0)
  40d2f0:	240200ff 	li	v0,255
  40d2f4:	30a300ff 	andi	v1,a1,0xff
  40d2f8:	1462000e 	bne	v1,v0,40d334 <data_printf+0x600>
  40d2fc:	0005102b 	sltu	v0,zero,a1
  40d300:	90820001 	lbu	v0,1(a0)
  40d304:	00000000 	nop
  40d308:	14430009 	bne	v0,v1,40d330 <data_printf+0x5fc>
  40d30c:	00000000 	nop
  40d310:	90830002 	lbu	v1,2(a0)
  40d314:	00000000 	nop
  40d318:	14620006 	bne	v1,v0,40d334 <data_printf+0x600>
  40d31c:	0005102b 	sltu	v0,zero,a1
  40d320:	90820003 	lbu	v0,3(a0)
  40d324:	00000000 	nop
  40d328:	10430002 	beq	v0,v1,40d334 <data_printf+0x600>
  40d32c:	00001021 	move	v0,zero
  40d330:	0005102b 	sltu	v0,zero,a1
  40d334:	03e00008 	jr	ra
  40d338:	00000000 	nop
  40d33c:	3c1c0fc0 	lui	gp,0xfc0
  40d340:	279cbf54 	addiu	gp,gp,-16556
  40d344:	0399e021 	addu	gp,gp,t9
  40d348:	00003821 	move	a3,zero
  40d34c:	00004021 	move	t0,zero
  40d350:	90830000 	lbu	v1,0(a0)
  40d354:	1000001f 	b	40d3d4 <data_printf+0x6a0>
  40d358:	00003021 	move	a2,zero
  40d35c:	90830000 	lbu	v1,0(a0)
  40d360:	00000000 	nop
  40d364:	14620008 	bne	v1,v0,40d388 <data_printf+0x654>
  40d368:	00000000 	nop
  40d36c:	10c00029 	beqz	a2,40d414 <data_printf+0x6e0>
  40d370:	29020100 	slti	v0,t0,256
  40d374:	10400029 	beqz	v0,40d41c <data_printf+0x6e8>
  40d378:	24e70001 	addiu	a3,a3,1
  40d37c:	00004021 	move	t0,zero
  40d380:	10000011 	b	40d3c8 <data_printf+0x694>
  40d384:	00003021 	move	a2,zero
  40d388:	90850000 	lbu	a1,0(a0)
  40d38c:	8f82808c 	lw	v0,-32628(gp)
  40d390:	00000000 	nop
  40d394:	8c420000 	lw	v0,0(v0)
  40d398:	00051840 	sll	v1,a1,0x1
  40d39c:	00621821 	addu	v1,v1,v0
  40d3a0:	94620000 	lhu	v0,0(v1)
  40d3a4:	00000000 	nop
  40d3a8:	30420008 	andi	v0,v0,0x8
  40d3ac:	1040001d 	beqz	v0,40d424 <data_printf+0x6f0>
  40d3b0:	2402000a 	li	v0,10
  40d3b4:	01020018 	mult	t0,v0
  40d3b8:	24060001 	li	a2,1
  40d3bc:	00001012 	mflo	v0
  40d3c0:	2442ffd0 	addiu	v0,v0,-48
  40d3c4:	00454021 	addu	t0,v0,a1
  40d3c8:	24840001 	addiu	a0,a0,1
  40d3cc:	90830000 	lbu	v1,0(a0)
  40d3d0:	00000000 	nop
  40d3d4:	10600005 	beqz	v1,40d3ec <data_printf+0x6b8>
  40d3d8:	2402003a 	li	v0,58
  40d3dc:	10620003 	beq	v1,v0,40d3ec <data_printf+0x6b8>
  40d3e0:	2402002f 	li	v0,47
  40d3e4:	1462ffdd 	bne	v1,v0,40d35c <data_printf+0x628>
  40d3e8:	2402002e 	li	v0,46
  40d3ec:	14c00003 	bnez	a2,40d3fc <data_printf+0x6c8>
  40d3f0:	29020100 	slti	v0,t0,256
  40d3f4:	03e00008 	jr	ra
  40d3f8:	2402fffd 	li	v0,-3
  40d3fc:	1040000b 	beqz	v0,40d42c <data_printf+0x6f8>
  40d400:	24030003 	li	v1,3
  40d404:	14e3000a 	bne	a3,v1,40d430 <data_printf+0x6fc>
  40d408:	2402fffa 	li	v0,-6
  40d40c:	03e00008 	jr	ra
  40d410:	24020001 	li	v0,1
  40d414:	03e00008 	jr	ra
  40d418:	2402ffff 	li	v0,-1
  40d41c:	03e00008 	jr	ra
  40d420:	2402fffe 	li	v0,-2
  40d424:	03e00008 	jr	ra
  40d428:	2402fffb 	li	v0,-5
  40d42c:	2402fffc 	li	v0,-4
  40d430:	03e00008 	jr	ra
  40d434:	00000000 	nop
	...
  40d440:	3c1c0fc0 	lui	gp,0xfc0
  40d444:	279cbe50 	addiu	gp,gp,-16816
  40d448:	0399e021 	addu	gp,gp,t9
  40d44c:	27bdffe0 	addiu	sp,sp,-32
  40d450:	afbc0010 	sw	gp,16(sp)
  40d454:	afbf001c 	sw	ra,28(sp)
  40d458:	afbc0018 	sw	gp,24(sp)
  40d45c:	8f83801c 	lw	v1,-32740(gp)
  40d460:	00000000 	nop
  40d464:	24631240 	addiu	v1,v1,4672
  40d468:	8c630000 	lw	v1,0(v1)
  40d46c:	3402a410 	li	v0,0xa410
  40d470:	14620022 	bne	v1,v0,40d4fc <data_printf+0x7c8>
  40d474:	00000000 	nop
  40d478:	8f82801c 	lw	v0,-32740(gp)
  40d47c:	00000000 	nop
  40d480:	24421248 	addiu	v0,v0,4680
  40d484:	8c420000 	lw	v0,0(v0)
  40d488:	00000000 	nop
  40d48c:	1443001b 	bne	v0,v1,40d4fc <data_printf+0x7c8>
  40d490:	00000000 	nop
  40d494:	8f99804c 	lw	t9,-32692(gp) <rand>
  40d498:	00000000 	nop
  40d49c:	0320f809 	jalr	t9
  40d4a0:	00000000 	nop
  40d4a4:	8fbc0010 	lw	gp,16(sp)
  40d4a8:	3c031062 	lui	v1,0x1062
  40d4ac:	34634dd3 	ori	v1,v1,0x4dd3
  40d4b0:	3042ffff 	andi	v0,v0,0xffff
  40d4b4:	00430019 	multu	v0,v1
  40d4b8:	240403e8 	li	a0,1000
  40d4bc:	00001810 	mfhi	v1
  40d4c0:	00031982 	srl	v1,v1,0x6
  40d4c4:	00640018 	mult	v1,a0
  40d4c8:	00001812 	mflo	v1
  40d4cc:	00431023 	subu	v0,v0,v1
  40d4d0:	3042ffff 	andi	v0,v0,0xffff
  40d4d4:	3401a410 	li	at,0xa410
  40d4d8:	00221021 	addu	v0,at,v0
  40d4dc:	8f81801c 	lw	at,-32740(gp)
  40d4e0:	00000000 	nop
  40d4e4:	24211248 	addiu	at,at,4680
  40d4e8:	ac220000 	sw	v0,0(at)
  40d4ec:	8f81801c 	lw	at,-32740(gp)
  40d4f0:	00000000 	nop
  40d4f4:	24211240 	addiu	at,at,4672
  40d4f8:	ac220000 	sw	v0,0(at)
  40d4fc:	8f83801c 	lw	v1,-32740(gp)
  40d500:	00000000 	nop
  40d504:	24631248 	addiu	v1,v1,4680
  40d508:	00000000 	nop
  40d50c:	8c640000 	lw	a0,0(v1)
  40d510:	00000000 	nop
  40d514:	24820001 	addiu	v0,a0,1
  40d518:	ac620000 	sw	v0,0(v1)
  40d51c:	8f82801c 	lw	v0,-32740(gp)
  40d520:	00000000 	nop
  40d524:	24421248 	addiu	v0,v0,4680
  40d528:	8c420000 	lw	v0,0(v0)
  40d52c:	8f83801c 	lw	v1,-32740(gp)
  40d530:	00000000 	nop
  40d534:	24631244 	addiu	v1,v1,4676
  40d538:	8c630000 	lw	v1,0(v1)
  40d53c:	00000000 	nop
  40d540:	0043102a 	slt	v0,v0,v1
  40d544:	14400009 	bnez	v0,40d56c <data_printf+0x838>
  40d548:	00000000 	nop
  40d54c:	8f82801c 	lw	v0,-32740(gp)
  40d550:	00000000 	nop
  40d554:	24421240 	addiu	v0,v0,4672
  40d558:	8c420000 	lw	v0,0(v0)
  40d55c:	8f81801c 	lw	at,-32740(gp)
  40d560:	00000000 	nop
  40d564:	24211248 	addiu	at,at,4680
  40d568:	ac220000 	sw	v0,0(at)
  40d56c:	8fbf001c 	lw	ra,28(sp)
  40d570:	00801021 	move	v0,a0
  40d574:	03e00008 	jr	ra
  40d578:	27bd0020 	addiu	sp,sp,32
  40d57c:	3c1c0fc0 	lui	gp,0xfc0
  40d580:	279cbd14 	addiu	gp,gp,-17132
  40d584:	0399e021 	addu	gp,gp,t9
  40d588:	27bdffd8 	addiu	sp,sp,-40
  40d58c:	afbc0010 	sw	gp,16(sp)
  40d590:	afbf0024 	sw	ra,36(sp)
  40d594:	afbc0020 	sw	gp,32(sp)
  40d598:	afb1001c 	sw	s1,28(sp)
  40d59c:	afb00018 	sw	s0,24(sp)
  40d5a0:	afa5002c 	sw	a1,44(sp)
  40d5a4:	afa60030 	sw	a2,48(sp)
  40d5a8:	afa70034 	sw	a3,52(sp)
  40d5ac:	97a2002e 	lhu	v0,46(sp)
  40d5b0:	00000000 	nop
  40d5b4:	1040000c 	beqz	v0,40d5e8 <data_printf+0x8b4>
  40d5b8:	00808821 	move	s1,a0
  40d5bc:	27a5002c 	addiu	a1,sp,44
  40d5c0:	24060010 	li	a2,16
  40d5c4:	8f9980fc 	lw	t9,-32516(gp) <bind>
  40d5c8:	00000000 	nop
  40d5cc:	0320f809 	jalr	t9
  40d5d0:	00000000 	nop
  40d5d4:	8fbc0010 	lw	gp,16(sp)
  40d5d8:	10000019 	b	40d640 <data_printf+0x90c>
  40d5dc:	00000000 	nop
  40d5e0:	10000017 	b	40d640 <data_printf+0x90c>
  40d5e4:	00001021 	move	v0,zero
  40d5e8:	00008021 	move	s0,zero
  40d5ec:	8f998020 	lw	t9,-32736(gp)
  40d5f0:	00000000 	nop
  40d5f4:	2739d440 	addiu	t9,t9,-11200
  40d5f8:	00000000 	nop
  40d5fc:	0320f809 	jalr	t9
  40d600:	00000000 	nop
  40d604:	8fbc0010 	lw	gp,16(sp)
  40d608:	a7a2002e 	sh	v0,46(sp)
  40d60c:	02202021 	move	a0,s1
  40d610:	27a5002c 	addiu	a1,sp,44
  40d614:	24060010 	li	a2,16
  40d618:	8f9980fc 	lw	t9,-32516(gp) <bind>
  40d61c:	00000000 	nop
  40d620:	0320f809 	jalr	t9
  40d624:	00000000 	nop
  40d628:	8fbc0010 	lw	gp,16(sp)
  40d62c:	0441ffec 	bgez	v0,40d5e0 <data_printf+0x8ac>
  40d630:	26100001 	addiu	s0,s0,1
  40d634:	2a020064 	slti	v0,s0,100
  40d638:	1440ffec 	bnez	v0,40d5ec <data_printf+0x8b8>
  40d63c:	2402ffff 	li	v0,-1
  40d640:	8fbf0024 	lw	ra,36(sp)
  40d644:	8fb1001c 	lw	s1,28(sp)
  40d648:	8fb00018 	lw	s0,24(sp)
  40d64c:	03e00008 	jr	ra
  40d650:	27bd0028 	addiu	sp,sp,40
  40d654:	3c1c0fc0 	lui	gp,0xfc0
  40d658:	279cbc3c 	addiu	gp,gp,-17348
  40d65c:	0399e021 	addu	gp,gp,t9
  40d660:	00041203 	sra	v0,a0,0x8
  40d664:	304200ff 	andi	v0,v0,0xff
  40d668:	308400ff 	andi	a0,a0,0xff
  40d66c:	00042200 	sll	a0,a0,0x8
  40d670:	03e00008 	jr	ra
  40d674:	00821025 	or	v0,a0,v0
  40d678:	3c1c0fc0 	lui	gp,0xfc0
  40d67c:	279cbc18 	addiu	gp,gp,-17384
  40d680:	0399e021 	addu	gp,gp,t9
  40d684:	27bdffd0 	addiu	sp,sp,-48
  40d688:	afbc0010 	sw	gp,16(sp)
  40d68c:	afbf002c 	sw	ra,44(sp)
  40d690:	afbc0028 	sw	gp,40(sp)
  40d694:	afb30024 	sw	s3,36(sp)
  40d698:	afb20020 	sw	s2,32(sp)
  40d69c:	afb1001c 	sw	s1,28(sp)
  40d6a0:	afb00018 	sw	s0,24(sp)
  40d6a4:	00009021 	move	s2,zero
  40d6a8:	00008821 	move	s1,zero
  40d6ac:	00809821 	move	s3,a0
  40d6b0:	10000004 	b	40d6c4 <data_printf+0x990>
  40d6b4:	02608021 	move	s0,s3
  40d6b8:	26520001 	addiu	s2,s2,1
  40d6bc:	26100001 	addiu	s0,s0,1
  40d6c0:	26310001 	addiu	s1,s1,1
  40d6c4:	02602021 	move	a0,s3
  40d6c8:	8f998144 	lw	t9,-32444(gp) <strlen>
  40d6cc:	00000000 	nop
  40d6d0:	0320f809 	jalr	t9
  40d6d4:	00000000 	nop
  40d6d8:	8fbc0010 	lw	gp,16(sp)
  40d6dc:	0222102b 	sltu	v0,s1,v0
  40d6e0:	1040000e 	beqz	v0,40d71c <data_printf+0x9e8>
  40d6e4:	3a420003 	xori	v0,s2,0x3
  40d6e8:	82040000 	lb	a0,0(s0)
  40d6ec:	8f82808c 	lw	v0,-32628(gp)
  40d6f0:	00000000 	nop
  40d6f4:	8c420000 	lw	v0,0(v0)
  40d6f8:	00041840 	sll	v1,a0,0x1
  40d6fc:	00621821 	addu	v1,v1,v0
  40d700:	94620000 	lhu	v0,0(v1)
  40d704:	00000000 	nop
  40d708:	30420008 	andi	v0,v0,0x8
  40d70c:	1440ffeb 	bnez	v0,40d6bc <data_printf+0x988>
  40d710:	2402002e 	li	v0,46
  40d714:	1082ffe8 	beq	a0,v0,40d6b8 <data_printf+0x984>
  40d718:	3a420003 	xori	v0,s2,0x3
  40d71c:	8fbf002c 	lw	ra,44(sp)
  40d720:	8fb30024 	lw	s3,36(sp)
  40d724:	8fb20020 	lw	s2,32(sp)
  40d728:	8fb1001c 	lw	s1,28(sp)
  40d72c:	8fb00018 	lw	s0,24(sp)
  40d730:	2c420001 	sltiu	v0,v0,1
  40d734:	03e00008 	jr	ra
  40d738:	27bd0030 	addiu	sp,sp,48

0040d73c <xsocket_addr>:
  40d73c:	3c1c0fc0 	lui	gp,0xfc0
  40d740:	279cbb54 	addiu	gp,gp,-17580
  40d744:	0399e021 	addu	gp,gp,t9
  40d748:	27bdff50 	addiu	sp,sp,-176
  40d74c:	afbc0010 	sw	gp,16(sp)
  40d750:	afbf00a8 	sw	ra,168(sp)
  40d754:	afbc00a4 	sw	gp,164(sp)
  40d758:	afb200a0 	sw	s2,160(sp)
  40d75c:	afb1009c 	sw	s1,156(sp)
  40d760:	afb00098 	sw	s0,152(sp)
  40d764:	00808821 	move	s1,a0
  40d768:	00a08021 	move	s0,a1
  40d76c:	12000005 	beqz	s0,40d784 <xsocket_addr+0x48>
  40d770:	00c09021 	move	s2,a2
  40d774:	82020000 	lb	v0,0(s0)
  40d778:	00000000 	nop
  40d77c:	14400009 	bnez	v0,40d7a4 <xsocket_addr+0x68>
  40d780:	27a40018 	addiu	a0,sp,24
  40d784:	27a40018 	addiu	a0,sp,24
  40d788:	8f99820c 	lw	t9,-32244(gp) <sys_net_ip>
  40d78c:	00000000 	nop
  40d790:	0320f809 	jalr	t9
  40d794:	00000000 	nop
  40d798:	8fbc0010 	lw	gp,16(sp)
  40d79c:	10000007 	b	40d7bc <xsocket_addr+0x80>
  40d7a0:	00000000 	nop
  40d7a4:	02002821 	move	a1,s0
  40d7a8:	8f998030 	lw	t9,-32720(gp) <strcpy>
  40d7ac:	00000000 	nop
  40d7b0:	0320f809 	jalr	t9
  40d7b4:	00000000 	nop
  40d7b8:	8fbc0010 	lw	gp,16(sp)
  40d7bc:	83a20018 	lb	v0,24(sp)
  40d7c0:	8f83808c 	lw	v1,-32628(gp)
  40d7c4:	00000000 	nop
  40d7c8:	8c630000 	lw	v1,0(v1)
  40d7cc:	00021040 	sll	v0,v0,0x1
  40d7d0:	00431021 	addu	v0,v0,v1
  40d7d4:	94420000 	lhu	v0,0(v0)
  40d7d8:	00000000 	nop
  40d7dc:	30420008 	andi	v0,v0,0x8
  40d7e0:	1440002e 	bnez	v0,40d89c <xsocket_addr+0x160>
  40d7e4:	02202021 	move	a0,s1
  40d7e8:	8f848020 	lw	a0,-32736(gp)
  40d7ec:	00000000 	nop
  40d7f0:	24844c90 	addiu	a0,a0,19600		# "xsocket_addr(%s)"
  40d7f4:	27a50018 	addiu	a1,sp,24
  40d7f8:	8f998100 	lw	t9,-32512(gp) <printf>
  40d7fc:	00000000 	nop
  40d800:	0320f809 	jalr	t9
  40d804:	00000000 	nop
  40d808:	8fbc0010 	lw	gp,16(sp)
  40d80c:	27a40018 	addiu	a0,sp,24
  40d810:	8f9980cc 	lw	t9,-32564(gp) <gethostbyname>
  40d814:	00000000 	nop
  40d818:	0320f809 	jalr	t9
  40d81c:	00000000 	nop
  40d820:	8fbc0010 	lw	gp,16(sp)
  40d824:	1440000b 	bnez	v0,40d854 <xsocket_addr+0x118>
  40d828:	02002821 	move	a1,s0
  40d82c:	8f848020 	lw	a0,-32736(gp)
  40d830:	00000000 	nop
  40d834:	24844ca4 	addiu	a0,a0,19620		# "!0 Err: domain name %s"
  40d838:	8f998154 	lw	t9,-32428(gp) <act_printf>
  40d83c:	00000000 	nop
  40d840:	0320f809 	jalr	t9
  40d844:	00000000 	nop
  40d848:	8fbc0010 	lw	gp,16(sp)
  40d84c:	10000025 	b	40d8e4 <xsocket_addr+0x1a8>
  40d850:	2402fffe 	li	v0,-2
  40d854:	8c420010 	lw	v0,16(v0)
  40d858:	00000000 	nop
  40d85c:	8c420000 	lw	v0,0(v0)
  40d860:	00000000 	nop
  40d864:	8c440000 	lw	a0,0(v0)
  40d868:	8f9981e4 	lw	t9,-32284(gp) <inet_ntoa>
  40d86c:	00000000 	nop
  40d870:	0320f809 	jalr	t9
  40d874:	00000000 	nop
  40d878:	8fbc0010 	lw	gp,16(sp)
  40d87c:	27a40018 	addiu	a0,sp,24
  40d880:	00402821 	move	a1,v0
  40d884:	8f998030 	lw	t9,-32720(gp) <strcpy>
  40d888:	00000000 	nop
  40d88c:	0320f809 	jalr	t9
  40d890:	00000000 	nop
  40d894:	8fbc0010 	lw	gp,16(sp)
  40d898:	02202021 	move	a0,s1
  40d89c:	00002821 	move	a1,zero
  40d8a0:	24060010 	li	a2,16
  40d8a4:	8f998090 	lw	t9,-32624(gp) <memset>
  40d8a8:	00000000 	nop
  40d8ac:	0320f809 	jalr	t9
  40d8b0:	00000000 	nop
  40d8b4:	8fbc0010 	lw	gp,16(sp)
  40d8b8:	24020002 	li	v0,2
  40d8bc:	a6220000 	sh	v0,0(s1)
  40d8c0:	a6320002 	sh	s2,2(s1)
  40d8c4:	27a40018 	addiu	a0,sp,24
  40d8c8:	8f998120 	lw	t9,-32480(gp) <inet_addr>
  40d8cc:	00000000 	nop
  40d8d0:	0320f809 	jalr	t9
  40d8d4:	00000000 	nop
  40d8d8:	8fbc0010 	lw	gp,16(sp)
  40d8dc:	ae220004 	sw	v0,4(s1)
  40d8e0:	00001021 	move	v0,zero
  40d8e4:	8fbf00a8 	lw	ra,168(sp)
  40d8e8:	8fb200a0 	lw	s2,160(sp)
  40d8ec:	8fb1009c 	lw	s1,156(sp)
  40d8f0:	8fb00098 	lw	s0,152(sp)
  40d8f4:	03e00008 	jr	ra
  40d8f8:	27bd00b0 	addiu	sp,sp,176
  40d8fc:	3c1c0fc0 	lui	gp,0xfc0
  40d900:	279cb994 	addiu	gp,gp,-18028
  40d904:	0399e021 	addu	gp,gp,t9
  40d908:	27bdffb8 	addiu	sp,sp,-72
  40d90c:	afbc0010 	sw	gp,16(sp)
  40d910:	afbf0044 	sw	ra,68(sp)
  40d914:	afbc0040 	sw	gp,64(sp)
  40d918:	afb1003c 	sw	s1,60(sp)
  40d91c:	afb00038 	sw	s0,56(sp)
  40d920:	00808021 	move	s0,a0
  40d924:	00a02021 	move	a0,a1
  40d928:	27a50018 	addiu	a1,sp,24
  40d92c:	00c08821 	move	s1,a2
  40d930:	8f99806c 	lw	t9,-32660(gp) <ip4_ip>
  40d934:	00000000 	nop
  40d938:	0320f809 	jalr	t9
  40d93c:	00000000 	nop
  40d940:	8fbc0010 	lw	gp,16(sp)
  40d944:	02002021 	move	a0,s0
  40d948:	00002821 	move	a1,zero
  40d94c:	24060010 	li	a2,16
  40d950:	8f998090 	lw	t9,-32624(gp) <memset>
  40d954:	00000000 	nop
  40d958:	0320f809 	jalr	t9
  40d95c:	00000000 	nop
  40d960:	8fbc0010 	lw	gp,16(sp)
  40d964:	24020002 	li	v0,2
  40d968:	a6020000 	sh	v0,0(s0)
  40d96c:	a6110002 	sh	s1,2(s0)
  40d970:	27a40018 	addiu	a0,sp,24
  40d974:	8f998120 	lw	t9,-32480(gp) <inet_addr>
  40d978:	00000000 	nop
  40d97c:	0320f809 	jalr	t9
  40d980:	00000000 	nop
  40d984:	8fbc0010 	lw	gp,16(sp)
  40d988:	ae020004 	sw	v0,4(s0)
  40d98c:	8fbf0044 	lw	ra,68(sp)
  40d990:	8fb1003c 	lw	s1,60(sp)
  40d994:	8fb00038 	lw	s0,56(sp)
  40d998:	00001021 	move	v0,zero
  40d99c:	03e00008 	jr	ra
  40d9a0:	27bd0048 	addiu	sp,sp,72
  40d9a4:	3c1c0fc0 	lui	gp,0xfc0
  40d9a8:	279cb8ec 	addiu	gp,gp,-18196
  40d9ac:	0399e021 	addu	gp,gp,t9
  40d9b0:	27bdff50 	addiu	sp,sp,-176
  40d9b4:	afbc0010 	sw	gp,16(sp)
  40d9b8:	afbf00a8 	sw	ra,168(sp)
  40d9bc:	afbc00a4 	sw	gp,164(sp)
  40d9c0:	afb200a0 	sw	s2,160(sp)
  40d9c4:	afb1009c 	sw	s1,156(sp)
  40d9c8:	afb00098 	sw	s0,152(sp)
  40d9cc:	00808821 	move	s1,a0
  40d9d0:	00a08021 	move	s0,a1
  40d9d4:	12000005 	beqz	s0,40d9ec <xsocket_addr+0x2b0>
  40d9d8:	00c09021 	move	s2,a2
  40d9dc:	82020000 	lb	v0,0(s0)
  40d9e0:	00000000 	nop
  40d9e4:	14400009 	bnez	v0,40da0c <xsocket_addr+0x2d0>
  40d9e8:	27a40018 	addiu	a0,sp,24
  40d9ec:	27a40018 	addiu	a0,sp,24
  40d9f0:	8f99820c 	lw	t9,-32244(gp) <sys_net_ip>
  40d9f4:	00000000 	nop
  40d9f8:	0320f809 	jalr	t9
  40d9fc:	00000000 	nop
  40da00:	8fbc0010 	lw	gp,16(sp)
  40da04:	10000007 	b	40da24 <xsocket_addr+0x2e8>
  40da08:	00000000 	nop
  40da0c:	02002821 	move	a1,s0
  40da10:	8f998030 	lw	t9,-32720(gp) <strcpy>
  40da14:	00000000 	nop
  40da18:	0320f809 	jalr	t9
  40da1c:	00000000 	nop
  40da20:	8fbc0010 	lw	gp,16(sp)
  40da24:	83a20018 	lb	v0,24(sp)
  40da28:	8f83808c 	lw	v1,-32628(gp)
  40da2c:	00000000 	nop
  40da30:	8c630000 	lw	v1,0(v1)
  40da34:	00021040 	sll	v0,v0,0x1
  40da38:	00431021 	addu	v0,v0,v1
  40da3c:	94420000 	lhu	v0,0(v0)
  40da40:	00000000 	nop
  40da44:	30420008 	andi	v0,v0,0x8
  40da48:	14400025 	bnez	v0,40dae0 <xsocket_addr+0x3a4>
  40da4c:	02202021 	move	a0,s1
  40da50:	27a40018 	addiu	a0,sp,24
  40da54:	8f9980cc 	lw	t9,-32564(gp) <gethostbyname>
  40da58:	00000000 	nop
  40da5c:	0320f809 	jalr	t9
  40da60:	00000000 	nop
  40da64:	8fbc0010 	lw	gp,16(sp)
  40da68:	1440000b 	bnez	v0,40da98 <xsocket_addr+0x35c>
  40da6c:	02002821 	move	a1,s0
  40da70:	8f848020 	lw	a0,-32736(gp)
  40da74:	00000000 	nop
  40da78:	24844ca4 	addiu	a0,a0,19620		# "!0 Err: domain name %s"
  40da7c:	8f998154 	lw	t9,-32428(gp) <act_printf>
  40da80:	00000000 	nop
  40da84:	0320f809 	jalr	t9
  40da88:	00000000 	nop
  40da8c:	8fbc0010 	lw	gp,16(sp)
  40da90:	10000025 	b	40db28 <xsocket_addr+0x3ec>
  40da94:	2402fffe 	li	v0,-2
  40da98:	8c420010 	lw	v0,16(v0)
  40da9c:	00000000 	nop
  40daa0:	8c420000 	lw	v0,0(v0)
  40daa4:	00000000 	nop
  40daa8:	8c440000 	lw	a0,0(v0)
  40daac:	8f9981e4 	lw	t9,-32284(gp) <inet_ntoa>
  40dab0:	00000000 	nop
  40dab4:	0320f809 	jalr	t9
  40dab8:	00000000 	nop
  40dabc:	8fbc0010 	lw	gp,16(sp)
  40dac0:	27a40018 	addiu	a0,sp,24
  40dac4:	00402821 	move	a1,v0
  40dac8:	8f998030 	lw	t9,-32720(gp) <strcpy>
  40dacc:	00000000 	nop
  40dad0:	0320f809 	jalr	t9
  40dad4:	00000000 	nop
  40dad8:	8fbc0010 	lw	gp,16(sp)
  40dadc:	02202021 	move	a0,s1
  40dae0:	00002821 	move	a1,zero
  40dae4:	24060010 	li	a2,16
  40dae8:	8f998090 	lw	t9,-32624(gp) <memset>
  40daec:	00000000 	nop
  40daf0:	0320f809 	jalr	t9
  40daf4:	00000000 	nop
  40daf8:	8fbc0010 	lw	gp,16(sp)
  40dafc:	24020002 	li	v0,2
  40db00:	a6220000 	sh	v0,0(s1)
  40db04:	a6320002 	sh	s2,2(s1)
  40db08:	27a40018 	addiu	a0,sp,24
  40db0c:	8f998120 	lw	t9,-32480(gp) <inet_addr>
  40db10:	00000000 	nop
  40db14:	0320f809 	jalr	t9
  40db18:	00000000 	nop
  40db1c:	8fbc0010 	lw	gp,16(sp)
  40db20:	ae220004 	sw	v0,4(s1)
  40db24:	00001021 	move	v0,zero
  40db28:	8fbf00a8 	lw	ra,168(sp)
  40db2c:	8fb200a0 	lw	s2,160(sp)
  40db30:	8fb1009c 	lw	s1,156(sp)
  40db34:	8fb00098 	lw	s0,152(sp)
  40db38:	03e00008 	jr	ra
  40db3c:	27bd00b0 	addiu	sp,sp,176

0040db40 <xsocket_addr_cmp>:
  40db40:	3c1c0fc0 	lui	gp,0xfc0
  40db44:	279cb750 	addiu	gp,gp,-18608
  40db48:	0399e021 	addu	gp,gp,t9
  40db4c:	27bdffc0 	addiu	sp,sp,-64
  40db50:	afbc0010 	sw	gp,16(sp)
  40db54:	afbf0038 	sw	ra,56(sp)
  40db58:	afbc0034 	sw	gp,52(sp)
  40db5c:	afb00030 	sw	s0,48(sp)
  40db60:	00a08021 	move	s0,a1
  40db64:	27a50018 	addiu	a1,sp,24
  40db68:	27a60028 	addiu	a2,sp,40
  40db6c:	8f998020 	lw	t9,-32736(gp)
  40db70:	00000000 	nop
  40db74:	2739dcb8 	addiu	t9,t9,-9032
  40db78:	00000000 	nop
  40db7c:	0320f809 	jalr	t9
  40db80:	00000000 	nop
  40db84:	8fbc0010 	lw	gp,16(sp)
  40db88:	02002021 	move	a0,s0
  40db8c:	27b00020 	addiu	s0,sp,32
  40db90:	02002821 	move	a1,s0
  40db94:	27a6002c 	addiu	a2,sp,44
  40db98:	8f998020 	lw	t9,-32736(gp)
  40db9c:	00000000 	nop
  40dba0:	2739dcb8 	addiu	t9,t9,-9032
  40dba4:	00000000 	nop
  40dba8:	0320f809 	jalr	t9
  40dbac:	00000000 	nop
  40dbb0:	8fbc0010 	lw	gp,16(sp)
  40dbb4:	27a40018 	addiu	a0,sp,24
  40dbb8:	02002821 	move	a1,s0
  40dbbc:	24060004 	li	a2,4
  40dbc0:	8f99811c 	lw	t9,-32484(gp) <memcmp>
  40dbc4:	00000000 	nop
  40dbc8:	0320f809 	jalr	t9
  40dbcc:	00000000 	nop
  40dbd0:	8fbc0010 	lw	gp,16(sp)
  40dbd4:	14400007 	bnez	v0,40dbf4 <xsocket_addr_cmp+0xb4>
  40dbd8:	2402ffff 	li	v0,-1
  40dbdc:	8fa40028 	lw	a0,40(sp)
  40dbe0:	8fa3002c 	lw	v1,44(sp)
  40dbe4:	00000000 	nop
  40dbe8:	14830002 	bne	a0,v1,40dbf4 <xsocket_addr_cmp+0xb4>
  40dbec:	2402fffe 	li	v0,-2
  40dbf0:	00001021 	move	v0,zero
  40dbf4:	8fbf0038 	lw	ra,56(sp)
  40dbf8:	8fb00030 	lw	s0,48(sp)
  40dbfc:	03e00008 	jr	ra
  40dc00:	27bd0040 	addiu	sp,sp,64
  40dc04:	3c1c0fc0 	lui	gp,0xfc0
  40dc08:	279cb68c 	addiu	gp,gp,-18804
  40dc0c:	0399e021 	addu	gp,gp,t9
  40dc10:	27bdffc0 	addiu	sp,sp,-64
  40dc14:	afbc0010 	sw	gp,16(sp)
  40dc18:	afbf0038 	sw	ra,56(sp)
  40dc1c:	afbc0034 	sw	gp,52(sp)
  40dc20:	afb00030 	sw	s0,48(sp)
  40dc24:	00a08021 	move	s0,a1
  40dc28:	27a50018 	addiu	a1,sp,24
  40dc2c:	27a60028 	addiu	a2,sp,40
  40dc30:	8f998020 	lw	t9,-32736(gp)
  40dc34:	00000000 	nop
  40dc38:	2739dcb8 	addiu	t9,t9,-9032
  40dc3c:	00000000 	nop
  40dc40:	0320f809 	jalr	t9
  40dc44:	00000000 	nop
  40dc48:	8fbc0010 	lw	gp,16(sp)
  40dc4c:	02002021 	move	a0,s0
  40dc50:	27b00020 	addiu	s0,sp,32
  40dc54:	02002821 	move	a1,s0
  40dc58:	27a6002c 	addiu	a2,sp,44
  40dc5c:	8f998020 	lw	t9,-32736(gp)
  40dc60:	00000000 	nop
  40dc64:	2739dcb8 	addiu	t9,t9,-9032
  40dc68:	00000000 	nop
  40dc6c:	0320f809 	jalr	t9
  40dc70:	00000000 	nop
  40dc74:	8fbc0010 	lw	gp,16(sp)
  40dc78:	27a40018 	addiu	a0,sp,24
  40dc7c:	02002821 	move	a1,s0
  40dc80:	24060004 	li	a2,4
  40dc84:	8f99811c 	lw	t9,-32484(gp) <memcmp>
  40dc88:	00000000 	nop
  40dc8c:	0320f809 	jalr	t9
  40dc90:	00000000 	nop
  40dc94:	8fbc0010 	lw	gp,16(sp)
  40dc98:	00401821 	move	v1,v0
  40dc9c:	14600002 	bnez	v1,40dca8 <xsocket_addr_cmp+0x168>
  40dca0:	2402ffff 	li	v0,-1
  40dca4:	00001021 	move	v0,zero
  40dca8:	8fbf0038 	lw	ra,56(sp)
  40dcac:	8fb00030 	lw	s0,48(sp)
  40dcb0:	03e00008 	jr	ra
  40dcb4:	27bd0040 	addiu	sp,sp,64
  40dcb8:	3c1c0fc0 	lui	gp,0xfc0
  40dcbc:	279cb5d8 	addiu	gp,gp,-18984
  40dcc0:	0399e021 	addu	gp,gp,t9
  40dcc4:	27bdffd8 	addiu	sp,sp,-40
  40dcc8:	afbc0010 	sw	gp,16(sp)
  40dccc:	afbf0020 	sw	ra,32(sp)
  40dcd0:	afbc001c 	sw	gp,28(sp)
  40dcd4:	afb00018 	sw	s0,24(sp)
  40dcd8:	10c00004 	beqz	a2,40dcec <xsocket_addr_cmp+0x1ac>
  40dcdc:	00a08021 	move	s0,a1
  40dce0:	94820002 	lhu	v0,2(a0)
  40dce4:	00000000 	nop
  40dce8:	acc20000 	sw	v0,0(a2)
  40dcec:	8c840004 	lw	a0,4(a0)
  40dcf0:	8f9981e4 	lw	t9,-32284(gp) <inet_ntoa>
  40dcf4:	00000000 	nop
  40dcf8:	0320f809 	jalr	t9
  40dcfc:	00000000 	nop
  40dd00:	8fbc0010 	lw	gp,16(sp)
  40dd04:	14400003 	bnez	v0,40dd14 <xsocket_addr_cmp+0x1d4>
  40dd08:	00000000 	nop
  40dd0c:	1000000a 	b	40dd38 <xsocket_addr_cmp+0x1f8>
  40dd10:	2402ffff 	li	v0,-1
  40dd14:	12000007 	beqz	s0,40dd34 <xsocket_addr_cmp+0x1f4>
  40dd18:	00402021 	move	a0,v0
  40dd1c:	02002821 	move	a1,s0
  40dd20:	8f9980a0 	lw	t9,-32608(gp) <ip_ip4>
  40dd24:	00000000 	nop
  40dd28:	0320f809 	jalr	t9
  40dd2c:	00000000 	nop
  40dd30:	8fbc0010 	lw	gp,16(sp)
  40dd34:	00001021 	move	v0,zero
  40dd38:	8fbf0020 	lw	ra,32(sp)
  40dd3c:	8fb00018 	lw	s0,24(sp)
  40dd40:	03e00008 	jr	ra
  40dd44:	27bd0028 	addiu	sp,sp,40
  40dd48:	3c1c0fc0 	lui	gp,0xfc0
  40dd4c:	279cb548 	addiu	gp,gp,-19128
  40dd50:	0399e021 	addu	gp,gp,t9
  40dd54:	27bdffd8 	addiu	sp,sp,-40
  40dd58:	afbc0010 	sw	gp,16(sp)
  40dd5c:	afbf0020 	sw	ra,32(sp)
  40dd60:	afbc001c 	sw	gp,28(sp)
  40dd64:	afb00018 	sw	s0,24(sp)
  40dd68:	10c00004 	beqz	a2,40dd7c <xsocket_addr_cmp+0x23c>
  40dd6c:	00a08021 	move	s0,a1
  40dd70:	94820002 	lhu	v0,2(a0)
  40dd74:	00000000 	nop
  40dd78:	acc20000 	sw	v0,0(a2)
  40dd7c:	8c840004 	lw	a0,4(a0)
  40dd80:	8f9981e4 	lw	t9,-32284(gp) <inet_ntoa>
  40dd84:	00000000 	nop
  40dd88:	0320f809 	jalr	t9
  40dd8c:	00000000 	nop
  40dd90:	8fbc0010 	lw	gp,16(sp)
  40dd94:	14400003 	bnez	v0,40dda4 <xsocket_addr_cmp+0x264>
  40dd98:	00000000 	nop
  40dd9c:	1000000a 	b	40ddc8 <xsocket_addr_cmp+0x288>
  40dda0:	2402ffff 	li	v0,-1
  40dda4:	12000007 	beqz	s0,40ddc4 <xsocket_addr_cmp+0x284>
  40dda8:	02002021 	move	a0,s0
  40ddac:	00402821 	move	a1,v0
  40ddb0:	8f998030 	lw	t9,-32720(gp) <strcpy>
  40ddb4:	00000000 	nop
  40ddb8:	0320f809 	jalr	t9
  40ddbc:	00000000 	nop
  40ddc0:	8fbc0010 	lw	gp,16(sp)
  40ddc4:	00001021 	move	v0,zero
  40ddc8:	8fbf0020 	lw	ra,32(sp)
  40ddcc:	8fb00018 	lw	s0,24(sp)
  40ddd0:	03e00008 	jr	ra
  40ddd4:	27bd0028 	addiu	sp,sp,40
  40ddd8:	3c1c0fc0 	lui	gp,0xfc0
  40dddc:	279cb4b8 	addiu	gp,gp,-19272
  40dde0:	0399e021 	addu	gp,gp,t9
  40dde4:	27bdffb0 	addiu	sp,sp,-80
  40dde8:	afbc0010 	sw	gp,16(sp)
  40ddec:	afbf0048 	sw	ra,72(sp)
  40ddf0:	afbc0044 	sw	gp,68(sp)
  40ddf4:	afb20040 	sw	s2,64(sp)
  40ddf8:	afb1003c 	sw	s1,60(sp)
  40ddfc:	afb00038 	sw	s0,56(sp)
  40de00:	00808821 	move	s1,a0
  40de04:	00a02021 	move	a0,a1
  40de08:	1220002c 	beqz	s1,40debc <xsocket_addr_cmp+0x37c>
  40de0c:	00c09021 	move	s2,a2
  40de10:	1080002a 	beqz	a0,40debc <xsocket_addr_cmp+0x37c>
  40de14:	27a50018 	addiu	a1,sp,24
  40de18:	27a60030 	addiu	a2,sp,48
  40de1c:	8f998020 	lw	t9,-32736(gp)
  40de20:	00000000 	nop
  40de24:	2739dcb8 	addiu	t9,t9,-9032
  40de28:	00000000 	nop
  40de2c:	0320f809 	jalr	t9
  40de30:	00000000 	nop
  40de34:	8fbc0010 	lw	gp,16(sp)
  40de38:	27a40018 	addiu	a0,sp,24
  40de3c:	27b00020 	addiu	s0,sp,32
  40de40:	02002821 	move	a1,s0
  40de44:	8f99806c 	lw	t9,-32660(gp) <ip4_ip>
  40de48:	00000000 	nop
  40de4c:	0320f809 	jalr	t9
  40de50:	00000000 	nop
  40de54:	8fbc0010 	lw	gp,16(sp)
  40de58:	8fa70030 	lw	a3,48(sp)
  40de5c:	00000000 	nop
  40de60:	10e0000d 	beqz	a3,40de98 <xsocket_addr_cmp+0x358>
  40de64:	02202021 	move	a0,s1
  40de68:	10f2000b 	beq	a3,s2,40de98 <xsocket_addr_cmp+0x358>
  40de6c:	02003021 	move	a2,s0
  40de70:	8f858020 	lw	a1,-32736(gp)
  40de74:	00000000 	nop
  40de78:	24a54cbc 	addiu	a1,a1,19644		# "%s:%d"
  40de7c:	8f998060 	lw	t9,-32672(gp) <sprintf>
  40de80:	00000000 	nop
  40de84:	0320f809 	jalr	t9
  40de88:	00000000 	nop
  40de8c:	8fbc0010 	lw	gp,16(sp)
  40de90:	1000000a 	b	40debc <xsocket_addr_cmp+0x37c>
  40de94:	00000000 	nop
  40de98:	8f858020 	lw	a1,-32736(gp)
  40de9c:	00000000 	nop
  40dea0:	24a54cc4 	addiu	a1,a1,19652
  40dea4:	02003021 	move	a2,s0
  40dea8:	8f998060 	lw	t9,-32672(gp) <sprintf>
  40deac:	00000000 	nop
  40deb0:	0320f809 	jalr	t9
  40deb4:	00000000 	nop
  40deb8:	8fbc0010 	lw	gp,16(sp)
  40debc:	8fbf0048 	lw	ra,72(sp)
  40dec0:	8fb20040 	lw	s2,64(sp)
  40dec4:	8fb1003c 	lw	s1,60(sp)
  40dec8:	8fb00038 	lw	s0,56(sp)
  40decc:	03e00008 	jr	ra
  40ded0:	27bd0050 	addiu	sp,sp,80
  40ded4:	3c1c0fc0 	lui	gp,0xfc0
  40ded8:	279cb3bc 	addiu	gp,gp,-19524
  40dedc:	0399e021 	addu	gp,gp,t9
  40dee0:	27bdffa0 	addiu	sp,sp,-96
  40dee4:	afbc0010 	sw	gp,16(sp)
  40dee8:	afbf005c 	sw	ra,92(sp)
  40deec:	afbc0058 	sw	gp,88(sp)
  40def0:	00801021 	move	v0,a0
  40def4:	27a40018 	addiu	a0,sp,24
  40def8:	00a03021 	move	a2,a1
  40defc:	00402821 	move	a1,v0
  40df00:	8f998020 	lw	t9,-32736(gp)
  40df04:	00000000 	nop
  40df08:	2739ddd8 	addiu	t9,t9,-8744
  40df0c:	00000000 	nop
  40df10:	0320f809 	jalr	t9
  40df14:	00000000 	nop
  40df18:	8fbc0010 	lw	gp,16(sp)
  40df1c:	00000000 	nop
  40df20:	8f848020 	lw	a0,-32736(gp)
  40df24:	00000000 	nop
  40df28:	24844cc8 	addiu	a0,a0,19656		# "!0 Naddr:%s"
  40df2c:	27a50018 	addiu	a1,sp,24
  40df30:	8f998154 	lw	t9,-32428(gp) <act_printf>
  40df34:	00000000 	nop
  40df38:	0320f809 	jalr	t9
  40df3c:	00000000 	nop
  40df40:	8fbc0010 	lw	gp,16(sp)
  40df44:	8fbf005c 	lw	ra,92(sp)
  40df48:	00000000 	nop
  40df4c:	03e00008 	jr	ra
  40df50:	27bd0060 	addiu	sp,sp,96
  40df54:	3c1c0fc0 	lui	gp,0xfc0
  40df58:	279cb33c 	addiu	gp,gp,-19652
  40df5c:	0399e021 	addu	gp,gp,t9
  40df60:	27bdffd8 	addiu	sp,sp,-40
  40df64:	afbc0010 	sw	gp,16(sp)
  40df68:	afbf0020 	sw	ra,32(sp)
  40df6c:	afbc001c 	sw	gp,28(sp)
  40df70:	afb00018 	sw	s0,24(sp)
  40df74:	00808021 	move	s0,a0
  40df78:	24050003 	li	a1,3
  40df7c:	00003021 	move	a2,zero
  40df80:	8f9980f0 	lw	t9,-32528(gp) <fcntl>
  40df84:	00000000 	nop
  40df88:	0320f809 	jalr	t9
  40df8c:	00000000 	nop
  40df90:	8fbc0010 	lw	gp,16(sp)
  40df94:	04400008 	bltz	v0,40dfb8 <xsocket_addr_cmp+0x478>
  40df98:	02002021 	move	a0,s0
  40df9c:	24050004 	li	a1,4
  40dfa0:	34460080 	ori	a2,v0,0x80
  40dfa4:	8f9980f0 	lw	t9,-32528(gp) <fcntl>
  40dfa8:	00000000 	nop
  40dfac:	0320f809 	jalr	t9
  40dfb0:	00000000 	nop
  40dfb4:	8fbc0010 	lw	gp,16(sp)
  40dfb8:	8fbf0020 	lw	ra,32(sp)
  40dfbc:	8fb00018 	lw	s0,24(sp)
  40dfc0:	03e00008 	jr	ra
  40dfc4:	27bd0028 	addiu	sp,sp,40
  40dfc8:	3c1c0fc0 	lui	gp,0xfc0
  40dfcc:	279cb2c8 	addiu	gp,gp,-19768
  40dfd0:	0399e021 	addu	gp,gp,t9
  40dfd4:	27bdffd8 	addiu	sp,sp,-40
  40dfd8:	afbc0010 	sw	gp,16(sp)
  40dfdc:	afbf0020 	sw	ra,32(sp)
  40dfe0:	afbc001c 	sw	gp,28(sp)
  40dfe4:	afb00018 	sw	s0,24(sp)
  40dfe8:	00808021 	move	s0,a0
  40dfec:	24050003 	li	a1,3
  40dff0:	00003021 	move	a2,zero
  40dff4:	8f9980f0 	lw	t9,-32528(gp) <fcntl>
  40dff8:	00000000 	nop
  40dffc:	0320f809 	jalr	t9
  40e000:	00000000 	nop
  40e004:	8fbc0010 	lw	gp,16(sp)
  40e008:	04400009 	bltz	v0,40e030 <xsocket_addr_cmp+0x4f0>
  40e00c:	02002021 	move	a0,s0
  40e010:	24050004 	li	a1,4
  40e014:	2406ff7f 	li	a2,-129
  40e018:	00463024 	and	a2,v0,a2
  40e01c:	8f9980f0 	lw	t9,-32528(gp) <fcntl>
  40e020:	00000000 	nop
  40e024:	0320f809 	jalr	t9
  40e028:	00000000 	nop
  40e02c:	8fbc0010 	lw	gp,16(sp)
  40e030:	8fbf0020 	lw	ra,32(sp)
  40e034:	8fb00018 	lw	s0,24(sp)
  40e038:	03e00008 	jr	ra
  40e03c:	27bd0028 	addiu	sp,sp,40

0040e040 <xsocket_get_ip>:
  40e040:	3c1c0fc0 	lui	gp,0xfc0
  40e044:	279cb250 	addiu	gp,gp,-19888
  40e048:	0399e021 	addu	gp,gp,t9
  40e04c:	27bdff90 	addiu	sp,sp,-112
  40e050:	afbc0010 	sw	gp,16(sp)
  40e054:	afbf006c 	sw	ra,108(sp)
  40e058:	afbc0068 	sw	gp,104(sp)
  40e05c:	afb30064 	sw	s3,100(sp)
  40e060:	afb20060 	sw	s2,96(sp)
  40e064:	afb1005c 	sw	s1,92(sp)
  40e068:	afb00058 	sw	s0,88(sp)
  40e06c:	00809821 	move	s3,a0
  40e070:	24040002 	li	a0,2
  40e074:	24050001 	li	a1,1
  40e078:	00003021 	move	a2,zero
  40e07c:	8f9280e4 	lw	s2,-32540(gp)
  40e080:	00000000 	nop
  40e084:	8e520000 	lw	s2,0(s2)
  40e088:	8f998050 	lw	t9,-32688(gp) <socket>
  40e08c:	00000000 	nop
  40e090:	0320f809 	jalr	t9
  40e094:	00000000 	nop
  40e098:	8fbc0010 	lw	gp,16(sp)
  40e09c:	00408821 	move	s1,v0
  40e0a0:	0621000b 	bgez	s1,40e0d0 <xsocket_get_ip+0x90>
  40e0a4:	27b00038 	addiu	s0,sp,56
  40e0a8:	8f848020 	lw	a0,-32736(gp)
  40e0ac:	00000000 	nop
  40e0b0:	24844cd8 	addiu	a0,a0,19672		# "socket open error"
  40e0b4:	8f998154 	lw	t9,-32428(gp) <act_printf>
  40e0b8:	00000000 	nop
  40e0bc:	0320f809 	jalr	t9
  40e0c0:	00000000 	nop
  40e0c4:	8fbc0010 	lw	gp,16(sp)
  40e0c8:	10000043 	b	40e1d8 <xsocket_get_ip+0x198>
  40e0cc:	2402ffff 	li	v0,-1
  40e0d0:	02002021 	move	a0,s0
  40e0d4:	02402821 	move	a1,s2
  40e0d8:	8f998030 	lw	t9,-32720(gp) <strcpy>
  40e0dc:	00000000 	nop
  40e0e0:	0320f809 	jalr	t9
  40e0e4:	00000000 	nop
  40e0e8:	8fbc0010 	lw	gp,16(sp)
  40e0ec:	02202021 	move	a0,s1
  40e0f0:	34058913 	li	a1,0x8913
  40e0f4:	02003021 	move	a2,s0
  40e0f8:	8f998094 	lw	t9,-32620(gp) <ioctl>
  40e0fc:	00000000 	nop
  40e100:	0320f809 	jalr	t9
  40e104:	00000000 	nop
  40e108:	8fbc0010 	lw	gp,16(sp)
  40e10c:	0441000c 	bgez	v0,40e140 <xsocket_get_ip+0x100>
  40e110:	24020002 	li	v0,2
  40e114:	8f848020 	lw	a0,-32736(gp)
  40e118:	00000000 	nop
  40e11c:	24844cec 	addiu	a0,a0,19692		# "device error, can't get %s info"
  40e120:	02402821 	move	a1,s2
  40e124:	8f998154 	lw	t9,-32428(gp) <act_printf>
  40e128:	00000000 	nop
  40e12c:	0320f809 	jalr	t9
  40e130:	00000000 	nop
  40e134:	8fbc0010 	lw	gp,16(sp)
  40e138:	1000000c 	b	40e16c <xsocket_get_ip+0x12c>
  40e13c:	02202021 	move	a0,s1
  40e140:	a7a20048 	sh	v0,72(sp)
  40e144:	02202021 	move	a0,s1
  40e148:	34058915 	li	a1,0x8915
  40e14c:	02003021 	move	a2,s0
  40e150:	8f998094 	lw	t9,-32620(gp) <ioctl>
  40e154:	00000000 	nop
  40e158:	0320f809 	jalr	t9
  40e15c:	00000000 	nop
  40e160:	8fbc0010 	lw	gp,16(sp)
  40e164:	10400008 	beqz	v0,40e188 <xsocket_get_ip+0x148>
  40e168:	02202021 	move	a0,s1
  40e16c:	8f998238 	lw	t9,-32200(gp) <close>
  40e170:	00000000 	nop
  40e174:	0320f809 	jalr	t9
  40e178:	00000000 	nop
  40e17c:	8fbc0010 	lw	gp,16(sp)
  40e180:	10000015 	b	40e1d8 <xsocket_get_ip+0x198>
  40e184:	2402ffff 	li	v0,-1
  40e188:	8fa4004c 	lw	a0,76(sp)
  40e18c:	8f9981e4 	lw	t9,-32284(gp) <inet_ntoa>
  40e190:	00000000 	nop
  40e194:	0320f809 	jalr	t9
  40e198:	00000000 	nop
  40e19c:	8fbc0010 	lw	gp,16(sp)
  40e1a0:	02602021 	move	a0,s3
  40e1a4:	00402821 	move	a1,v0
  40e1a8:	8f998030 	lw	t9,-32720(gp) <strcpy>
  40e1ac:	00000000 	nop
  40e1b0:	0320f809 	jalr	t9
  40e1b4:	00000000 	nop
  40e1b8:	8fbc0010 	lw	gp,16(sp)
  40e1bc:	02202021 	move	a0,s1
  40e1c0:	8f998238 	lw	t9,-32200(gp) <close>
  40e1c4:	00000000 	nop
  40e1c8:	0320f809 	jalr	t9
  40e1cc:	00000000 	nop
  40e1d0:	8fbc0010 	lw	gp,16(sp)
  40e1d4:	00001021 	move	v0,zero
  40e1d8:	8fbf006c 	lw	ra,108(sp)
  40e1dc:	8fb30064 	lw	s3,100(sp)
  40e1e0:	8fb20060 	lw	s2,96(sp)
  40e1e4:	8fb1005c 	lw	s1,92(sp)
  40e1e8:	8fb00058 	lw	s0,88(sp)
  40e1ec:	03e00008 	jr	ra
  40e1f0:	27bd0070 	addiu	sp,sp,112
  40e1f4:	3c1c0fc0 	lui	gp,0xfc0
  40e1f8:	279cb09c 	addiu	gp,gp,-20324
  40e1fc:	0399e021 	addu	gp,gp,t9
  40e200:	27bdffb8 	addiu	sp,sp,-72
  40e204:	afbc0018 	sw	gp,24(sp)
  40e208:	afbf0040 	sw	ra,64(sp)
  40e20c:	afbc003c 	sw	gp,60(sp)
  40e210:	afb20038 	sw	s2,56(sp)
  40e214:	afb10034 	sw	s1,52(sp)
  40e218:	afb00030 	sw	s0,48(sp)
  40e21c:	00808821 	move	s1,a0
  40e220:	27a40020 	addiu	a0,sp,32
  40e224:	8e260000 	lw	a2,0(s1)
  40e228:	00a09021 	move	s2,a1
  40e22c:	00002821 	move	a1,zero
  40e230:	8f998020 	lw	t9,-32736(gp)
  40e234:	00000000 	nop
  40e238:	2739d9a4 	addiu	t9,t9,-9820
  40e23c:	00000000 	nop
  40e240:	0320f809 	jalr	t9
  40e244:	00000000 	nop
  40e248:	8fbc0018 	lw	gp,24(sp)
  40e24c:	04410003 	bgez	v0,40e25c <xsocket_get_ip+0x21c>
  40e250:	24040002 	li	a0,2
  40e254:	10000036 	b	40e330 <xsocket_get_ip+0x2f0>
  40e258:	2402ffff 	li	v0,-1
  40e25c:	24050001 	li	a1,1
  40e260:	00003021 	move	a2,zero
  40e264:	8f998050 	lw	t9,-32688(gp) <socket>
  40e268:	00000000 	nop
  40e26c:	0320f809 	jalr	t9
  40e270:	00000000 	nop
  40e274:	8fbc0018 	lw	gp,24(sp)
  40e278:	afa00024 	sw	zero,36(sp)
  40e27c:	00003021 	move	a2,zero
  40e280:	00408021 	move	s0,v0
  40e284:	02002021 	move	a0,s0
  40e288:	8fa50020 	lw	a1,32(sp)
  40e28c:	8fa2002c 	lw	v0,44(sp)
  40e290:	8fa70028 	lw	a3,40(sp)
  40e294:	afa20010 	sw	v0,16(sp)
  40e298:	8f998020 	lw	t9,-32736(gp)
  40e29c:	00000000 	nop
  40e2a0:	2739d57c 	addiu	t9,t9,-10884
  40e2a4:	00000000 	nop
  40e2a8:	0320f809 	jalr	t9
  40e2ac:	00000000 	nop
  40e2b0:	8fbc0018 	lw	gp,24(sp)
  40e2b4:	04410008 	bgez	v0,40e2d8 <xsocket_get_ip+0x298>
  40e2b8:	02002021 	move	a0,s0
  40e2bc:	8f998238 	lw	t9,-32200(gp) <close>
  40e2c0:	00000000 	nop
  40e2c4:	0320f809 	jalr	t9
  40e2c8:	00000000 	nop
  40e2cc:	8fbc0018 	lw	gp,24(sp)
  40e2d0:	10000017 	b	40e330 <xsocket_get_ip+0x2f0>
  40e2d4:	2402fffe 	li	v0,-2
  40e2d8:	97a20022 	lhu	v0,34(sp)
  40e2dc:	1240000b 	beqz	s2,40e30c <xsocket_get_ip+0x2cc>
  40e2e0:	ae220000 	sw	v0,0(s1)
  40e2e4:	02002021 	move	a0,s0
  40e2e8:	8f998020 	lw	t9,-32736(gp)
  40e2ec:	00000000 	nop
  40e2f0:	2739df54 	addiu	t9,t9,-8364
  40e2f4:	00000000 	nop
  40e2f8:	0320f809 	jalr	t9
  40e2fc:	00000000 	nop
  40e300:	8fbc0018 	lw	gp,24(sp)
  40e304:	1000000a 	b	40e330 <xsocket_get_ip+0x2f0>
  40e308:	02001021 	move	v0,s0
  40e30c:	02002021 	move	a0,s0
  40e310:	8f998020 	lw	t9,-32736(gp)
  40e314:	00000000 	nop
  40e318:	2739dfc8 	addiu	t9,t9,-8248
  40e31c:	00000000 	nop
  40e320:	0320f809 	jalr	t9
  40e324:	00000000 	nop
  40e328:	8fbc0018 	lw	gp,24(sp)
  40e32c:	02001021 	move	v0,s0
  40e330:	8fbf0040 	lw	ra,64(sp)
  40e334:	8fb20038 	lw	s2,56(sp)
  40e338:	8fb10034 	lw	s1,52(sp)
  40e33c:	8fb00030 	lw	s0,48(sp)
  40e340:	03e00008 	jr	ra
  40e344:	27bd0048 	addiu	sp,sp,72

0040e348 <udp_open>:
  40e348:	3c1c0fc0 	lui	gp,0xfc0
  40e34c:	279caf48 	addiu	gp,gp,-20664
  40e350:	0399e021 	addu	gp,gp,t9
  40e354:	27bdffb8 	addiu	sp,sp,-72
  40e358:	afbc0018 	sw	gp,24(sp)
  40e35c:	afbf0040 	sw	ra,64(sp)
  40e360:	afbc003c 	sw	gp,60(sp)
  40e364:	afb20038 	sw	s2,56(sp)
  40e368:	afb10034 	sw	s1,52(sp)
  40e36c:	afb00030 	sw	s0,48(sp)
  40e370:	00808821 	move	s1,a0
  40e374:	27a40020 	addiu	a0,sp,32
  40e378:	8e260000 	lw	a2,0(s1)
  40e37c:	00a09021 	move	s2,a1
  40e380:	00002821 	move	a1,zero
  40e384:	8f998020 	lw	t9,-32736(gp)
  40e388:	00000000 	nop
  40e38c:	2739d73c 	addiu	t9,t9,-10436
  40e390:	00000000 	nop
  40e394:	0320f809 	jalr	t9
  40e398:	00000000 	nop
  40e39c:	8fbc0018 	lw	gp,24(sp)
  40e3a0:	04410003 	bgez	v0,40e3b0 <udp_open+0x68>
  40e3a4:	24040002 	li	a0,2
  40e3a8:	10000036 	b	40e484 <udp_open+0x13c>
  40e3ac:	2402ffff 	li	v0,-1
  40e3b0:	24050001 	li	a1,1
  40e3b4:	00003021 	move	a2,zero
  40e3b8:	8f998050 	lw	t9,-32688(gp) <socket>
  40e3bc:	00000000 	nop
  40e3c0:	0320f809 	jalr	t9
  40e3c4:	00000000 	nop
  40e3c8:	8fbc0018 	lw	gp,24(sp)
  40e3cc:	afa00024 	sw	zero,36(sp)
  40e3d0:	00003021 	move	a2,zero
  40e3d4:	00408021 	move	s0,v0
  40e3d8:	02002021 	move	a0,s0
  40e3dc:	8fa50020 	lw	a1,32(sp)
  40e3e0:	8fa2002c 	lw	v0,44(sp)
  40e3e4:	8fa70028 	lw	a3,40(sp)
  40e3e8:	afa20010 	sw	v0,16(sp)
  40e3ec:	8f998020 	lw	t9,-32736(gp)
  40e3f0:	00000000 	nop
  40e3f4:	2739d57c 	addiu	t9,t9,-10884
  40e3f8:	00000000 	nop
  40e3fc:	0320f809 	jalr	t9
  40e400:	00000000 	nop
  40e404:	8fbc0018 	lw	gp,24(sp)
  40e408:	04410008 	bgez	v0,40e42c <udp_open+0xe4>
  40e40c:	02002021 	move	a0,s0
  40e410:	8f998238 	lw	t9,-32200(gp) <close>
  40e414:	00000000 	nop
  40e418:	0320f809 	jalr	t9
  40e41c:	00000000 	nop
  40e420:	8fbc0018 	lw	gp,24(sp)
  40e424:	10000017 	b	40e484 <udp_open+0x13c>
  40e428:	2402fffe 	li	v0,-2
  40e42c:	97a20022 	lhu	v0,34(sp)
  40e430:	1240000b 	beqz	s2,40e460 <udp_open+0x118>
  40e434:	ae220000 	sw	v0,0(s1)
  40e438:	02002021 	move	a0,s0
  40e43c:	8f998020 	lw	t9,-32736(gp)
  40e440:	00000000 	nop
  40e444:	2739df54 	addiu	t9,t9,-8364
  40e448:	00000000 	nop
  40e44c:	0320f809 	jalr	t9
  40e450:	00000000 	nop
  40e454:	8fbc0018 	lw	gp,24(sp)
  40e458:	1000000a 	b	40e484 <udp_open+0x13c>
  40e45c:	02001021 	move	v0,s0
  40e460:	02002021 	move	a0,s0
  40e464:	8f998020 	lw	t9,-32736(gp)
  40e468:	00000000 	nop
  40e46c:	2739dfc8 	addiu	t9,t9,-8248
  40e470:	00000000 	nop
  40e474:	0320f809 	jalr	t9
  40e478:	00000000 	nop
  40e47c:	8fbc0018 	lw	gp,24(sp)
  40e480:	02001021 	move	v0,s0
  40e484:	8fbf0040 	lw	ra,64(sp)
  40e488:	8fb20038 	lw	s2,56(sp)
  40e48c:	8fb10034 	lw	s1,52(sp)
  40e490:	8fb00030 	lw	s0,48(sp)
  40e494:	03e00008 	jr	ra
  40e498:	27bd0048 	addiu	sp,sp,72

0040e49c <udp_open_host>:
  40e49c:	3c1c0fc0 	lui	gp,0xfc0
  40e4a0:	279cadf4 	addiu	gp,gp,-21004
  40e4a4:	0399e021 	addu	gp,gp,t9
  40e4a8:	27bdffb0 	addiu	sp,sp,-80
  40e4ac:	afbc0018 	sw	gp,24(sp)
  40e4b0:	afbf0048 	sw	ra,72(sp)
  40e4b4:	afbc0044 	sw	gp,68(sp)
  40e4b8:	afb20040 	sw	s2,64(sp)
  40e4bc:	afb1003c 	sw	s1,60(sp)
  40e4c0:	afb00038 	sw	s0,56(sp)
  40e4c4:	24020001 	li	v0,1
  40e4c8:	afa20030 	sw	v0,48(sp)
  40e4cc:	00a09021 	move	s2,a1
  40e4d0:	00c02821 	move	a1,a2
  40e4d4:	00808821 	move	s1,a0
  40e4d8:	8e260000 	lw	a2,0(s1)
  40e4dc:	27a40020 	addiu	a0,sp,32
  40e4e0:	8f998020 	lw	t9,-32736(gp)
  40e4e4:	00000000 	nop
  40e4e8:	2739d73c 	addiu	t9,t9,-10436
  40e4ec:	00000000 	nop
  40e4f0:	0320f809 	jalr	t9
  40e4f4:	00000000 	nop
  40e4f8:	8fbc0018 	lw	gp,24(sp)
  40e4fc:	04410003 	bgez	v0,40e50c <udp_open_host+0x70>
  40e500:	24040002 	li	a0,2
  40e504:	10000052 	b	40e650 <udp_open_host+0x1b4>
  40e508:	2402ffff 	li	v0,-1
  40e50c:	24050001 	li	a1,1
  40e510:	00003021 	move	a2,zero
  40e514:	8f998050 	lw	t9,-32688(gp) <socket>
  40e518:	00000000 	nop
  40e51c:	0320f809 	jalr	t9
  40e520:	00000000 	nop
  40e524:	8fbc0018 	lw	gp,24(sp)
  40e528:	24030004 	li	v1,4
  40e52c:	afa30010 	sw	v1,16(sp)
  40e530:	00408021 	move	s0,v0
  40e534:	02002021 	move	a0,s0
  40e538:	3405ffff 	li	a1,0xffff
  40e53c:	24060004 	li	a2,4
  40e540:	27a70030 	addiu	a3,sp,48
  40e544:	8f998190 	lw	t9,-32368(gp) <setsockopt>
  40e548:	00000000 	nop
  40e54c:	0320f809 	jalr	t9
  40e550:	00000000 	nop
  40e554:	8fbc0018 	lw	gp,24(sp)
  40e558:	04410011 	bgez	v0,40e5a0 <udp_open_host+0x104>
  40e55c:	00003021 	move	a2,zero
  40e560:	8f848020 	lw	a0,-32736(gp)
  40e564:	00000000 	nop
  40e568:	24844d10 	addiu	a0,a0,19728		# "setsockopt SO_REUSEADDR failed"
  40e56c:	8f998154 	lw	t9,-32428(gp) <act_printf>
  40e570:	00000000 	nop
  40e574:	0320f809 	jalr	t9
  40e578:	00000000 	nop
  40e57c:	8fbc0018 	lw	gp,24(sp)
  40e580:	02002021 	move	a0,s0
  40e584:	8f998238 	lw	t9,-32200(gp) <close>
  40e588:	00000000 	nop
  40e58c:	0320f809 	jalr	t9
  40e590:	00000000 	nop
  40e594:	8fbc0018 	lw	gp,24(sp)
  40e598:	1000002d 	b	40e650 <udp_open_host+0x1b4>
  40e59c:	2402ffff 	li	v0,-1
  40e5a0:	afa00024 	sw	zero,36(sp)
  40e5a4:	02002021 	move	a0,s0
  40e5a8:	8fa50020 	lw	a1,32(sp)
  40e5ac:	8fa2002c 	lw	v0,44(sp)
  40e5b0:	8fa70028 	lw	a3,40(sp)
  40e5b4:	afa20010 	sw	v0,16(sp)
  40e5b8:	8f998020 	lw	t9,-32736(gp)
  40e5bc:	00000000 	nop
  40e5c0:	2739d57c 	addiu	t9,t9,-10884
  40e5c4:	00000000 	nop
  40e5c8:	0320f809 	jalr	t9
  40e5cc:	00000000 	nop
  40e5d0:	8fbc0018 	lw	gp,24(sp)
  40e5d4:	04410008 	bgez	v0,40e5f8 <udp_open_host+0x15c>
  40e5d8:	02002021 	move	a0,s0
  40e5dc:	8f998238 	lw	t9,-32200(gp) <close>
  40e5e0:	00000000 	nop
  40e5e4:	0320f809 	jalr	t9
  40e5e8:	00000000 	nop
  40e5ec:	8fbc0018 	lw	gp,24(sp)
  40e5f0:	10000017 	b	40e650 <udp_open_host+0x1b4>
  40e5f4:	2402fffe 	li	v0,-2
  40e5f8:	97a20022 	lhu	v0,34(sp)
  40e5fc:	1240000b 	beqz	s2,40e62c <udp_open_host+0x190>
  40e600:	ae220000 	sw	v0,0(s1)
  40e604:	02002021 	move	a0,s0
  40e608:	8f998020 	lw	t9,-32736(gp)
  40e60c:	00000000 	nop
  40e610:	2739df54 	addiu	t9,t9,-8364
  40e614:	00000000 	nop
  40e618:	0320f809 	jalr	t9
  40e61c:	00000000 	nop
  40e620:	8fbc0018 	lw	gp,24(sp)
  40e624:	1000000a 	b	40e650 <udp_open_host+0x1b4>
  40e628:	02001021 	move	v0,s0
  40e62c:	02002021 	move	a0,s0
  40e630:	8f998020 	lw	t9,-32736(gp)
  40e634:	00000000 	nop
  40e638:	2739dfc8 	addiu	t9,t9,-8248
  40e63c:	00000000 	nop
  40e640:	0320f809 	jalr	t9
  40e644:	00000000 	nop
  40e648:	8fbc0018 	lw	gp,24(sp)
  40e64c:	02001021 	move	v0,s0
  40e650:	8fbf0048 	lw	ra,72(sp)
  40e654:	8fb20040 	lw	s2,64(sp)
  40e658:	8fb1003c 	lw	s1,60(sp)
  40e65c:	8fb00038 	lw	s0,56(sp)
  40e660:	03e00008 	jr	ra
  40e664:	27bd0050 	addiu	sp,sp,80

0040e668 <udp_close>:
  40e668:	3c1c0fc0 	lui	gp,0xfc0
  40e66c:	279cac28 	addiu	gp,gp,-21464
  40e670:	0399e021 	addu	gp,gp,t9
  40e674:	27bdffd8 	addiu	sp,sp,-40
  40e678:	afbc0010 	sw	gp,16(sp)
  40e67c:	afbf0020 	sw	ra,32(sp)
  40e680:	afbc001c 	sw	gp,28(sp)
  40e684:	afb00018 	sw	s0,24(sp)
  40e688:	00808021 	move	s0,a0
  40e68c:	0600000e 	bltz	s0,40e6c8 <udp_close+0x60>
  40e690:	24050002 	li	a1,2
  40e694:	8f9981e0 	lw	t9,-32288(gp) <shutdown>
  40e698:	00000000 	nop
  40e69c:	0320f809 	jalr	t9
  40e6a0:	00000000 	nop
  40e6a4:	8fbc0010 	lw	gp,16(sp)
  40e6a8:	02002021 	move	a0,s0
  40e6ac:	8f998238 	lw	t9,-32200(gp) <close>
  40e6b0:	00000000 	nop
  40e6b4:	0320f809 	jalr	t9
  40e6b8:	00000000 	nop
  40e6bc:	8fbc0010 	lw	gp,16(sp)
  40e6c0:	10000002 	b	40e6cc <udp_close+0x64>
  40e6c4:	00001021 	move	v0,zero
  40e6c8:	2402ffff 	li	v0,-1
  40e6cc:	8fbf0020 	lw	ra,32(sp)
  40e6d0:	8fb00018 	lw	s0,24(sp)
  40e6d4:	03e00008 	jr	ra
  40e6d8:	27bd0028 	addiu	sp,sp,40

0040e6dc <udp_recvfrom>:
  40e6dc:	3c1c0fc0 	lui	gp,0xfc0
  40e6e0:	279cabb4 	addiu	gp,gp,-21580
  40e6e4:	0399e021 	addu	gp,gp,t9
  40e6e8:	27bdffd0 	addiu	sp,sp,-48
  40e6ec:	afbc0018 	sw	gp,24(sp)
  40e6f0:	afbf002c 	sw	ra,44(sp)
  40e6f4:	afbc0028 	sw	gp,40(sp)
  40e6f8:	24020010 	li	v0,16
  40e6fc:	0480000c 	bltz	a0,40e730 <udp_recvfrom+0x54>
  40e700:	afa20020 	sw	v0,32(sp)
  40e704:	afa70010 	sw	a3,16(sp)
  40e708:	27a20020 	addiu	v0,sp,32
  40e70c:	afa20014 	sw	v0,20(sp)
  40e710:	00003821 	move	a3,zero
  40e714:	8f998244 	lw	t9,-32188(gp) <recvfrom>
  40e718:	00000000 	nop
  40e71c:	0320f809 	jalr	t9
  40e720:	00000000 	nop
  40e724:	8fbc0018 	lw	gp,24(sp)
  40e728:	10000002 	b	40e734 <udp_recvfrom+0x58>
  40e72c:	00000000 	nop
  40e730:	2402ffff 	li	v0,-1
  40e734:	8fbf002c 	lw	ra,44(sp)
  40e738:	00000000 	nop
  40e73c:	03e00008 	jr	ra
  40e740:	27bd0030 	addiu	sp,sp,48
  40e744:	3c1c0fc0 	lui	gp,0xfc0
  40e748:	279cab4c 	addiu	gp,gp,-21684
  40e74c:	0399e021 	addu	gp,gp,t9
  40e750:	27bdffb8 	addiu	sp,sp,-72
  40e754:	afbc0018 	sw	gp,24(sp)
  40e758:	afbf0040 	sw	ra,64(sp)
  40e75c:	afbc003c 	sw	gp,60(sp)
  40e760:	afb20038 	sw	s2,56(sp)
  40e764:	afb10034 	sw	s1,52(sp)
  40e768:	afb00030 	sw	s0,48(sp)
  40e76c:	00808021 	move	s0,a0
  40e770:	00a08821 	move	s1,a1
  40e774:	00c09021 	move	s2,a2
  40e778:	06000019 	bltz	s0,40e7e0 <udp_recvfrom+0x104>
  40e77c:	00e02821 	move	a1,a3
  40e780:	8fa60058 	lw	a2,88(sp)
  40e784:	27a40020 	addiu	a0,sp,32
  40e788:	8f998020 	lw	t9,-32736(gp)
  40e78c:	00000000 	nop
  40e790:	2739d73c 	addiu	t9,t9,-10436
  40e794:	00000000 	nop
  40e798:	0320f809 	jalr	t9
  40e79c:	00000000 	nop
  40e7a0:	8fbc0018 	lw	gp,24(sp)
  40e7a4:	27a20020 	addiu	v0,sp,32
  40e7a8:	afa20010 	sw	v0,16(sp)
  40e7ac:	24020010 	li	v0,16
  40e7b0:	afa20014 	sw	v0,20(sp)
  40e7b4:	02002021 	move	a0,s0
  40e7b8:	02202821 	move	a1,s1
  40e7bc:	02403021 	move	a2,s2
  40e7c0:	00003821 	move	a3,zero
  40e7c4:	8f9981bc 	lw	t9,-32324(gp) <sendto>
  40e7c8:	00000000 	nop
  40e7cc:	0320f809 	jalr	t9
  40e7d0:	00000000 	nop
  40e7d4:	8fbc0018 	lw	gp,24(sp)
  40e7d8:	10000002 	b	40e7e4 <udp_recvfrom+0x108>
  40e7dc:	00000000 	nop
  40e7e0:	2402ffff 	li	v0,-1
  40e7e4:	8fbf0040 	lw	ra,64(sp)
  40e7e8:	8fb20038 	lw	s2,56(sp)
  40e7ec:	8fb10034 	lw	s1,52(sp)
  40e7f0:	8fb00030 	lw	s0,48(sp)
  40e7f4:	03e00008 	jr	ra
  40e7f8:	27bd0048 	addiu	sp,sp,72

0040e7fc <udp_sendto>:
  40e7fc:	3c1c0fc0 	lui	gp,0xfc0
  40e800:	279caa94 	addiu	gp,gp,-21868
  40e804:	0399e021 	addu	gp,gp,t9
  40e808:	27bdffd8 	addiu	sp,sp,-40
  40e80c:	afbc0018 	sw	gp,24(sp)
  40e810:	afbf0024 	sw	ra,36(sp)
  40e814:	afbc0020 	sw	gp,32(sp)
  40e818:	afa70010 	sw	a3,16(sp)
  40e81c:	24020010 	li	v0,16
  40e820:	afa20014 	sw	v0,20(sp)
  40e824:	00003821 	move	a3,zero
  40e828:	8f9981bc 	lw	t9,-32324(gp) <sendto>
  40e82c:	00000000 	nop
  40e830:	0320f809 	jalr	t9
  40e834:	00000000 	nop
  40e838:	8fbc0018 	lw	gp,24(sp)
  40e83c:	8fbf0024 	lw	ra,36(sp)
  40e840:	00000000 	nop
  40e844:	03e00008 	jr	ra
  40e848:	27bd0028 	addiu	sp,sp,40
  40e84c:	3c1c0fc0 	lui	gp,0xfc0
  40e850:	279caa44 	addiu	gp,gp,-21948
  40e854:	0399e021 	addu	gp,gp,t9
  40e858:	27bdffb0 	addiu	sp,sp,-80
  40e85c:	afbc0010 	sw	gp,16(sp)
  40e860:	afbf004c 	sw	ra,76(sp)
  40e864:	afbc0048 	sw	gp,72(sp)
  40e868:	afb70044 	sw	s7,68(sp)
  40e86c:	afb60040 	sw	s6,64(sp)
  40e870:	afb5003c 	sw	s5,60(sp)
  40e874:	afb40038 	sw	s4,56(sp)
  40e878:	afb30034 	sw	s3,52(sp)
  40e87c:	afb20030 	sw	s2,48(sp)
  40e880:	afb1002c 	sw	s1,44(sp)
  40e884:	afb00028 	sw	s0,40(sp)
  40e888:	afa40050 	sw	a0,80(sp)
  40e88c:	00a08821 	move	s1,a1
  40e890:	00c09021 	move	s2,a2
  40e894:	8fb50064 	lw	s5,100(sp)
  40e898:	8fb30068 	lw	s3,104(sp)
  40e89c:	8fb70060 	lw	s7,96(sp)
  40e8a0:	1080000f 	beqz	a0,40e8e0 <udp_sendto+0xe4>
  40e8a4:	00e0b021 	move	s6,a3
  40e8a8:	27a40050 	addiu	a0,sp,80
  40e8ac:	24050001 	li	a1,1
  40e8b0:	8f998020 	lw	t9,-32736(gp)
  40e8b4:	00000000 	nop
  40e8b8:	2739e348 	addiu	t9,t9,-7352
  40e8bc:	00000000 	nop
  40e8c0:	0320f809 	jalr	t9
  40e8c4:	00000000 	nop
  40e8c8:	8fbc0010 	lw	gp,16(sp)
  40e8cc:	00408021 	move	s0,v0
  40e8d0:	06010015 	bgez	s0,40e928 <udp_sendto+0x12c>
  40e8d4:	27a40018 	addiu	a0,sp,24
  40e8d8:	1000005e 	b	40ea54 <udp_sendto+0x258>
  40e8dc:	2402ffff 	li	v0,-1
  40e8e0:	24040002 	li	a0,2
  40e8e4:	24050001 	li	a1,1
  40e8e8:	00003021 	move	a2,zero
  40e8ec:	8f998050 	lw	t9,-32688(gp) <socket>
  40e8f0:	00000000 	nop
  40e8f4:	0320f809 	jalr	t9
  40e8f8:	00000000 	nop
  40e8fc:	8fbc0010 	lw	gp,16(sp)
  40e900:	00408021 	move	s0,v0
  40e904:	02002021 	move	a0,s0
  40e908:	8f998020 	lw	t9,-32736(gp)
  40e90c:	00000000 	nop
  40e910:	2739df54 	addiu	t9,t9,-8364
  40e914:	00000000 	nop
  40e918:	0320f809 	jalr	t9
  40e91c:	00000000 	nop
  40e920:	8fbc0010 	lw	gp,16(sp)
  40e924:	27a40018 	addiu	a0,sp,24
  40e928:	02202821 	move	a1,s1
  40e92c:	02403021 	move	a2,s2
  40e930:	8f998020 	lw	t9,-32736(gp)
  40e934:	00000000 	nop
  40e938:	2739d73c 	addiu	t9,t9,-10436
  40e93c:	00000000 	nop
  40e940:	0320f809 	jalr	t9
  40e944:	00000000 	nop
  40e948:	8fbc0010 	lw	gp,16(sp)
  40e94c:	1ea00002 	bgtz	s5,40e958 <udp_sendto+0x15c>
  40e950:	2a620002 	slti	v0,s3,2
  40e954:	24150001 	li	s5,1
  40e958:	10400002 	beqz	v0,40e964 <udp_sendto+0x168>
  40e95c:	00000000 	nop
  40e960:	24130002 	li	s3,2
  40e964:	1a600032 	blez	s3,40ea30 <udp_sendto+0x234>
  40e968:	00008821 	move	s1,zero
  40e96c:	02002021 	move	a0,s0
  40e970:	02c02821 	move	a1,s6
  40e974:	02e03021 	move	a2,s7
  40e978:	27a70018 	addiu	a3,sp,24
  40e97c:	8f998020 	lw	t9,-32736(gp)
  40e980:	00000000 	nop
  40e984:	2739e7fc 	addiu	t9,t9,-6148
  40e988:	00000000 	nop
  40e98c:	0320f809 	jalr	t9
  40e990:	00000000 	nop
  40e994:	8fbc0010 	lw	gp,16(sp)
  40e998:	10000002 	b	40e9a4 <udp_sendto+0x1a8>
  40e99c:	00009021 	move	s2,zero
  40e9a0:	26520001 	addiu	s2,s2,1
  40e9a4:	2a42000a 	slti	v0,s2,10
  40e9a8:	10400014 	beqz	v0,40e9fc <udp_sendto+0x200>
  40e9ac:	02002021 	move	a0,s0
  40e9b0:	02c02821 	move	a1,s6
  40e9b4:	24060100 	li	a2,256
  40e9b8:	27a70018 	addiu	a3,sp,24
  40e9bc:	8f998020 	lw	t9,-32736(gp)
  40e9c0:	00000000 	nop
  40e9c4:	2739e6dc 	addiu	t9,t9,-6436
  40e9c8:	00000000 	nop
  40e9cc:	0320f809 	jalr	t9
  40e9d0:	00000000 	nop
  40e9d4:	8fbc0010 	lw	gp,16(sp)
  40e9d8:	240400c8 	li	a0,200
  40e9dc:	0040a021 	move	s4,v0
  40e9e0:	8f9981e8 	lw	t9,-32280(gp) <sys_sleep>
  40e9e4:	00000000 	nop
  40e9e8:	0320f809 	jalr	t9
  40e9ec:	00000000 	nop
  40e9f0:	8fbc0010 	lw	gp,16(sp)
  40e9f4:	1a80ffea 	blez	s4,40e9a0 <udp_sendto+0x1a4>
  40e9f8:	00000000 	nop
  40e9fc:	1e80000c 	bgtz	s4,40ea30 <udp_sendto+0x234>
  40ea00:	240403e8 	li	a0,1000
  40ea04:	02a40018 	mult	s5,a0
  40ea08:	26310001 	addiu	s1,s1,1
  40ea0c:	00002012 	mflo	a0
  40ea10:	8f9981e8 	lw	t9,-32280(gp) <sys_sleep>
  40ea14:	00000000 	nop
  40ea18:	0320f809 	jalr	t9
  40ea1c:	00000000 	nop
  40ea20:	8fbc0010 	lw	gp,16(sp)
  40ea24:	0233102a 	slt	v0,s1,s3
  40ea28:	1440ffd1 	bnez	v0,40e970 <udp_sendto+0x174>
  40ea2c:	02002021 	move	a0,s0
  40ea30:	02002021 	move	a0,s0
  40ea34:	8f998020 	lw	t9,-32736(gp)
  40ea38:	00000000 	nop
  40ea3c:	2739e668 	addiu	t9,t9,-6552
  40ea40:	00000000 	nop
  40ea44:	0320f809 	jalr	t9
  40ea48:	00000000 	nop
  40ea4c:	8fbc0010 	lw	gp,16(sp)
  40ea50:	02801021 	move	v0,s4
  40ea54:	8fbf004c 	lw	ra,76(sp)
  40ea58:	8fb70044 	lw	s7,68(sp)
  40ea5c:	8fb60040 	lw	s6,64(sp)
  40ea60:	8fb5003c 	lw	s5,60(sp)
  40ea64:	8fb40038 	lw	s4,56(sp)
  40ea68:	8fb30034 	lw	s3,52(sp)
  40ea6c:	8fb20030 	lw	s2,48(sp)
  40ea70:	8fb1002c 	lw	s1,44(sp)
  40ea74:	8fb00028 	lw	s0,40(sp)
  40ea78:	03e00008 	jr	ra
  40ea7c:	27bd0050 	addiu	sp,sp,80
  40ea80:	3c1c0fc0 	lui	gp,0xfc0
  40ea84:	279ca810 	addiu	gp,gp,-22512
  40ea88:	0399e021 	addu	gp,gp,t9
  40ea8c:	27bdffd8 	addiu	sp,sp,-40
  40ea90:	afbc0018 	sw	gp,24(sp)
  40ea94:	afbf0024 	sw	ra,36(sp)
  40ea98:	afbc0020 	sw	gp,32(sp)
  40ea9c:	00052880 	sll	a1,a1,0x2
  40eaa0:	afa5002c 	sw	a1,44(sp)
  40eaa4:	24020004 	li	v0,4
  40eaa8:	afa20010 	sw	v0,16(sp)
  40eaac:	00002821 	move	a1,zero
  40eab0:	24060001 	li	a2,1
  40eab4:	27a7002c 	addiu	a3,sp,44
  40eab8:	8f998190 	lw	t9,-32368(gp) <setsockopt>
  40eabc:	00000000 	nop
  40eac0:	0320f809 	jalr	t9
  40eac4:	00000000 	nop
  40eac8:	8fbc0018 	lw	gp,24(sp)
  40eacc:	1040000a 	beqz	v0,40eaf8 <udp_sendto+0x2fc>
  40ead0:	00000000 	nop
  40ead4:	8fa5002c 	lw	a1,44(sp)
  40ead8:	8f848020 	lw	a0,-32736(gp)
  40eadc:	00000000 	nop
  40eae0:	24844d30 	addiu	a0,a0,19760		# "Set TOS fail: tos(%.4X)!"
  40eae4:	8f998154 	lw	t9,-32428(gp) <act_printf>
  40eae8:	00000000 	nop
  40eaec:	0320f809 	jalr	t9
  40eaf0:	00000000 	nop
  40eaf4:	8fbc0018 	lw	gp,24(sp)
  40eaf8:	8fbf0024 	lw	ra,36(sp)
  40eafc:	00000000 	nop
  40eb00:	03e00008 	jr	ra
  40eb04:	27bd0028 	addiu	sp,sp,40

0040eb08 <get_all_if>:
  40eb08:	3c1c0fc0 	lui	gp,0xfc0
  40eb0c:	279ca788 	addiu	gp,gp,-22648
  40eb10:	0399e021 	addu	gp,gp,t9
  40eb14:	27bdff78 	addiu	sp,sp,-136
  40eb18:	afbc0010 	sw	gp,16(sp)
  40eb1c:	afbf0084 	sw	ra,132(sp)
  40eb20:	afbc0080 	sw	gp,128(sp)
  40eb24:	afb5007c 	sw	s5,124(sp)
  40eb28:	afb40078 	sw	s4,120(sp)
  40eb2c:	afb30074 	sw	s3,116(sp)
  40eb30:	afb20070 	sw	s2,112(sp)
  40eb34:	afb1006c 	sw	s1,108(sp)
  40eb38:	afb00068 	sw	s0,104(sp)
  40eb3c:	8f81801c 	lw	at,-32740(gp)
  40eb40:	00000000 	nop
  40eb44:	2421124c 	addiu	at,at,4684
  40eb48:	ac200000 	sw	zero,0(at)
  40eb4c:	8f958104 	lw	s5,-32508(gp)
  40eb50:	00000000 	nop
  40eb54:	02a02021 	move	a0,s5
  40eb58:	00002821 	move	a1,zero
  40eb5c:	240602bc 	li	a2,700
  40eb60:	8f998090 	lw	t9,-32624(gp) <memset>
  40eb64:	00000000 	nop
  40eb68:	0320f809 	jalr	t9
  40eb6c:	00000000 	nop
  40eb70:	8fbc0010 	lw	gp,16(sp)
  40eb74:	24040002 	li	a0,2
  40eb78:	24050001 	li	a1,1
  40eb7c:	00003021 	move	a2,zero
  40eb80:	8f998050 	lw	t9,-32688(gp) <socket>
  40eb84:	00000000 	nop
  40eb88:	0320f809 	jalr	t9
  40eb8c:	00000000 	nop
  40eb90:	8fbc0010 	lw	gp,16(sp)
  40eb94:	00409821 	move	s3,v0
  40eb98:	06610003 	bgez	s3,40eba8 <get_all_if+0xa0>
  40eb9c:	27b00018 	addiu	s0,sp,24
  40eba0:	100000bc 	b	40ee94 <get_all_if+0x38c>
  40eba4:	2402ffff 	li	v0,-1
  40eba8:	02002021 	move	a0,s0
  40ebac:	00002821 	move	a1,zero
  40ebb0:	24060008 	li	a2,8
  40ebb4:	8f998090 	lw	t9,-32624(gp) <memset>
  40ebb8:	00000000 	nop
  40ebbc:	0320f809 	jalr	t9
  40ebc0:	00000000 	nop
  40ebc4:	8fbc0010 	lw	gp,16(sp)
  40ebc8:	24020400 	li	v0,1024
  40ebcc:	afa20018 	sw	v0,24(sp)
  40ebd0:	24040400 	li	a0,1024
  40ebd4:	8f9981d4 	lw	t9,-32300(gp) <malloc>
  40ebd8:	00000000 	nop
  40ebdc:	0320f809 	jalr	t9
  40ebe0:	00000000 	nop
  40ebe4:	8fbc0010 	lw	gp,16(sp)
  40ebe8:	afa2001c 	sw	v0,28(sp)
  40ebec:	02602021 	move	a0,s3
  40ebf0:	34058912 	li	a1,0x8912
  40ebf4:	02003021 	move	a2,s0
  40ebf8:	8f998094 	lw	t9,-32620(gp) <ioctl>
  40ebfc:	00000000 	nop
  40ec00:	0320f809 	jalr	t9
  40ec04:	00000000 	nop
  40ec08:	8fbc0010 	lw	gp,16(sp)
  40ec0c:	04410017 	bgez	v0,40ec6c <get_all_if+0x164>
  40ec10:	00000000 	nop
  40ec14:	8f848020 	lw	a0,-32736(gp)
  40ec18:	00000000 	nop
  40ec1c:	24844d4c 	addiu	a0,a0,19788		# "ERROR: SIOCGIFCONF"
  40ec20:	8f998154 	lw	t9,-32428(gp) <act_printf>
  40ec24:	00000000 	nop
  40ec28:	0320f809 	jalr	t9
  40ec2c:	00000000 	nop
  40ec30:	8fbc0010 	lw	gp,16(sp)
  40ec34:	8fa4001c 	lw	a0,28(sp)
  40ec38:	8f998098 	lw	t9,-32616(gp) <free>
  40ec3c:	00000000 	nop
  40ec40:	0320f809 	jalr	t9
  40ec44:	00000000 	nop
  40ec48:	8fbc0010 	lw	gp,16(sp)
  40ec4c:	02602021 	move	a0,s3
  40ec50:	8f998238 	lw	t9,-32200(gp) <close>
  40ec54:	00000000 	nop
  40ec58:	0320f809 	jalr	t9
  40ec5c:	00000000 	nop
  40ec60:	8fbc0010 	lw	gp,16(sp)
  40ec64:	1000008b 	b	40ee94 <get_all_if+0x38c>
  40ec68:	2402ffff 	li	v0,-1
  40ec6c:	8fa20018 	lw	v0,24(sp)
  40ec70:	8fb1001c 	lw	s1,28(sp)
  40ec74:	1840006d 	blez	v0,40ee2c <get_all_if+0x324>
  40ec78:	0000a021 	move	s4,zero
  40ec7c:	a3a00040 	sb	zero,64(sp)
  40ec80:	8e240014 	lw	a0,20(s1)
  40ec84:	8f9981e4 	lw	t9,-32284(gp) <inet_ntoa>
  40ec88:	00000000 	nop
  40ec8c:	0320f809 	jalr	t9
  40ec90:	00000000 	nop
  40ec94:	8fbc0010 	lw	gp,16(sp)
  40ec98:	10400007 	beqz	v0,40ecb8 <get_all_if+0x1b0>
  40ec9c:	27a40040 	addiu	a0,sp,64
  40eca0:	00402821 	move	a1,v0
  40eca4:	8f998030 	lw	t9,-32720(gp) <strcpy>
  40eca8:	00000000 	nop
  40ecac:	0320f809 	jalr	t9
  40ecb0:	00000000 	nop
  40ecb4:	8fbc0010 	lw	gp,16(sp)
  40ecb8:	27b20020 	addiu	s2,sp,32
  40ecbc:	02402021 	move	a0,s2
  40ecc0:	02202821 	move	a1,s1
  40ecc4:	8f998030 	lw	t9,-32720(gp) <strcpy>
  40ecc8:	00000000 	nop
  40eccc:	0320f809 	jalr	t9
  40ecd0:	00000000 	nop
  40ecd4:	8fbc0010 	lw	gp,16(sp)
  40ecd8:	27a40060 	addiu	a0,sp,96
  40ecdc:	00002821 	move	a1,zero
  40ece0:	24060006 	li	a2,6
  40ece4:	8f998090 	lw	t9,-32624(gp) <memset>
  40ece8:	00000000 	nop
  40ecec:	0320f809 	jalr	t9
  40ecf0:	00000000 	nop
  40ecf4:	8fbc0010 	lw	gp,16(sp)
  40ecf8:	02602021 	move	a0,s3
  40ecfc:	34058927 	li	a1,0x8927
  40ed00:	02203021 	move	a2,s1
  40ed04:	8f998094 	lw	t9,-32620(gp) <ioctl>
  40ed08:	00000000 	nop
  40ed0c:	0320f809 	jalr	t9
  40ed10:	00000000 	nop
  40ed14:	8fbc0010 	lw	gp,16(sp)
  40ed18:	14400007 	bnez	v0,40ed38 <get_all_if+0x230>
  40ed1c:	00000000 	nop
  40ed20:	86220012 	lh	v0,18(s1)
  40ed24:	86230014 	lh	v1,20(s1)
  40ed28:	86240016 	lh	a0,22(s1)
  40ed2c:	a7a20060 	sh	v0,96(sp)
  40ed30:	a7a30062 	sh	v1,98(sp)
  40ed34:	a7a40064 	sh	a0,100(sp)
  40ed38:	8f84801c 	lw	a0,-32740(gp)
  40ed3c:	00000000 	nop
  40ed40:	2484124c 	addiu	a0,a0,4684
  40ed44:	8c840000 	lw	a0,0(a0)
  40ed48:	24100046 	li	s0,70
  40ed4c:	00900018 	mult	a0,s0
  40ed50:	02402821 	move	a1,s2
  40ed54:	00002012 	mflo	a0
  40ed58:	00952021 	addu	a0,a0,s5
  40ed5c:	8f998030 	lw	t9,-32720(gp) <strcpy>
  40ed60:	00000000 	nop
  40ed64:	0320f809 	jalr	t9
  40ed68:	00000000 	nop
  40ed6c:	8fbc0010 	lw	gp,16(sp)
  40ed70:	00000000 	nop
  40ed74:	8f82801c 	lw	v0,-32740(gp)
  40ed78:	00000000 	nop
  40ed7c:	2442124c 	addiu	v0,v0,4684
  40ed80:	8c420000 	lw	v0,0(v0)
  40ed84:	00000000 	nop
  40ed88:	00500018 	mult	v0,s0
  40ed8c:	27a50040 	addiu	a1,sp,64
  40ed90:	26a40026 	addiu	a0,s5,38
  40ed94:	00001012 	mflo	v0
  40ed98:	00442021 	addu	a0,v0,a0
  40ed9c:	8f998030 	lw	t9,-32720(gp) <strcpy>
  40eda0:	00000000 	nop
  40eda4:	0320f809 	jalr	t9
  40eda8:	00000000 	nop
  40edac:	8fbc0010 	lw	gp,16(sp)
  40edb0:	00000000 	nop
  40edb4:	8f82801c 	lw	v0,-32740(gp)
  40edb8:	00000000 	nop
  40edbc:	2442124c 	addiu	v0,v0,4684
  40edc0:	8c420000 	lw	v0,0(v0)
  40edc4:	26940020 	addiu	s4,s4,32
  40edc8:	00500018 	mult	v0,s0
  40edcc:	24420001 	addiu	v0,v0,1
  40edd0:	8f81801c 	lw	at,-32740(gp)
  40edd4:	00000000 	nop
  40edd8:	2421124c 	addiu	at,at,4684
  40eddc:	ac220000 	sw	v0,0(at)
  40ede0:	26a20020 	addiu	v0,s5,32
  40ede4:	00008012 	mflo	s0
  40ede8:	02028021 	addu	s0,s0,v0
  40edec:	8fa20018 	lw	v0,24(sp)
  40edf0:	83a30060 	lb	v1,96(sp)
  40edf4:	83a40061 	lb	a0,97(sp)
  40edf8:	83a50062 	lb	a1,98(sp)
  40edfc:	83a60063 	lb	a2,99(sp)
  40ee00:	a2030000 	sb	v1,0(s0)
  40ee04:	a2040001 	sb	a0,1(s0)
  40ee08:	a2050002 	sb	a1,2(s0)
  40ee0c:	a2060003 	sb	a2,3(s0)
  40ee10:	83a30064 	lb	v1,100(sp)
  40ee14:	83a40065 	lb	a0,101(sp)
  40ee18:	a2030004 	sb	v1,4(s0)
  40ee1c:	a2040005 	sb	a0,5(s0)
  40ee20:	0282102a 	slt	v0,s4,v0
  40ee24:	1440ff95 	bnez	v0,40ec7c <get_all_if+0x174>
  40ee28:	26310020 	addiu	s1,s1,32
  40ee2c:	8fa4001c 	lw	a0,28(sp)
  40ee30:	8f998098 	lw	t9,-32616(gp) <free>
  40ee34:	00000000 	nop
  40ee38:	0320f809 	jalr	t9
  40ee3c:	00000000 	nop
  40ee40:	8fbc0010 	lw	gp,16(sp)
  40ee44:	02602021 	move	a0,s3
  40ee48:	8f998238 	lw	t9,-32200(gp) <close>
  40ee4c:	00000000 	nop
  40ee50:	0320f809 	jalr	t9
  40ee54:	00000000 	nop
  40ee58:	8fbc0010 	lw	gp,16(sp)
  40ee5c:	00000000 	nop
  40ee60:	8f85801c 	lw	a1,-32740(gp)
  40ee64:	00000000 	nop
  40ee68:	24a5124c 	addiu	a1,a1,4684
  40ee6c:	8ca50000 	lw	a1,0(a1)
  40ee70:	8f848020 	lw	a0,-32736(gp)
  40ee74:	00000000 	nop
  40ee78:	24844d60 	addiu	a0,a0,19808		# "total if=%d"
  40ee7c:	8f998154 	lw	t9,-32428(gp) <act_printf>
  40ee80:	00000000 	nop
  40ee84:	0320f809 	jalr	t9
  40ee88:	00000000 	nop
  40ee8c:	8fbc0010 	lw	gp,16(sp)
  40ee90:	00001021 	move	v0,zero
  40ee94:	8fbf0084 	lw	ra,132(sp)
  40ee98:	8fb5007c 	lw	s5,124(sp)
  40ee9c:	8fb40078 	lw	s4,120(sp)
  40eea0:	8fb30074 	lw	s3,116(sp)
  40eea4:	8fb20070 	lw	s2,112(sp)
  40eea8:	8fb1006c 	lw	s1,108(sp)
  40eeac:	8fb00068 	lw	s0,104(sp)
  40eeb0:	03e00008 	jr	ra
  40eeb4:	27bd0088 	addiu	sp,sp,136

0040eeb8 <get_if_mac>:
  40eeb8:	3c1c0fc0 	lui	gp,0xfc0
  40eebc:	279ca3d8 	addiu	gp,gp,-23592
  40eec0:	0399e021 	addu	gp,gp,t9
  40eec4:	27bdffb0 	addiu	sp,sp,-80
  40eec8:	afbc0010 	sw	gp,16(sp)
  40eecc:	afbf0048 	sw	ra,72(sp)
  40eed0:	afbc0044 	sw	gp,68(sp)
  40eed4:	afb20040 	sw	s2,64(sp)
  40eed8:	afb1003c 	sw	s1,60(sp)
  40eedc:	afb00038 	sw	s0,56(sp)
  40eee0:	00808821 	move	s1,a0
  40eee4:	00a09021 	move	s2,a1
  40eee8:	02402021 	move	a0,s2
  40eeec:	00002821 	move	a1,zero
  40eef0:	24060006 	li	a2,6
  40eef4:	8f998090 	lw	t9,-32624(gp) <memset>
  40eef8:	00000000 	nop
  40eefc:	0320f809 	jalr	t9
  40ef00:	00000000 	nop
  40ef04:	8fbc0010 	lw	gp,16(sp)
  40ef08:	24040002 	li	a0,2
  40ef0c:	24050001 	li	a1,1
  40ef10:	00003021 	move	a2,zero
  40ef14:	8f998050 	lw	t9,-32688(gp) <socket>
  40ef18:	00000000 	nop
  40ef1c:	0320f809 	jalr	t9
  40ef20:	00000000 	nop
  40ef24:	8fbc0010 	lw	gp,16(sp)
  40ef28:	00408021 	move	s0,v0
  40ef2c:	06000011 	bltz	s0,40ef74 <get_if_mac+0xbc>
  40ef30:	27a40018 	addiu	a0,sp,24
  40ef34:	02202821 	move	a1,s1
  40ef38:	8f998030 	lw	t9,-32720(gp) <strcpy>
  40ef3c:	00000000 	nop
  40ef40:	0320f809 	jalr	t9
  40ef44:	00000000 	nop
  40ef48:	8fbc0010 	lw	gp,16(sp)
  40ef4c:	02002021 	move	a0,s0
  40ef50:	34058913 	li	a1,0x8913
  40ef54:	27a60018 	addiu	a2,sp,24
  40ef58:	8f998094 	lw	t9,-32620(gp) <ioctl>
  40ef5c:	00000000 	nop
  40ef60:	0320f809 	jalr	t9
  40ef64:	00000000 	nop
  40ef68:	8fbc0010 	lw	gp,16(sp)
  40ef6c:	04410003 	bgez	v0,40ef7c <get_if_mac+0xc4>
  40ef70:	27a40018 	addiu	a0,sp,24
  40ef74:	10000023 	b	40f004 <get_if_mac+0x14c>
  40ef78:	2402ffff 	li	v0,-1
  40ef7c:	02202821 	move	a1,s1
  40ef80:	8f998030 	lw	t9,-32720(gp) <strcpy>
  40ef84:	00000000 	nop
  40ef88:	0320f809 	jalr	t9
  40ef8c:	00000000 	nop
  40ef90:	8fbc0010 	lw	gp,16(sp)
  40ef94:	02002021 	move	a0,s0
  40ef98:	34058927 	li	a1,0x8927
  40ef9c:	27a60018 	addiu	a2,sp,24
  40efa0:	8f998094 	lw	t9,-32620(gp) <ioctl>
  40efa4:	00000000 	nop
  40efa8:	0320f809 	jalr	t9
  40efac:	00000000 	nop
  40efb0:	8fbc0010 	lw	gp,16(sp)
  40efb4:	1440000e 	bnez	v0,40eff0 <get_if_mac+0x138>
  40efb8:	02002021 	move	a0,s0
  40efbc:	83a2002a 	lb	v0,42(sp)
  40efc0:	83a3002b 	lb	v1,43(sp)
  40efc4:	83a4002c 	lb	a0,44(sp)
  40efc8:	83a5002d 	lb	a1,45(sp)
  40efcc:	a2420000 	sb	v0,0(s2)
  40efd0:	a2430001 	sb	v1,1(s2)
  40efd4:	a2440002 	sb	a0,2(s2)
  40efd8:	a2450003 	sb	a1,3(s2)
  40efdc:	83a2002e 	lb	v0,46(sp)
  40efe0:	83a3002f 	lb	v1,47(sp)
  40efe4:	a2420004 	sb	v0,4(s2)
  40efe8:	a2430005 	sb	v1,5(s2)
  40efec:	02002021 	move	a0,s0
  40eff0:	8f998238 	lw	t9,-32200(gp) <close>
  40eff4:	00000000 	nop
  40eff8:	0320f809 	jalr	t9
  40effc:	00000000 	nop
  40f000:	8fbc0010 	lw	gp,16(sp)
  40f004:	8fbf0048 	lw	ra,72(sp)
  40f008:	8fb20040 	lw	s2,64(sp)
  40f00c:	8fb1003c 	lw	s1,60(sp)
  40f010:	8fb00038 	lw	s0,56(sp)
  40f014:	03e00008 	jr	ra
  40f018:	27bd0050 	addiu	sp,sp,80
  40f01c:	3c1c0fc0 	lui	gp,0xfc0
  40f020:	279ca274 	addiu	gp,gp,-23948
  40f024:	0399e021 	addu	gp,gp,t9
  40f028:	27bdffd0 	addiu	sp,sp,-48
  40f02c:	afbc0010 	sw	gp,16(sp)
  40f030:	afbf0028 	sw	ra,40(sp)
  40f034:	afbc0024 	sw	gp,36(sp)
  40f038:	afb20020 	sw	s2,32(sp)
  40f03c:	afb1001c 	sw	s1,28(sp)
  40f040:	afb00018 	sw	s0,24(sp)
  40f044:	00808821 	move	s1,a0
  40f048:	8f82801c 	lw	v0,-32740(gp)
  40f04c:	00000000 	nop
  40f050:	2442124c 	addiu	v0,v0,4684
  40f054:	8c420000 	lw	v0,0(v0)
  40f058:	00000000 	nop
  40f05c:	1040002e 	beqz	v0,40f118 <get_if_mac+0x260>
  40f060:	00a09021 	move	s2,a1
  40f064:	10000007 	b	40f084 <get_if_mac+0x1cc>
  40f068:	00008021 	move	s0,zero
  40f06c:	26100001 	addiu	s0,s0,1
  40f070:	8f82801c 	lw	v0,-32740(gp)
  40f074:	00000000 	nop
  40f078:	2442124c 	addiu	v0,v0,4684
  40f07c:	8c420000 	lw	v0,0(v0)
  40f080:	00000000 	nop
  40f084:	0202102a 	slt	v0,s0,v0
  40f088:	1040000e 	beqz	v0,40f0c4 <get_if_mac+0x20c>
  40f08c:	24040046 	li	a0,70
  40f090:	02040018 	mult	s0,a0
  40f094:	02202821 	move	a1,s1
  40f098:	00002012 	mflo	a0
  40f09c:	8f818104 	lw	at,-32508(gp)
  40f0a0:	00000000 	nop
  40f0a4:	00242021 	addu	a0,at,a0
  40f0a8:	8f9981f4 	lw	t9,-32268(gp) <my_stricmp>
  40f0ac:	00000000 	nop
  40f0b0:	0320f809 	jalr	t9
  40f0b4:	00000000 	nop
  40f0b8:	8fbc0010 	lw	gp,16(sp)
  40f0bc:	1440ffeb 	bnez	v0,40f06c <get_if_mac+0x1b4>
  40f0c0:	00000000 	nop
  40f0c4:	8f82801c 	lw	v0,-32740(gp)
  40f0c8:	00000000 	nop
  40f0cc:	2442124c 	addiu	v0,v0,4684
  40f0d0:	8c420000 	lw	v0,0(v0)
  40f0d4:	00000000 	nop
  40f0d8:	1202000f 	beq	s0,v0,40f118 <get_if_mac+0x260>
  40f0dc:	24050046 	li	a1,70
  40f0e0:	02050018 	mult	s0,a1
  40f0e4:	02402021 	move	a0,s2
  40f0e8:	00002812 	mflo	a1
  40f0ec:	8f818104 	lw	at,-32508(gp)
  40f0f0:	00000000 	nop
  40f0f4:	24210026 	addiu	at,at,38
  40f0f8:	00252821 	addu	a1,at,a1
  40f0fc:	8f998030 	lw	t9,-32720(gp) <strcpy>
  40f100:	00000000 	nop
  40f104:	0320f809 	jalr	t9
  40f108:	00000000 	nop
  40f10c:	8fbc0010 	lw	gp,16(sp)
  40f110:	10000002 	b	40f11c <get_if_mac+0x264>
  40f114:	00001021 	move	v0,zero
  40f118:	2402ffff 	li	v0,-1
  40f11c:	8fbf0028 	lw	ra,40(sp)
  40f120:	8fb20020 	lw	s2,32(sp)
  40f124:	8fb1001c 	lw	s1,28(sp)
  40f128:	8fb00018 	lw	s0,24(sp)
  40f12c:	03e00008 	jr	ra
  40f130:	27bd0030 	addiu	sp,sp,48
  40f134:	3c1c0fc0 	lui	gp,0xfc0
  40f138:	279ca15c 	addiu	gp,gp,-24228
  40f13c:	0399e021 	addu	gp,gp,t9
  40f140:	27bdffb0 	addiu	sp,sp,-80
  40f144:	afbc0018 	sw	gp,24(sp)
  40f148:	afbf0048 	sw	ra,72(sp)
  40f14c:	afbc0044 	sw	gp,68(sp)
  40f150:	afb20040 	sw	s2,64(sp)
  40f154:	afb1003c 	sw	s1,60(sp)
  40f158:	afb00038 	sw	s0,56(sp)
  40f15c:	24020001 	li	v0,1
  40f160:	afa20030 	sw	v0,48(sp)
  40f164:	00808821 	move	s1,a0
  40f168:	27a40020 	addiu	a0,sp,32
  40f16c:	00a09021 	move	s2,a1
  40f170:	8e260000 	lw	a2,0(s1)
  40f174:	00002821 	move	a1,zero
  40f178:	8f998020 	lw	t9,-32736(gp)
  40f17c:	00000000 	nop
  40f180:	2739d73c 	addiu	t9,t9,-10436
  40f184:	00000000 	nop
  40f188:	0320f809 	jalr	t9
  40f18c:	00000000 	nop
  40f190:	8fbc0018 	lw	gp,24(sp)
  40f194:	04410003 	bgez	v0,40f1a4 <get_if_mac+0x2ec>
  40f198:	24040002 	li	a0,2
  40f19c:	10000049 	b	40f2c4 <get_if_mac+0x40c>
  40f1a0:	2402ffff 	li	v0,-1
  40f1a4:	24050001 	li	a1,1
  40f1a8:	00003021 	move	a2,zero
  40f1ac:	8f998050 	lw	t9,-32688(gp) <socket>
  40f1b0:	00000000 	nop
  40f1b4:	0320f809 	jalr	t9
  40f1b8:	00000000 	nop
  40f1bc:	8fbc0018 	lw	gp,24(sp)
  40f1c0:	24030004 	li	v1,4
  40f1c4:	afa30010 	sw	v1,16(sp)
  40f1c8:	00408021 	move	s0,v0
  40f1cc:	02002021 	move	a0,s0
  40f1d0:	3405ffff 	li	a1,0xffff
  40f1d4:	24060004 	li	a2,4
  40f1d8:	27a70030 	addiu	a3,sp,48
  40f1dc:	8f998190 	lw	t9,-32368(gp) <setsockopt>
  40f1e0:	00000000 	nop
  40f1e4:	0320f809 	jalr	t9
  40f1e8:	00000000 	nop
  40f1ec:	8fbc0018 	lw	gp,24(sp)
  40f1f0:	10400008 	beqz	v0,40f214 <get_if_mac+0x35c>
  40f1f4:	02002021 	move	a0,s0
  40f1f8:	8f998238 	lw	t9,-32200(gp) <close>
  40f1fc:	00000000 	nop
  40f200:	0320f809 	jalr	t9
  40f204:	00000000 	nop
  40f208:	8fbc0018 	lw	gp,24(sp)
  40f20c:	1000002d 	b	40f2c4 <get_if_mac+0x40c>
  40f210:	2402fffd 	li	v0,-3
  40f214:	afa00024 	sw	zero,36(sp)
  40f218:	00003021 	move	a2,zero
  40f21c:	8fa50020 	lw	a1,32(sp)
  40f220:	8fa2002c 	lw	v0,44(sp)
  40f224:	8fa70028 	lw	a3,40(sp)
  40f228:	afa20010 	sw	v0,16(sp)
  40f22c:	8f998020 	lw	t9,-32736(gp)
  40f230:	00000000 	nop
  40f234:	2739d57c 	addiu	t9,t9,-10884
  40f238:	00000000 	nop
  40f23c:	0320f809 	jalr	t9
  40f240:	00000000 	nop
  40f244:	8fbc0018 	lw	gp,24(sp)
  40f248:	04410008 	bgez	v0,40f26c <get_if_mac+0x3b4>
  40f24c:	02002021 	move	a0,s0
  40f250:	8f998238 	lw	t9,-32200(gp) <close>
  40f254:	00000000 	nop
  40f258:	0320f809 	jalr	t9
  40f25c:	00000000 	nop
  40f260:	8fbc0018 	lw	gp,24(sp)
  40f264:	10000017 	b	40f2c4 <get_if_mac+0x40c>
  40f268:	2402fffe 	li	v0,-2
  40f26c:	97a20022 	lhu	v0,34(sp)
  40f270:	1240000b 	beqz	s2,40f2a0 <get_if_mac+0x3e8>
  40f274:	ae220000 	sw	v0,0(s1)
  40f278:	02002021 	move	a0,s0
  40f27c:	8f998020 	lw	t9,-32736(gp)
  40f280:	00000000 	nop
  40f284:	2739df54 	addiu	t9,t9,-8364
  40f288:	00000000 	nop
  40f28c:	0320f809 	jalr	t9
  40f290:	00000000 	nop
  40f294:	8fbc0018 	lw	gp,24(sp)
  40f298:	1000000a 	b	40f2c4 <get_if_mac+0x40c>
  40f29c:	02001021 	move	v0,s0
  40f2a0:	02002021 	move	a0,s0
  40f2a4:	8f998020 	lw	t9,-32736(gp)
  40f2a8:	00000000 	nop
  40f2ac:	2739dfc8 	addiu	t9,t9,-8248
  40f2b0:	00000000 	nop
  40f2b4:	0320f809 	jalr	t9
  40f2b8:	00000000 	nop
  40f2bc:	8fbc0018 	lw	gp,24(sp)
  40f2c0:	02001021 	move	v0,s0
  40f2c4:	8fbf0048 	lw	ra,72(sp)
  40f2c8:	8fb20040 	lw	s2,64(sp)
  40f2cc:	8fb1003c 	lw	s1,60(sp)
  40f2d0:	8fb00038 	lw	s0,56(sp)
  40f2d4:	03e00008 	jr	ra
  40f2d8:	27bd0050 	addiu	sp,sp,80
  40f2dc:	00000000 	nop
  40f2e0:	3c1c0fc0 	lui	gp,0xfc0
  40f2e4:	279c9fb0 	addiu	gp,gp,-24656
  40f2e8:	0399e021 	addu	gp,gp,t9
  40f2ec:	27bdffd8 	addiu	sp,sp,-40
  40f2f0:	afbc0010 	sw	gp,16(sp)
  40f2f4:	afbf0020 	sw	ra,32(sp)
  40f2f8:	afbc001c 	sw	gp,28(sp)
  40f2fc:	afb00018 	sw	s0,24(sp)
  40f300:	00052840 	sll	a1,a1,0x1
  40f304:	2ca20002 	sltiu	v0,a1,2
  40f308:	14400007 	bnez	v0,40f328 <get_if_mac+0x470>
  40f30c:	00001821 	move	v1,zero
  40f310:	94820000 	lhu	v0,0(a0)
  40f314:	24a5fffe 	addiu	a1,a1,-2
  40f318:	00621821 	addu	v1,v1,v0
  40f31c:	2ca20002 	sltiu	v0,a1,2
  40f320:	1040fffb 	beqz	v0,40f310 <get_if_mac+0x458>
  40f324:	24840002 	addiu	a0,a0,2
  40f328:	10a00007 	beqz	a1,40f348 <get_if_mac+0x490>
  40f32c:	00031403 	sra	v0,v1,0x10
  40f330:	90820000 	lbu	v0,0(a0)
  40f334:	10000003 	b	40f344 <get_if_mac+0x48c>
  40f338:	00621821 	addu	v1,v1,v0
  40f33c:	00031c03 	sra	v1,v1,0x10
  40f340:	00431821 	addu	v1,v0,v1
  40f344:	00031403 	sra	v0,v1,0x10
  40f348:	1440fffc 	bnez	v0,40f33c <get_if_mac+0x484>
  40f34c:	3062ffff 	andi	v0,v1,0xffff
  40f350:	3070ffff 	andi	s0,v1,0xffff
  40f354:	8f848020 	lw	a0,-32736(gp)
  40f358:	00000000 	nop
  40f35c:	24844d70 	addiu	a0,a0,19824		# "check sum=%08x"
  40f360:	02002821 	move	a1,s0
  40f364:	8f998100 	lw	t9,-32512(gp) <printf>
  40f368:	00000000 	nop
  40f36c:	0320f809 	jalr	t9
  40f370:	00000000 	nop
  40f374:	8fbc0010 	lw	gp,16(sp)
  40f378:	02001021 	move	v0,s0
  40f37c:	8fbf0020 	lw	ra,32(sp)
  40f380:	8fb00018 	lw	s0,24(sp)
  40f384:	03e00008 	jr	ra
  40f388:	27bd0028 	addiu	sp,sp,40
  40f38c:	3c1c0fc0 	lui	gp,0xfc0
  40f390:	279c9f04 	addiu	gp,gp,-24828
  40f394:	0399e021 	addu	gp,gp,t9
  40f398:	27bdc388 	addiu	sp,sp,-15480
  40f39c:	afbc0010 	sw	gp,16(sp)
  40f3a0:	afbf3c70 	sw	ra,15472(sp)
  40f3a4:	afbc3c6c 	sw	gp,15468(sp)
  40f3a8:	afb23c68 	sw	s2,15464(sp)
  40f3ac:	afb13c64 	sw	s1,15460(sp)
  40f3b0:	afb03c60 	sw	s0,15456(sp)
  40f3b4:	00808021 	move	s0,a0
  40f3b8:	00a08821 	move	s1,a1
  40f3bc:	00002821 	move	a1,zero
  40f3c0:	00003021 	move	a2,zero
  40f3c4:	8f9980f4 	lw	t9,-32524(gp) <lseek>
  40f3c8:	00000000 	nop
  40f3cc:	0320f809 	jalr	t9
  40f3d0:	00000000 	nop
  40f3d4:	8fbc0010 	lw	gp,16(sp)
  40f3d8:	04410009 	bgez	v0,40f400 <get_if_mac+0x548>
  40f3dc:	02002021 	move	a0,s0
  40f3e0:	8f84819c 	lw	a0,-32356(gp)
  40f3e4:	00000000 	nop
  40f3e8:	8c840000 	lw	a0,0(a0)
  40f3ec:	8f858020 	lw	a1,-32736(gp)
  40f3f0:	00000000 	nop
  40f3f4:	24a54d80 	addiu	a1,a1,19840		# "saveFactoryDefault: Flash SEEK_0 Failed!!"
  40f3f8:	100000aa 	b	40f6a4 <get_if_mac+0x7ec>
  40f3fc:	00000000 	nop
  40f400:	3c05003f 	lui	a1,0x3f
  40f404:	34a5c400 	ori	a1,a1,0xc400
  40f408:	00003021 	move	a2,zero
  40f40c:	8f9980f4 	lw	t9,-32524(gp) <lseek>
  40f410:	00000000 	nop
  40f414:	0320f809 	jalr	t9
  40f418:	00000000 	nop
  40f41c:	8fbc0010 	lw	gp,16(sp)
  40f420:	04410009 	bgez	v0,40f448 <get_if_mac+0x590>
  40f424:	02002021 	move	a0,s0
  40f428:	8f84819c 	lw	a0,-32356(gp)
  40f42c:	00000000 	nop
  40f430:	8c840000 	lw	a0,0(a0)
  40f434:	8f858020 	lw	a1,-32736(gp)
  40f438:	00000000 	nop
  40f43c:	24a54dac 	addiu	a1,a1,19884		# "saveFactoryDefault: Flash SEEK_1 Failed!!"
  40f440:	10000098 	b	40f6a4 <get_if_mac+0x7ec>
  40f444:	00000000 	nop
  40f448:	27b20058 	addiu	s2,sp,88
  40f44c:	02402821 	move	a1,s2
  40f450:	24063c00 	li	a2,15360
  40f454:	8f998048 	lw	t9,-32696(gp) <read>
  40f458:	00000000 	nop
  40f45c:	0320f809 	jalr	t9
  40f460:	00000000 	nop
  40f464:	8fbc0010 	lw	gp,16(sp)
  40f468:	04410009 	bgez	v0,40f490 <get_if_mac+0x5d8>
  40f46c:	26240010 	addiu	a0,s1,16
  40f470:	8f84819c 	lw	a0,-32356(gp)
  40f474:	00000000 	nop
  40f478:	8c840000 	lw	a0,0(a0)
  40f47c:	8f858020 	lw	a1,-32736(gp)
  40f480:	00000000 	nop
  40f484:	24a54dd8 	addiu	a1,a1,19928		# "saveFactoryDefault: backup Failed!!"
  40f488:	10000086 	b	40f6a4 <get_if_mac+0x7ec>
  40f48c:	00000000 	nop
  40f490:	a620000a 	sh	zero,10(s1)
  40f494:	96250004 	lhu	a1,4(s1)
  40f498:	00000000 	nop
  40f49c:	00052842 	srl	a1,a1,0x1
  40f4a0:	8f998020 	lw	t9,-32736(gp)
  40f4a4:	00000000 	nop
  40f4a8:	2739f2e0 	addiu	t9,t9,-3360
  40f4ac:	00000000 	nop
  40f4b0:	0320f809 	jalr	t9
  40f4b4:	00000000 	nop
  40f4b8:	8fbc0010 	lw	gp,16(sp)
  40f4bc:	a622000c 	sh	v0,12(s1)
  40f4c0:	02202021 	move	a0,s1
  40f4c4:	24050008 	li	a1,8
  40f4c8:	8f998020 	lw	t9,-32736(gp)
  40f4cc:	00000000 	nop
  40f4d0:	2739f2e0 	addiu	t9,t9,-3360
  40f4d4:	00000000 	nop
  40f4d8:	0320f809 	jalr	t9
  40f4dc:	00000000 	nop
  40f4e0:	8fbc0010 	lw	gp,16(sp)
  40f4e4:	00021027 	nor	v0,zero,v0
  40f4e8:	a622000a 	sh	v0,10(s1)
  40f4ec:	24020010 	li	v0,16
  40f4f0:	afa20030 	sw	v0,48(sp)
  40f4f4:	02002021 	move	a0,s0
  40f4f8:	3c054004 	lui	a1,0x4004
  40f4fc:	34a56601 	ori	a1,a1,0x6601
  40f500:	27a60018 	addiu	a2,sp,24
  40f504:	8f998094 	lw	t9,-32620(gp) <ioctl>
  40f508:	00000000 	nop
  40f50c:	0320f809 	jalr	t9
  40f510:	00000000 	nop
  40f514:	8fbc0010 	lw	gp,16(sp)
  40f518:	04410009 	bgez	v0,40f540 <get_if_mac+0x688>
  40f51c:	02002021 	move	a0,s0
  40f520:	8f84819c 	lw	a0,-32356(gp)
  40f524:	00000000 	nop
  40f528:	8c840000 	lw	a0,0(a0)
  40f52c:	8f858020 	lw	a1,-32736(gp)
  40f530:	00000000 	nop
  40f534:	24a54e00 	addiu	a1,a1,19968		# "Get factory_default failure !"
  40f538:	1000005a 	b	40f6a4 <get_if_mac+0x7ec>
  40f53c:	00000000 	nop
  40f540:	3c054004 	lui	a1,0x4004
  40f544:	34a56602 	ori	a1,a1,0x6602
  40f548:	27a63c58 	addiu	a2,sp,15448
  40f54c:	8f998094 	lw	t9,-32620(gp) <ioctl>
  40f550:	00000000 	nop
  40f554:	0320f809 	jalr	t9
  40f558:	00000000 	nop
  40f55c:	8fbc0010 	lw	gp,16(sp)
  40f560:	04410009 	bgez	v0,40f588 <get_if_mac+0x6d0>
  40f564:	02002021 	move	a0,s0
  40f568:	8f84819c 	lw	a0,-32356(gp)
  40f56c:	00000000 	nop
  40f570:	8c840000 	lw	a0,0(a0)
  40f574:	8f858020 	lw	a1,-32736(gp)
  40f578:	00000000 	nop
  40f57c:	24a54e20 	addiu	a1,a1,20000		# "Get flash base address failure !"
  40f580:	10000048 	b	40f6a4 <get_if_mac+0x7ec>
  40f584:	00000000 	nop
  40f588:	8fa20028 	lw	v0,40(sp)
  40f58c:	8fa53c58 	lw	a1,15448(sp)
  40f590:	00003021 	move	a2,zero
  40f594:	00452823 	subu	a1,v0,a1
  40f598:	8f9980f4 	lw	t9,-32524(gp) <lseek>
  40f59c:	00000000 	nop
  40f5a0:	0320f809 	jalr	t9
  40f5a4:	00000000 	nop
  40f5a8:	8fbc0010 	lw	gp,16(sp)
  40f5ac:	04400042 	bltz	v0,40f6b8 <get_if_mac+0x800>
  40f5b0:	02002021 	move	a0,s0
  40f5b4:	02202821 	move	a1,s1
  40f5b8:	24060038 	li	a2,56
  40f5bc:	8f998248 	lw	t9,-32184(gp) <write>
  40f5c0:	00000000 	nop
  40f5c4:	0320f809 	jalr	t9
  40f5c8:	00000000 	nop
  40f5cc:	8fbc0010 	lw	gp,16(sp)
  40f5d0:	2403ffff 	li	v1,-1
  40f5d4:	10430038 	beq	v0,v1,40f6b8 <get_if_mac+0x800>
  40f5d8:	02002021 	move	a0,s0
  40f5dc:	00002821 	move	a1,zero
  40f5e0:	00003021 	move	a2,zero
  40f5e4:	8f9980f4 	lw	t9,-32524(gp) <lseek>
  40f5e8:	00000000 	nop
  40f5ec:	0320f809 	jalr	t9
  40f5f0:	00000000 	nop
  40f5f4:	8fbc0010 	lw	gp,16(sp)
  40f5f8:	04410009 	bgez	v0,40f620 <get_if_mac+0x768>
  40f5fc:	02002021 	move	a0,s0
  40f600:	8f84819c 	lw	a0,-32356(gp)
  40f604:	00000000 	nop
  40f608:	8c840000 	lw	a0,0(a0)
  40f60c:	8f858020 	lw	a1,-32736(gp)
  40f610:	00000000 	nop
  40f614:	24a54d80 	addiu	a1,a1,19840		# "saveFactoryDefault: Flash SEEK_0 Failed!!"
  40f618:	10000022 	b	40f6a4 <get_if_mac+0x7ec>
  40f61c:	00000000 	nop
  40f620:	3c05003f 	lui	a1,0x3f
  40f624:	34a5c400 	ori	a1,a1,0xc400
  40f628:	00003021 	move	a2,zero
  40f62c:	8f9980f4 	lw	t9,-32524(gp) <lseek>
  40f630:	00000000 	nop
  40f634:	0320f809 	jalr	t9
  40f638:	00000000 	nop
  40f63c:	8fbc0010 	lw	gp,16(sp)
  40f640:	04410009 	bgez	v0,40f668 <get_if_mac+0x7b0>
  40f644:	02002021 	move	a0,s0
  40f648:	8f84819c 	lw	a0,-32356(gp)
  40f64c:	00000000 	nop
  40f650:	8c840000 	lw	a0,0(a0)
  40f654:	8f858020 	lw	a1,-32736(gp)
  40f658:	00000000 	nop
  40f65c:	24a54dac 	addiu	a1,a1,19884		# "saveFactoryDefault: Flash SEEK_1 Failed!!"
  40f660:	10000010 	b	40f6a4 <get_if_mac+0x7ec>
  40f664:	00000000 	nop
  40f668:	02402821 	move	a1,s2
  40f66c:	24063c00 	li	a2,15360
  40f670:	8f998248 	lw	t9,-32184(gp) <write>
  40f674:	00000000 	nop
  40f678:	0320f809 	jalr	t9
  40f67c:	00000000 	nop
  40f680:	8fbc0010 	lw	gp,16(sp)
  40f684:	0441000d 	bgez	v0,40f6bc <get_if_mac+0x804>
  40f688:	00001021 	move	v0,zero
  40f68c:	8f84819c 	lw	a0,-32356(gp)
  40f690:	00000000 	nop
  40f694:	8c840000 	lw	a0,0(a0)
  40f698:	8f858020 	lw	a1,-32736(gp)
  40f69c:	00000000 	nop
  40f6a0:	24a54e44 	addiu	a1,a1,20036		# "saveFactoryDefault: restore Failed!!"
  40f6a4:	8f99822c 	lw	t9,-32212(gp) <fprintf>
  40f6a8:	00000000 	nop
  40f6ac:	0320f809 	jalr	t9
  40f6b0:	00000000 	nop
  40f6b4:	8fbc0010 	lw	gp,16(sp)
  40f6b8:	2402ffff 	li	v0,-1
  40f6bc:	8fbf3c70 	lw	ra,15472(sp)
  40f6c0:	8fb23c68 	lw	s2,15464(sp)
  40f6c4:	8fb13c64 	lw	s1,15460(sp)
  40f6c8:	8fb03c60 	lw	s0,15456(sp)
  40f6cc:	03e00008 	jr	ra
  40f6d0:	27bd3c78 	addiu	sp,sp,15480
  40f6d4:	3c1c0fc0 	lui	gp,0xfc0
  40f6d8:	279c9bbc 	addiu	gp,gp,-25668
  40f6dc:	0399e021 	addu	gp,gp,t9
  40f6e0:	27bde388 	addiu	sp,sp,-7288
  40f6e4:	afbc0010 	sw	gp,16(sp)
  40f6e8:	afbf1c70 	sw	ra,7280(sp)
  40f6ec:	afbc1c6c 	sw	gp,7276(sp)
  40f6f0:	afb21c68 	sw	s2,7272(sp)
  40f6f4:	afb11c64 	sw	s1,7268(sp)
  40f6f8:	afb01c60 	sw	s0,7264(sp)
  40f6fc:	00808021 	move	s0,a0
  40f700:	00a08821 	move	s1,a1
  40f704:	00002821 	move	a1,zero
  40f708:	00003021 	move	a2,zero
  40f70c:	8f9980f4 	lw	t9,-32524(gp) <lseek>
  40f710:	00000000 	nop
  40f714:	0320f809 	jalr	t9
  40f718:	00000000 	nop
  40f71c:	8fbc0010 	lw	gp,16(sp)
  40f720:	04410009 	bgez	v0,40f748 <get_if_mac+0x890>
  40f724:	02002021 	move	a0,s0
  40f728:	8f84819c 	lw	a0,-32356(gp)
  40f72c:	00000000 	nop
  40f730:	8c840000 	lw	a0,0(a0)
  40f734:	8f858020 	lw	a1,-32736(gp)
  40f738:	00000000 	nop
  40f73c:	24a54e6c 	addiu	a1,a1,20076		# "saveBootParam: Flash SEEK_0 Failed!!"
  40f740:	100000bc 	b	40fa34 <get_if_mac+0xb7c>
  40f744:	00000000 	nop
  40f748:	3c05003f 	lui	a1,0x3f
  40f74c:	34a58400 	ori	a1,a1,0x8400
  40f750:	00003021 	move	a2,zero
  40f754:	8f9980f4 	lw	t9,-32524(gp) <lseek>
  40f758:	00000000 	nop
  40f75c:	0320f809 	jalr	t9
  40f760:	00000000 	nop
  40f764:	8fbc0010 	lw	gp,16(sp)
  40f768:	04410009 	bgez	v0,40f790 <get_if_mac+0x8d8>
  40f76c:	02002021 	move	a0,s0
  40f770:	8f84819c 	lw	a0,-32356(gp)
  40f774:	00000000 	nop
  40f778:	8c840000 	lw	a0,0(a0)
  40f77c:	8f858020 	lw	a1,-32736(gp)
  40f780:	00000000 	nop
  40f784:	24a54e94 	addiu	a1,a1,20116		# "saveBootParam: Flash SEEK_1 Failed!!"
  40f788:	100000aa 	b	40fa34 <get_if_mac+0xb7c>
  40f78c:	00000000 	nop
  40f790:	27b20058 	addiu	s2,sp,88
  40f794:	02402821 	move	a1,s2
  40f798:	24061c00 	li	a2,7168
  40f79c:	8f998048 	lw	t9,-32696(gp) <read>
  40f7a0:	00000000 	nop
  40f7a4:	0320f809 	jalr	t9
  40f7a8:	00000000 	nop
  40f7ac:	8fbc0010 	lw	gp,16(sp)
  40f7b0:	04410009 	bgez	v0,40f7d8 <get_if_mac+0x920>
  40f7b4:	26240010 	addiu	a0,s1,16
  40f7b8:	8f84819c 	lw	a0,-32356(gp)
  40f7bc:	00000000 	nop
  40f7c0:	8c840000 	lw	a0,0(a0)
  40f7c4:	8f858020 	lw	a1,-32736(gp)
  40f7c8:	00000000 	nop
  40f7cc:	24a54ebc 	addiu	a1,a1,20156		# "saveBootParam: backup Failed!!"
  40f7d0:	10000098 	b	40fa34 <get_if_mac+0xb7c>
  40f7d4:	00000000 	nop
  40f7d8:	a620000a 	sh	zero,10(s1)
  40f7dc:	96250004 	lhu	a1,4(s1)
  40f7e0:	00000000 	nop
  40f7e4:	00052842 	srl	a1,a1,0x1
  40f7e8:	8f998020 	lw	t9,-32736(gp)
  40f7ec:	00000000 	nop
  40f7f0:	2739f2e0 	addiu	t9,t9,-3360
  40f7f4:	00000000 	nop
  40f7f8:	0320f809 	jalr	t9
  40f7fc:	00000000 	nop
  40f800:	8fbc0010 	lw	gp,16(sp)
  40f804:	a622000c 	sh	v0,12(s1)
  40f808:	02202021 	move	a0,s1
  40f80c:	24050008 	li	a1,8
  40f810:	8f998020 	lw	t9,-32736(gp)
  40f814:	00000000 	nop
  40f818:	2739f2e0 	addiu	t9,t9,-3360
  40f81c:	00000000 	nop
  40f820:	0320f809 	jalr	t9
  40f824:	00000000 	nop
  40f828:	8fbc0010 	lw	gp,16(sp)
  40f82c:	00021027 	nor	v0,zero,v0
  40f830:	a622000a 	sh	v0,10(s1)
  40f834:	24020020 	li	v0,32
  40f838:	afa20030 	sw	v0,48(sp)
  40f83c:	02002021 	move	a0,s0
  40f840:	3c054004 	lui	a1,0x4004
  40f844:	34a56601 	ori	a1,a1,0x6601
  40f848:	27a60018 	addiu	a2,sp,24
  40f84c:	8f998094 	lw	t9,-32620(gp) <ioctl>
  40f850:	00000000 	nop
  40f854:	0320f809 	jalr	t9
  40f858:	00000000 	nop
  40f85c:	8fbc0010 	lw	gp,16(sp)
  40f860:	04410009 	bgez	v0,40f888 <get_if_mac+0x9d0>
  40f864:	02002021 	move	a0,s0
  40f868:	8f84819c 	lw	a0,-32356(gp)
  40f86c:	00000000 	nop
  40f870:	8c840000 	lw	a0,0(a0)
  40f874:	8f858020 	lw	a1,-32736(gp)
  40f878:	00000000 	nop
  40f87c:	24a54edc 	addiu	a1,a1,20188		# "Get boot parameters failure !"
  40f880:	1000006c 	b	40fa34 <get_if_mac+0xb7c>
  40f884:	00000000 	nop
  40f888:	3c054004 	lui	a1,0x4004
  40f88c:	34a56602 	ori	a1,a1,0x6602
  40f890:	27a61c58 	addiu	a2,sp,7256
  40f894:	8f998094 	lw	t9,-32620(gp) <ioctl>
  40f898:	00000000 	nop
  40f89c:	0320f809 	jalr	t9
  40f8a0:	00000000 	nop
  40f8a4:	8fbc0010 	lw	gp,16(sp)
  40f8a8:	04410009 	bgez	v0,40f8d0 <get_if_mac+0xa18>
  40f8ac:	02002021 	move	a0,s0
  40f8b0:	8f84819c 	lw	a0,-32356(gp)
  40f8b4:	00000000 	nop
  40f8b8:	8c840000 	lw	a0,0(a0)
  40f8bc:	8f858020 	lw	a1,-32736(gp)
  40f8c0:	00000000 	nop
  40f8c4:	24a54e20 	addiu	a1,a1,20000		# "Get flash base address failure !"
  40f8c8:	1000005a 	b	40fa34 <get_if_mac+0xb7c>
  40f8cc:	00000000 	nop
  40f8d0:	8fa20028 	lw	v0,40(sp)
  40f8d4:	8fa51c58 	lw	a1,7256(sp)
  40f8d8:	00003021 	move	a2,zero
  40f8dc:	00452823 	subu	a1,v0,a1
  40f8e0:	8f9980f4 	lw	t9,-32524(gp) <lseek>
  40f8e4:	00000000 	nop
  40f8e8:	0320f809 	jalr	t9
  40f8ec:	00000000 	nop
  40f8f0:	8fbc0010 	lw	gp,16(sp)
  40f8f4:	04410009 	bgez	v0,40f91c <get_if_mac+0xa64>
  40f8f8:	02002021 	move	a0,s0
  40f8fc:	8f84819c 	lw	a0,-32356(gp)
  40f900:	00000000 	nop
  40f904:	8c840000 	lw	a0,0(a0)
  40f908:	8f858020 	lw	a1,-32736(gp)
  40f90c:	00000000 	nop
  40f910:	24a54efc 	addiu	a1,a1,20220		# "lseek on flash dev file failure !"
  40f914:	10000047 	b	40fa34 <get_if_mac+0xb7c>
  40f918:	00000000 	nop
  40f91c:	02202821 	move	a1,s1
  40f920:	240600dc 	li	a2,220
  40f924:	8f998248 	lw	t9,-32184(gp) <write>
  40f928:	00000000 	nop
  40f92c:	0320f809 	jalr	t9
  40f930:	00000000 	nop
  40f934:	8fbc0010 	lw	gp,16(sp)
  40f938:	2403ffff 	li	v1,-1
  40f93c:	1443000b 	bne	v0,v1,40f96c <get_if_mac+0xab4>
  40f940:	02002021 	move	a0,s0
  40f944:	8f848020 	lw	a0,-32736(gp)
  40f948:	00000000 	nop
  40f94c:	24844f20 	addiu	a0,a0,20256		# "Write flash error:"
  40f950:	8f998230 	lw	t9,-32208(gp) <perror>
  40f954:	00000000 	nop
  40f958:	0320f809 	jalr	t9
  40f95c:	00000000 	nop
  40f960:	8fbc0010 	lw	gp,16(sp)
  40f964:	10000039 	b	40fa4c <get_if_mac+0xb94>
  40f968:	2402ffff 	li	v0,-1
  40f96c:	00002821 	move	a1,zero
  40f970:	00003021 	move	a2,zero
  40f974:	8f9980f4 	lw	t9,-32524(gp) <lseek>
  40f978:	00000000 	nop
  40f97c:	0320f809 	jalr	t9
  40f980:	00000000 	nop
  40f984:	8fbc0010 	lw	gp,16(sp)
  40f988:	04410009 	bgez	v0,40f9b0 <get_if_mac+0xaf8>
  40f98c:	02002021 	move	a0,s0
  40f990:	8f84819c 	lw	a0,-32356(gp)
  40f994:	00000000 	nop
  40f998:	8c840000 	lw	a0,0(a0)
  40f99c:	8f858020 	lw	a1,-32736(gp)
  40f9a0:	00000000 	nop
  40f9a4:	24a54e6c 	addiu	a1,a1,20076		# "saveBootParam: Flash SEEK_0 Failed!!"
  40f9a8:	10000022 	b	40fa34 <get_if_mac+0xb7c>
  40f9ac:	00000000 	nop
  40f9b0:	3c05003f 	lui	a1,0x3f
  40f9b4:	34a58400 	ori	a1,a1,0x8400
  40f9b8:	00003021 	move	a2,zero
  40f9bc:	8f9980f4 	lw	t9,-32524(gp) <lseek>
  40f9c0:	00000000 	nop
  40f9c4:	0320f809 	jalr	t9
  40f9c8:	00000000 	nop
  40f9cc:	8fbc0010 	lw	gp,16(sp)
  40f9d0:	04410009 	bgez	v0,40f9f8 <get_if_mac+0xb40>
  40f9d4:	02002021 	move	a0,s0
  40f9d8:	8f84819c 	lw	a0,-32356(gp)
  40f9dc:	00000000 	nop
  40f9e0:	8c840000 	lw	a0,0(a0)
  40f9e4:	8f858020 	lw	a1,-32736(gp)
  40f9e8:	00000000 	nop
  40f9ec:	24a54e94 	addiu	a1,a1,20116		# "saveBootParam: Flash SEEK_1 Failed!!"
  40f9f0:	10000010 	b	40fa34 <get_if_mac+0xb7c>
  40f9f4:	00000000 	nop
  40f9f8:	02402821 	move	a1,s2
  40f9fc:	24061c00 	li	a2,7168
  40fa00:	8f998248 	lw	t9,-32184(gp) <write>
  40fa04:	00000000 	nop
  40fa08:	0320f809 	jalr	t9
  40fa0c:	00000000 	nop
  40fa10:	8fbc0010 	lw	gp,16(sp)
  40fa14:	0441000d 	bgez	v0,40fa4c <get_if_mac+0xb94>
  40fa18:	00001021 	move	v0,zero
  40fa1c:	8f84819c 	lw	a0,-32356(gp)
  40fa20:	00000000 	nop
  40fa24:	8c840000 	lw	a0,0(a0)
  40fa28:	8f858020 	lw	a1,-32736(gp)
  40fa2c:	00000000 	nop
  40fa30:	24a54f34 	addiu	a1,a1,20276		# "saveBootParam: restore Failed!!"
  40fa34:	8f99822c 	lw	t9,-32212(gp) <fprintf>
  40fa38:	00000000 	nop
  40fa3c:	0320f809 	jalr	t9
  40fa40:	00000000 	nop
  40fa44:	8fbc0010 	lw	gp,16(sp)
  40fa48:	2402ffff 	li	v0,-1
  40fa4c:	8fbf1c70 	lw	ra,7280(sp)
  40fa50:	8fb21c68 	lw	s2,7272(sp)
  40fa54:	8fb11c64 	lw	s1,7268(sp)
  40fa58:	8fb01c60 	lw	s0,7264(sp)
  40fa5c:	03e00008 	jr	ra
  40fa60:	27bd1c78 	addiu	sp,sp,7288
  40fa64:	3c1c0fc0 	lui	gp,0xfc0
  40fa68:	279c982c 	addiu	gp,gp,-26580
  40fa6c:	0399e021 	addu	gp,gp,t9
  40fa70:	27bdff90 	addiu	sp,sp,-112
  40fa74:	afbc0010 	sw	gp,16(sp)
  40fa78:	afbf006c 	sw	ra,108(sp)
  40fa7c:	afbc0068 	sw	gp,104(sp)
  40fa80:	afb10064 	sw	s1,100(sp)
  40fa84:	afb00060 	sw	s0,96(sp)
  40fa88:	00808021 	move	s0,a0
  40fa8c:	8f918110 	lw	s1,-32496(gp)
  40fa90:	00000000 	nop
  40fa94:	02202021 	move	a0,s1
  40fa98:	24050040 	li	a1,64
  40fa9c:	8f9980c0 	lw	t9,-32576(gp) <bzero>
  40faa0:	00000000 	nop
  40faa4:	0320f809 	jalr	t9
  40faa8:	00000000 	nop
  40faac:	8fbc0010 	lw	gp,16(sp)
  40fab0:	24020020 	li	v0,32
  40fab4:	afa20030 	sw	v0,48(sp)
  40fab8:	02002021 	move	a0,s0
  40fabc:	3c054004 	lui	a1,0x4004
  40fac0:	34a56601 	ori	a1,a1,0x6601
  40fac4:	27a60018 	addiu	a2,sp,24
  40fac8:	8f998094 	lw	t9,-32620(gp) <ioctl>
  40facc:	00000000 	nop
  40fad0:	0320f809 	jalr	t9
  40fad4:	00000000 	nop
  40fad8:	8fbc0010 	lw	gp,16(sp)
  40fadc:	04410009 	bgez	v0,40fb04 <get_if_mac+0xc4c>
  40fae0:	02002021 	move	a0,s0
  40fae4:	8f84819c 	lw	a0,-32356(gp)
  40fae8:	00000000 	nop
  40faec:	8c840000 	lw	a0,0(a0)
  40faf0:	8f858020 	lw	a1,-32736(gp)
  40faf4:	00000000 	nop
  40faf8:	24a54edc 	addiu	a1,a1,20188		# "Get boot parameters failure !"
  40fafc:	10000035 	b	40fbd4 <get_if_mac+0xd1c>
  40fb00:	00000000 	nop
  40fb04:	3c054004 	lui	a1,0x4004
  40fb08:	34a56602 	ori	a1,a1,0x6602
  40fb0c:	27a60058 	addiu	a2,sp,88
  40fb10:	8f998094 	lw	t9,-32620(gp) <ioctl>
  40fb14:	00000000 	nop
  40fb18:	0320f809 	jalr	t9
  40fb1c:	00000000 	nop
  40fb20:	8fbc0010 	lw	gp,16(sp)
  40fb24:	04410009 	bgez	v0,40fb4c <get_if_mac+0xc94>
  40fb28:	02002021 	move	a0,s0
  40fb2c:	8f84819c 	lw	a0,-32356(gp)
  40fb30:	00000000 	nop
  40fb34:	8c840000 	lw	a0,0(a0)
  40fb38:	8f858020 	lw	a1,-32736(gp)
  40fb3c:	00000000 	nop
  40fb40:	24a54e20 	addiu	a1,a1,20000		# "Get flash base address failure !"
  40fb44:	10000023 	b	40fbd4 <get_if_mac+0xd1c>
  40fb48:	00000000 	nop
  40fb4c:	8fa20028 	lw	v0,40(sp)
  40fb50:	8fa50058 	lw	a1,88(sp)
  40fb54:	00003021 	move	a2,zero
  40fb58:	00452823 	subu	a1,v0,a1
  40fb5c:	8f9980f4 	lw	t9,-32524(gp) <lseek>
  40fb60:	00000000 	nop
  40fb64:	0320f809 	jalr	t9
  40fb68:	00000000 	nop
  40fb6c:	8fbc0010 	lw	gp,16(sp)
  40fb70:	04410009 	bgez	v0,40fb98 <get_if_mac+0xce0>  #JUMP HERE!
  40fb74:	02002021 	move	a0,s0
  40fb78:	8f84819c 	lw	a0,-32356(gp)
  40fb7c:	00000000 	nop
  40fb80:	8c840000 	lw	a0,0(a0)
  40fb84:	8f858020 	lw	a1,-32736(gp)
  40fb88:	00000000 	nop
  40fb8c:	24a54efc 	addiu	a1,a1,20220		# "lseek on flash dev file failure !"
  40fb90:	10000010 	b	40fbd4 <get_if_mac+0xd1c>
  40fb94:	00000000 	nop
  40fb98:	02202821 	move	a1,s1
  40fb9c:	240600dc 	li	a2,220
  40fba0:	8f998048 	lw	t9,-32696(gp) <read>
  40fba4:	00000000 	nop
  40fba8:	0320f809 	jalr	t9
  40fbac:	00000000 	nop
  40fbb0:	8fbc0010 	lw	gp,16(sp)
  40fbb4:	0441000d 	bgez	v0,40fbec <get_if_mac+0xd34>
  40fbb8:	00001021 	move	v0,zero
  40fbbc:	8f84819c 	lw	a0,-32356(gp)
  40fbc0:	00000000 	nop
  40fbc4:	8c840000 	lw	a0,0(a0)
  40fbc8:	8f858020 	lw	a1,-32736(gp)
  40fbcc:	00000000 	nop
  40fbd0:	24a54f58 	addiu	a1,a1,20312		# "Read flash dev file failure !"
  40fbd4:	8f99822c 	lw	t9,-32212(gp) <fprintf>
  40fbd8:	00000000 	nop
  40fbdc:	0320f809 	jalr	t9
  40fbe0:	00000000 	nop
  40fbe4:	8fbc0010 	lw	gp,16(sp)
  40fbe8:	2402ffff 	li	v0,-1
  40fbec:	8fbf006c 	lw	ra,108(sp)
  40fbf0:	8fb10064 	lw	s1,100(sp)
  40fbf4:	8fb00060 	lw	s0,96(sp)
  40fbf8:	03e00008 	jr	ra
  40fbfc:	27bd0070 	addiu	sp,sp,112
  40fc00:	3c1c0fc0 	lui	gp,0xfc0
  40fc04:	279c9690 	addiu	gp,gp,-26992
  40fc08:	0399e021 	addu	gp,gp,t9
  40fc0c:	27bdff90 	addiu	sp,sp,-112
  40fc10:	afbc0010 	sw	gp,16(sp)
  40fc14:	afbf0068 	sw	ra,104(sp)
  40fc18:	afbc0064 	sw	gp,100(sp)
  40fc1c:	afb00060 	sw	s0,96(sp)
  40fc20:	00808021 	move	s0,a0
  40fc24:	27a40018 	addiu	a0,sp,24
  40fc28:	24050040 	li	a1,64
  40fc2c:	8f9980c0 	lw	t9,-32576(gp) <bzero>
  40fc30:	00000000 	nop
  40fc34:	0320f809 	jalr	t9
  40fc38:	00000000 	nop
  40fc3c:	8fbc0010 	lw	gp,16(sp)
  40fc40:	24020010 	li	v0,16
  40fc44:	afa20030 	sw	v0,48(sp)
  40fc48:	02002021 	move	a0,s0
  40fc4c:	3c054004 	lui	a1,0x4004
  40fc50:	34a56601 	ori	a1,a1,0x6601
  40fc54:	27a60018 	addiu	a2,sp,24
  40fc58:	8f998094 	lw	t9,-32620(gp) <ioctl>
  40fc5c:	00000000 	nop
  40fc60:	0320f809 	jalr	t9
  40fc64:	00000000 	nop
  40fc68:	8fbc0010 	lw	gp,16(sp)
  40fc6c:	04410009 	bgez	v0,40fc94 <get_if_mac+0xddc>
  40fc70:	02002021 	move	a0,s0
  40fc74:	8f84819c 	lw	a0,-32356(gp)
  40fc78:	00000000 	nop
  40fc7c:	8c840000 	lw	a0,0(a0)
  40fc80:	8f858020 	lw	a1,-32736(gp)
  40fc84:	00000000 	nop
  40fc88:	24a54f78 	addiu	a1,a1,20344		# "Get factory default failure !"
  40fc8c:	10000035 	b	40fd64 <get_if_mac+0xeac>
  40fc90:	00000000 	nop
  40fc94:	3c054004 	lui	a1,0x4004
  40fc98:	34a56602 	ori	a1,a1,0x6602
  40fc9c:	27a60058 	addiu	a2,sp,88
  40fca0:	8f998094 	lw	t9,-32620(gp) <ioctl>
  40fca4:	00000000 	nop
  40fca8:	0320f809 	jalr	t9
  40fcac:	00000000 	nop
  40fcb0:	8fbc0010 	lw	gp,16(sp)
  40fcb4:	04410009 	bgez	v0,40fcdc <get_if_mac+0xe24>
  40fcb8:	02002021 	move	a0,s0
  40fcbc:	8f84819c 	lw	a0,-32356(gp)
  40fcc0:	00000000 	nop
  40fcc4:	8c840000 	lw	a0,0(a0)
  40fcc8:	8f858020 	lw	a1,-32736(gp)
  40fccc:	00000000 	nop
  40fcd0:	24a54e20 	addiu	a1,a1,20000		# "Get flash base address failure !"
  40fcd4:	10000023 	b	40fd64 <get_if_mac+0xeac>
  40fcd8:	00000000 	nop
  40fcdc:	8fa20028 	lw	v0,40(sp)
  40fce0:	8fa50058 	lw	a1,88(sp)
  40fce4:	00003021 	move	a2,zero
  40fce8:	00452823 	subu	a1,v0,a1
  40fcec:	8f9980f4 	lw	t9,-32524(gp) <lseek>
  40fcf0:	00000000 	nop
  40fcf4:	0320f809 	jalr	t9
  40fcf8:	00000000 	nop
  40fcfc:	8fbc0010 	lw	gp,16(sp)
  40fd00:	04410009 	bgez	v0,40fd28 <get_if_mac+0xe70>
  40fd04:	02002021 	move	a0,s0
  40fd08:	8f84819c 	lw	a0,-32356(gp)
  40fd0c:	00000000 	nop
  40fd10:	8c840000 	lw	a0,0(a0)
  40fd14:	8f858020 	lw	a1,-32736(gp)
  40fd18:	00000000 	nop
  40fd1c:	24a54efc 	addiu	a1,a1,20220		# "lseek on flash dev file failure !"
  40fd20:	10000010 	b	40fd64 <get_if_mac+0xeac>
  40fd24:	00000000 	nop
  40fd28:	8f858254 	lw	a1,-32172(gp)
  40fd2c:	24060038 	li	a2,56
  40fd30:	8f998048 	lw	t9,-32696(gp) <read>
  40fd34:	00000000 	nop
  40fd38:	0320f809 	jalr	t9
  40fd3c:	00000000 	nop
  40fd40:	8fbc0010 	lw	gp,16(sp)
  40fd44:	0441000d 	bgez	v0,40fd7c <get_if_mac+0xec4>
  40fd48:	00001021 	move	v0,zero
  40fd4c:	8f84819c 	lw	a0,-32356(gp)
  40fd50:	00000000 	nop
  40fd54:	8c840000 	lw	a0,0(a0)
  40fd58:	8f858020 	lw	a1,-32736(gp)
  40fd5c:	00000000 	nop
  40fd60:	24a54f58 	addiu	a1,a1,20312		# "Read flash dev file failure !"
  40fd64:	8f99822c 	lw	t9,-32212(gp) <fprintf>
  40fd68:	00000000 	nop
  40fd6c:	0320f809 	jalr	t9
  40fd70:	00000000 	nop
  40fd74:	8fbc0010 	lw	gp,16(sp)
  40fd78:	2402ffff 	li	v0,-1
  40fd7c:	8fbf0068 	lw	ra,104(sp)
  40fd80:	8fb00060 	lw	s0,96(sp)
  40fd84:	03e00008 	jr	ra
  40fd88:	27bd0070 	addiu	sp,sp,112
  40fd8c:	3c1c0fc0 	lui	gp,0xfc0
  40fd90:	279c9504 	addiu	gp,gp,-27388
  40fd94:	0399e021 	addu	gp,gp,t9
  40fd98:	27bdffd0 	addiu	sp,sp,-48
  40fd9c:	afbc0010 	sw	gp,16(sp)
  40fda0:	afbf0028 	sw	ra,40(sp)
  40fda4:	afbc0024 	sw	gp,36(sp)
  40fda8:	afb20020 	sw	s2,32(sp)
  40fdac:	afb1001c 	sw	s1,28(sp)
  40fdb0:	afb00018 	sw	s0,24(sp)
  40fdb4:	00809021 	move	s2,a0
  40fdb8:	8f91801c 	lw	s1,-32740(gp)
  40fdbc:	00000000 	nop
  40fdc0:	26311250 	addiu	s1,s1,4688
  40fdc4:	00000000 	nop
  40fdc8:	02202021 	move	a0,s1
  40fdcc:	00002821 	move	a1,zero
  40fdd0:	8f9980d0 	lw	t9,-32560(gp) <open>
  40fdd4:	00000000 	nop
  40fdd8:	0320f809 	jalr	t9
  40fddc:	00000000 	nop
  40fde0:	8fbc0010 	lw	gp,16(sp)
  40fde4:	00408021 	move	s0,v0
  40fde8:	0601000f 	bgez	s0,40fe28 <get_if_mac+0xf70>
  40fdec:	02002021 	move	a0,s0
  40fdf0:	8f84819c 	lw	a0,-32356(gp)
  40fdf4:	00000000 	nop
  40fdf8:	8c840000 	lw	a0,0(a0)
  40fdfc:	8f858020 	lw	a1,-32736(gp)
  40fe00:	00000000 	nop
  40fe04:	24a54f98 	addiu	a1,a1,20376		# "Can't open flash device file: %s !"
  40fe08:	02203021 	move	a2,s1
  40fe0c:	8f99822c 	lw	t9,-32212(gp) <fprintf>
  40fe10:	00000000 	nop
  40fe14:	0320f809 	jalr	t9
  40fe18:	00000000 	nop
  40fe1c:	8fbc0010 	lw	gp,16(sp)
  40fe20:	10000019 	b	40fe88 <get_if_mac+0xfd0>
  40fe24:	00000000 	nop
  40fe28:	8f998020 	lw	t9,-32736(gp)
  40fe2c:	00000000 	nop
  40fe30:	2739fc00 	addiu	t9,t9,-1024
  40fe34:	00000000 	nop
  40fe38:	0320f809 	jalr	t9
  40fe3c:	00000000 	nop
  40fe40:	8fbc0010 	lw	gp,16(sp)
  40fe44:	14400010 	bnez	v0,40fe88 <get_if_mac+0xfd0>
  40fe48:	00000000 	nop
  40fe4c:	8f858254 	lw	a1,-32172(gp)
  40fe50:	00000000 	nop
  40fe54:	24a50010 	addiu	a1,a1,16
  40fe58:	80a20000 	lb	v0,0(a1)
  40fe5c:	80a30001 	lb	v1,1(a1)
  40fe60:	80a40002 	lb	a0,2(a1)
  40fe64:	a2420000 	sb	v0,0(s2)
  40fe68:	a2430001 	sb	v1,1(s2)
  40fe6c:	a2440002 	sb	a0,2(s2)
  40fe70:	80a20003 	lb	v0,3(a1)
  40fe74:	80a30004 	lb	v1,4(a1)
  40fe78:	80a40005 	lb	a0,5(a1)
  40fe7c:	a2420003 	sb	v0,3(s2)
  40fe80:	a2430004 	sb	v1,4(s2)
  40fe84:	a2440005 	sb	a0,5(s2)
  40fe88:	06000006 	bltz	s0,40fea4 <get_if_mac+0xfec>
  40fe8c:	02002021 	move	a0,s0
  40fe90:	8f998238 	lw	t9,-32200(gp) <close>
  40fe94:	00000000 	nop
  40fe98:	0320f809 	jalr	t9
  40fe9c:	00000000 	nop
  40fea0:	8fbc0010 	lw	gp,16(sp)
  40fea4:	8fbf0028 	lw	ra,40(sp)
  40fea8:	8fb20020 	lw	s2,32(sp)
  40feac:	8fb1001c 	lw	s1,28(sp)
  40feb0:	8fb00018 	lw	s0,24(sp)
  40feb4:	03e00008 	jr	ra
  40feb8:	27bd0030 	addiu	sp,sp,48
  40febc:	3c1c0fc0 	lui	gp,0xfc0
  40fec0:	279c93d4 	addiu	gp,gp,-27692
  40fec4:	0399e021 	addu	gp,gp,t9
  40fec8:	27bdffd0 	addiu	sp,sp,-48
  40fecc:	afbc0010 	sw	gp,16(sp)
  40fed0:	afbf002c 	sw	ra,44(sp)
  40fed4:	afbc0028 	sw	gp,40(sp)
  40fed8:	afb30024 	sw	s3,36(sp)
  40fedc:	afb20020 	sw	s2,32(sp)
  40fee0:	afb1001c 	sw	s1,28(sp)
  40fee4:	afb00018 	sw	s0,24(sp)
  40fee8:	00808821 	move	s1,a0
  40feec:	8f92801c 	lw	s2,-32740(gp)
  40fef0:	00000000 	nop
  40fef4:	26521250 	addiu	s2,s2,4688
  40fef8:	00000000 	nop
  40fefc:	02402021 	move	a0,s2
  40ff00:	24050002 	li	a1,2
  40ff04:	8f9980d0 	lw	t9,-32560(gp) <open>
  40ff08:	00000000 	nop
  40ff0c:	0320f809 	jalr	t9
  40ff10:	00000000 	nop
  40ff14:	8fbc0010 	lw	gp,16(sp)
  40ff18:	00408021 	move	s0,v0
  40ff1c:	0601000f 	bgez	s0,40ff5c <get_if_mac+0x10a4>
  40ff20:	00009821 	move	s3,zero
  40ff24:	8f84819c 	lw	a0,-32356(gp)
  40ff28:	00000000 	nop
  40ff2c:	8c840000 	lw	a0,0(a0)
  40ff30:	8f858020 	lw	a1,-32736(gp)
  40ff34:	00000000 	nop
  40ff38:	24a54f98 	addiu	a1,a1,20376		# "Can't open flash device file: %s !"
  40ff3c:	02403021 	move	a2,s2
  40ff40:	8f99822c 	lw	t9,-32212(gp) <fprintf>
  40ff44:	00000000 	nop
  40ff48:	0320f809 	jalr	t9
  40ff4c:	00000000 	nop
  40ff50:	8fbc0010 	lw	gp,16(sp)
  40ff54:	10000029 	b	40fffc <get_if_mac+0x1144>
  40ff58:	2413ffff 	li	s3,-1
  40ff5c:	02002021 	move	a0,s0
  40ff60:	8f998020 	lw	t9,-32736(gp)
  40ff64:	00000000 	nop
  40ff68:	2739fc00 	addiu	t9,t9,-1024
  40ff6c:	00000000 	nop
  40ff70:	0320f809 	jalr	t9
  40ff74:	00000000 	nop
  40ff78:	8fbc0010 	lw	gp,16(sp)
  40ff7c:	1440001e 	bnez	v0,40fff8 <get_if_mac+0x1140>
  40ff80:	02002021 	move	a0,s0
  40ff84:	92220000 	lbu	v0,0(s1)
  40ff88:	8f838254 	lw	v1,-32172(gp)
  40ff8c:	00000000 	nop
  40ff90:	24630010 	addiu	v1,v1,16
  40ff94:	a0620000 	sb	v0,0(v1)
  40ff98:	92220001 	lbu	v0,1(s1)
  40ff9c:	00000000 	nop
  40ffa0:	a0620001 	sb	v0,1(v1)
  40ffa4:	92220002 	lbu	v0,2(s1)
  40ffa8:	00000000 	nop
  40ffac:	a0620002 	sb	v0,2(v1)
  40ffb0:	92220003 	lbu	v0,3(s1)
  40ffb4:	00000000 	nop
  40ffb8:	a0620003 	sb	v0,3(v1)
  40ffbc:	92220004 	lbu	v0,4(s1)
  40ffc0:	00000000 	nop
  40ffc4:	a0620004 	sb	v0,4(v1)
  40ffc8:	92220005 	lbu	v0,5(s1)
  40ffcc:	2465fff0 	addiu	a1,v1,-16
  40ffd0:	a0620005 	sb	v0,5(v1)
  40ffd4:	8f998020 	lw	t9,-32736(gp)
  40ffd8:	00000000 	nop
  40ffdc:	2739f38c 	addiu	t9,t9,-3188
  40ffe0:	00000000 	nop
  40ffe4:	0320f809 	jalr	t9
  40ffe8:	00000000 	nop
  40ffec:	8fbc0010 	lw	gp,16(sp)
  40fff0:	04410002 	bgez	v0,40fffc <get_if_mac+0x1144>
  40fff4:	00000000 	nop
  40fff8:	2413ffff 	li	s3,-1
  40fffc:	06000006 	bltz	s0,410018 <get_if_mac+0x1160>
  410000:	02002021 	move	a0,s0
  410004:	8f998238 	lw	t9,-32200(gp) <close>
  410008:	00000000 	nop
  41000c:	0320f809 	jalr	t9
  410010:	00000000 	nop
  410014:	8fbc0010 	lw	gp,16(sp)
  410018:	02601021 	move	v0,s3
  41001c:	8fbf002c 	lw	ra,44(sp)
  410020:	8fb30024 	lw	s3,36(sp)
  410024:	8fb20020 	lw	s2,32(sp)
  410028:	8fb1001c 	lw	s1,28(sp)
  41002c:	8fb00018 	lw	s0,24(sp)
  410030:	03e00008 	jr	ra
  410034:	27bd0030 	addiu	sp,sp,48
  410038:	3c1c0fc0 	lui	gp,0xfc0
  41003c:	279c9258 	addiu	gp,gp,-28072
  410040:	0399e021 	addu	gp,gp,t9
  410044:	27bdffc8 	addiu	sp,sp,-56
  410048:	afbc0010 	sw	gp,16(sp)
  41004c:	afbf0034 	sw	ra,52(sp)
  410050:	afbc0030 	sw	gp,48(sp)
  410054:	afb5002c 	sw	s5,44(sp)
  410058:	afb40028 	sw	s4,40(sp)
  41005c:	afb30024 	sw	s3,36(sp)
  410060:	afb20020 	sw	s2,32(sp)
  410064:	afb1001c 	sw	s1,28(sp)
  410068:	afb00018 	sw	s0,24(sp)
  41006c:	0080a821 	move	s5,a0
  410070:	8f92801c 	lw	s2,-32740(gp)
  410074:	00000000 	nop
  410078:	26521250 	addiu	s2,s2,4688
  41007c:	00000000 	nop
  410080:	02402021 	move	a0,s2
  410084:	00a09821 	move	s3,a1
  410088:	00002821 	move	a1,zero
  41008c:	00c0a021 	move	s4,a2
  410090:	8f9980d0 	lw	t9,-32560(gp) <open>
  410094:	00000000 	nop
  410098:	0320f809 	jalr	t9
  41009c:	00000000 	nop
  4100a0:	8fbc0010 	lw	gp,16(sp)
  4100a4:	00408021 	move	s0,v0
  4100a8:	0601000f 	bgez	s0,4100e8 <get_if_mac+0x1230>
  4100ac:	00008821 	move	s1,zero
  4100b0:	8f84819c 	lw	a0,-32356(gp)
  4100b4:	00000000 	nop
  4100b8:	8c840000 	lw	a0,0(a0)
  4100bc:	8f858020 	lw	a1,-32736(gp)
  4100c0:	00000000 	nop
  4100c4:	24a54f98 	addiu	a1,a1,20376		# "Can't open flash device file: %s !"
  4100c8:	02403021 	move	a2,s2
  4100cc:	8f99822c 	lw	t9,-32212(gp) <fprintf>
  4100d0:	00000000 	nop
  4100d4:	0320f809 	jalr	t9
  4100d8:	00000000 	nop
  4100dc:	8fbc0010 	lw	gp,16(sp)
  4100e0:	10000037 	b	4101c0 <get_if_mac+0x1308>
  4100e4:	2411ffff 	li	s1,-1
  4100e8:	02002021 	move	a0,s0
  4100ec:	8f998020 	lw	t9,-32736(gp)
  4100f0:	00000000 	nop
  4100f4:	2739fa64 	addiu	t9,t9,-1436
  4100f8:	00000000 	nop
  4100fc:	0320f809 	jalr	t9
  410100:	00000000 	nop
  410104:	8fbc0010 	lw	gp,16(sp)
  410108:	10400003 	beqz	v0,410118 <get_if_mac+0x1260>
  41010c:	00000000 	nop
  410110:	1000002b 	b	4101c0 <get_if_mac+0x1308>
  410114:	2411ffff 	li	s1,-1
  410118:	12a0000d 	beqz	s5,410150 <get_if_mac+0x1298>
  41011c:	00000000 	nop
  410120:	8f858110 	lw	a1,-32496(gp)
  410124:	00000000 	nop
  410128:	24a50074 	addiu	a1,a1,116
  41012c:	80a20000 	lb	v0,0(a1)
  410130:	80a30001 	lb	v1,1(a1)
  410134:	80a40002 	lb	a0,2(a1)
  410138:	a2a20000 	sb	v0,0(s5)
  41013c:	a2a30001 	sb	v1,1(s5)
  410140:	a2a40002 	sb	a0,2(s5)
  410144:	80a20003 	lb	v0,3(a1)
  410148:	00000000 	nop
  41014c:	a2a20003 	sb	v0,3(s5)
  410150:	1260000d 	beqz	s3,410188 <get_if_mac+0x12d0>
  410154:	00000000 	nop
  410158:	8f858110 	lw	a1,-32496(gp)
  41015c:	00000000 	nop
  410160:	24a50078 	addiu	a1,a1,120
  410164:	80a20000 	lb	v0,0(a1)
  410168:	80a30001 	lb	v1,1(a1)
  41016c:	80a40002 	lb	a0,2(a1)
  410170:	a2620000 	sb	v0,0(s3)
  410174:	a2630001 	sb	v1,1(s3)
  410178:	a2640002 	sb	a0,2(s3)
  41017c:	80a20003 	lb	v0,3(a1)
  410180:	00000000 	nop
  410184:	a2620003 	sb	v0,3(s3)
  410188:	1280000d 	beqz	s4,4101c0 <get_if_mac+0x1308>
  41018c:	00000000 	nop
  410190:	8f858110 	lw	a1,-32496(gp)
  410194:	00000000 	nop
  410198:	24a5007c 	addiu	a1,a1,124
  41019c:	80a20000 	lb	v0,0(a1)
  4101a0:	80a30001 	lb	v1,1(a1)
  4101a4:	80a40002 	lb	a0,2(a1)
  4101a8:	a2820000 	sb	v0,0(s4)
  4101ac:	a2830001 	sb	v1,1(s4)
  4101b0:	a2840002 	sb	a0,2(s4)
  4101b4:	80a20003 	lb	v0,3(a1)
  4101b8:	00000000 	nop
  4101bc:	a2820003 	sb	v0,3(s4)
  4101c0:	06000006 	bltz	s0,4101dc <get_if_mac+0x1324>
  4101c4:	02002021 	move	a0,s0
  4101c8:	8f998238 	lw	t9,-32200(gp) <close>
  4101cc:	00000000 	nop
  4101d0:	0320f809 	jalr	t9
  4101d4:	00000000 	nop
  4101d8:	8fbc0010 	lw	gp,16(sp)
  4101dc:	02201021 	move	v0,s1
  4101e0:	8fbf0034 	lw	ra,52(sp)
  4101e4:	8fb5002c 	lw	s5,44(sp)
  4101e8:	8fb40028 	lw	s4,40(sp)
  4101ec:	8fb30024 	lw	s3,36(sp)
  4101f0:	8fb20020 	lw	s2,32(sp)
  4101f4:	8fb1001c 	lw	s1,28(sp)
  4101f8:	8fb00018 	lw	s0,24(sp)
  4101fc:	03e00008 	jr	ra
  410200:	27bd0038 	addiu	sp,sp,56
  410204:	3c1c0fc0 	lui	gp,0xfc0
  410208:	279c908c 	addiu	gp,gp,-28532
  41020c:	0399e021 	addu	gp,gp,t9
  410210:	27bdffc8 	addiu	sp,sp,-56
  410214:	afbc0010 	sw	gp,16(sp)
  410218:	afbf0034 	sw	ra,52(sp)
  41021c:	afbc0030 	sw	gp,48(sp)
  410220:	afb5002c 	sw	s5,44(sp)
  410224:	afb40028 	sw	s4,40(sp)
  410228:	afb30024 	sw	s3,36(sp)
  41022c:	afb20020 	sw	s2,32(sp)
  410230:	afb1001c 	sw	s1,28(sp)
  410234:	afb00018 	sw	s0,24(sp)
  410238:	0080a821 	move	s5,a0
  41023c:	8f92801c 	lw	s2,-32740(gp)
  410240:	00000000 	nop
  410244:	26521250 	addiu	s2,s2,4688
  410248:	00000000 	nop
  41024c:	02402021 	move	a0,s2
  410250:	00a09821 	move	s3,a1
  410254:	24050002 	li	a1,2
  410258:	00c0a021 	move	s4,a2
  41025c:	8f9980d0 	lw	t9,-32560(gp) <open>
  410260:	00000000 	nop
  410264:	0320f809 	jalr	t9
  410268:	00000000 	nop
  41026c:	8fbc0010 	lw	gp,16(sp)
  410270:	00408021 	move	s0,v0
  410274:	0601000f 	bgez	s0,4102b4 <get_if_mac+0x13fc>
  410278:	00008821 	move	s1,zero
  41027c:	8f84819c 	lw	a0,-32356(gp)
  410280:	00000000 	nop
  410284:	8c840000 	lw	a0,0(a0)
  410288:	8f858020 	lw	a1,-32736(gp)
  41028c:	00000000 	nop
  410290:	24a54f98 	addiu	a1,a1,20376		# "Can't open flash device file: %s !"
  410294:	02403021 	move	a2,s2
  410298:	8f99822c 	lw	t9,-32212(gp) <fprintf>
  41029c:	00000000 	nop
  4102a0:	0320f809 	jalr	t9
  4102a4:	00000000 	nop
  4102a8:	8fbc0010 	lw	gp,16(sp)
  4102ac:	10000041 	b	4103b4 <get_if_mac+0x14fc>
  4102b0:	2411ffff 	li	s1,-1
  4102b4:	02002021 	move	a0,s0
  4102b8:	8f998020 	lw	t9,-32736(gp)
  4102bc:	00000000 	nop
  4102c0:	2739fa64 	addiu	t9,t9,-1436
  4102c4:	00000000 	nop
  4102c8:	0320f809 	jalr	t9
  4102cc:	00000000 	nop
  4102d0:	8fbc0010 	lw	gp,16(sp)
  4102d4:	14400036 	bnez	v0,4103b0 <get_if_mac+0x14f8>
  4102d8:	00000000 	nop
  4102dc:	12a0000d 	beqz	s5,410314 <get_if_mac+0x145c>
  4102e0:	00000000 	nop
  4102e4:	8f858110 	lw	a1,-32496(gp)
  4102e8:	00000000 	nop
  4102ec:	24a50074 	addiu	a1,a1,116
  4102f0:	82a20000 	lb	v0,0(s5)
  4102f4:	82a30001 	lb	v1,1(s5)
  4102f8:	82a40002 	lb	a0,2(s5)
  4102fc:	a0a20000 	sb	v0,0(a1)
  410300:	a0a30001 	sb	v1,1(a1)
  410304:	a0a40002 	sb	a0,2(a1)
  410308:	82a20003 	lb	v0,3(s5)
  41030c:	00000000 	nop
  410310:	a0a20003 	sb	v0,3(a1)
  410314:	1260000d 	beqz	s3,41034c <get_if_mac+0x1494>
  410318:	00000000 	nop
  41031c:	8f858110 	lw	a1,-32496(gp)
  410320:	00000000 	nop
  410324:	24a50078 	addiu	a1,a1,120
  410328:	82620000 	lb	v0,0(s3)
  41032c:	82630001 	lb	v1,1(s3)
  410330:	82640002 	lb	a0,2(s3)
  410334:	a0a20000 	sb	v0,0(a1)
  410338:	a0a30001 	sb	v1,1(a1)
  41033c:	a0a40002 	sb	a0,2(a1)
  410340:	82620003 	lb	v0,3(s3)
  410344:	00000000 	nop
  410348:	a0a20003 	sb	v0,3(a1)
  41034c:	1280000e 	beqz	s4,410388 <get_if_mac+0x14d0>
  410350:	02002021 	move	a0,s0
  410354:	8f858110 	lw	a1,-32496(gp)
  410358:	00000000 	nop
  41035c:	24a5007c 	addiu	a1,a1,124
  410360:	82820000 	lb	v0,0(s4)
  410364:	82830001 	lb	v1,1(s4)
  410368:	82840002 	lb	a0,2(s4)
  41036c:	a0a20000 	sb	v0,0(a1)
  410370:	a0a30001 	sb	v1,1(a1)
  410374:	a0a40002 	sb	a0,2(a1)
  410378:	82820003 	lb	v0,3(s4)
  41037c:	00000000 	nop
  410380:	a0a20003 	sb	v0,3(a1)
  410384:	02002021 	move	a0,s0
  410388:	8f858110 	lw	a1,-32496(gp)
  41038c:	8f998020 	lw	t9,-32736(gp)
  410390:	00000000 	nop
  410394:	2739f6d4 	addiu	t9,t9,-2348
  410398:	00000000 	nop
  41039c:	0320f809 	jalr	t9
  4103a0:	00000000 	nop
  4103a4:	8fbc0010 	lw	gp,16(sp)
  4103a8:	04410002 	bgez	v0,4103b4 <get_if_mac+0x14fc>
  4103ac:	00000000 	nop
  4103b0:	2411ffff 	li	s1,-1
  4103b4:	06000006 	bltz	s0,4103d0 <get_if_mac+0x1518>
  4103b8:	02002021 	move	a0,s0
  4103bc:	8f998238 	lw	t9,-32200(gp) <close>
  4103c0:	00000000 	nop
  4103c4:	0320f809 	jalr	t9
  4103c8:	00000000 	nop
  4103cc:	8fbc0010 	lw	gp,16(sp)
  4103d0:	02201021 	move	v0,s1
  4103d4:	8fbf0034 	lw	ra,52(sp)
  4103d8:	8fb5002c 	lw	s5,44(sp)
  4103dc:	8fb40028 	lw	s4,40(sp)
  4103e0:	8fb30024 	lw	s3,36(sp)
  4103e4:	8fb20020 	lw	s2,32(sp)
  4103e8:	8fb1001c 	lw	s1,28(sp)
  4103ec:	8fb00018 	lw	s0,24(sp)
  4103f0:	03e00008 	jr	ra
  4103f4:	27bd0038 	addiu	sp,sp,56
  4103f8:	3c1c0fc0 	lui	gp,0xfc0
  4103fc:	279c8e98 	addiu	gp,gp,-29032
  410400:	0399e021 	addu	gp,gp,t9
  410404:	27bdffd0 	addiu	sp,sp,-48
  410408:	afbc0010 	sw	gp,16(sp)
  41040c:	afbf002c 	sw	ra,44(sp)
  410410:	afbc0028 	sw	gp,40(sp)
  410414:	afb30024 	sw	s3,36(sp)
  410418:	afb20020 	sw	s2,32(sp)
  41041c:	afb1001c 	sw	s1,28(sp)
  410420:	afb00018 	sw	s0,24(sp)
  410424:	00809821 	move	s3,a0
  410428:	8f92801c 	lw	s2,-32740(gp)
  41042c:	00000000 	nop
  410430:	26521250 	addiu	s2,s2,4688
  410434:	00000000 	nop
  410438:	02402021 	move	a0,s2
  41043c:	00002821 	move	a1,zero
  410440:	8f9980d0 	lw	t9,-32560(gp) <open>
  410444:	00000000 	nop
  410448:	0320f809 	jalr	t9
  41044c:	00000000 	nop
  410450:	8fbc0010 	lw	gp,16(sp)
  410454:	00408021 	move	s0,v0
  410458:	0601000f 	bgez	s0,410498 <get_if_mac+0x15e0>
  41045c:	00008821 	move	s1,zero
  410460:	8f84819c 	lw	a0,-32356(gp)
  410464:	00000000 	nop
  410468:	8c840000 	lw	a0,0(a0)
  41046c:	8f858020 	lw	a1,-32736(gp)
  410470:	00000000 	nop
  410474:	24a54f98 	addiu	a1,a1,20376		# "Can't open flash device file: %s !"
  410478:	02403021 	move	a2,s2
  41047c:	8f99822c 	lw	t9,-32212(gp) <fprintf>
  410480:	00000000 	nop
  410484:	0320f809 	jalr	t9
  410488:	00000000 	nop
  41048c:	8fbc0010 	lw	gp,16(sp)
  410490:	10000012 	b	4104dc <get_if_mac+0x1624>
  410494:	2411ffff 	li	s1,-1
  410498:	02002021 	move	a0,s0
  41049c:	8f998020 	lw	t9,-32736(gp)
  4104a0:	00000000 	nop
  4104a4:	2739fa64 	addiu	t9,t9,-1436
  4104a8:	00000000 	nop
  4104ac:	0320f809 	jalr	t9
  4104b0:	00000000 	nop
  4104b4:	8fbc0010 	lw	gp,16(sp)
  4104b8:	10400003 	beqz	v0,4104c8 <get_if_mac+0x1610>
  4104bc:	00000000 	nop
  4104c0:	10000006 	b	4104dc <get_if_mac+0x1624>
  4104c4:	2411ffff 	li	s1,-1
  4104c8:	8f828110 	lw	v0,-32496(gp)
  4104cc:	00000000 	nop
  4104d0:	8c4200d4 	lw	v0,212(v0)
  4104d4:	00000000 	nop
  4104d8:	ae620000 	sw	v0,0(s3)
  4104dc:	06000006 	bltz	s0,4104f8 <get_if_mac+0x1640>
  4104e0:	02002021 	move	a0,s0
  4104e4:	8f998238 	lw	t9,-32200(gp) <close>
  4104e8:	00000000 	nop
  4104ec:	0320f809 	jalr	t9
  4104f0:	00000000 	nop
  4104f4:	8fbc0010 	lw	gp,16(sp)
  4104f8:	02201021 	move	v0,s1
  4104fc:	8fbf002c 	lw	ra,44(sp)
  410500:	8fb30024 	lw	s3,36(sp)
  410504:	8fb20020 	lw	s2,32(sp)
  410508:	8fb1001c 	lw	s1,28(sp)
  41050c:	8fb00018 	lw	s0,24(sp)
  410510:	03e00008 	jr	ra
  410514:	27bd0030 	addiu	sp,sp,48

00410518 <SetBtldBootState>:
  410518:	3c1c0fc0 	lui	gp,0xfc0
  41051c:	279c8d78 	addiu	gp,gp,-29320
  410520:	0399e021 	addu	gp,gp,t9
  410524:	27bdffd0 	addiu	sp,sp,-48
  410528:	afbc0010 	sw	gp,16(sp)
  41052c:	afbf002c 	sw	ra,44(sp)
  410530:	afbc0028 	sw	gp,40(sp)
  410534:	afb30024 	sw	s3,36(sp)
  410538:	afb20020 	sw	s2,32(sp)
  41053c:	afb1001c 	sw	s1,28(sp)
  410540:	afb00018 	sw	s0,24(sp)
  410544:	00809821 	move	s3,a0
  410548:	8f92801c 	lw	s2,-32740(gp)
  41054c:	00000000 	nop
  410550:	26521250 	addiu	s2,s2,4688
  410554:	00000000 	nop
  410558:	02402021 	move	a0,s2
  41055c:	24050002 	li	a1,2
  410560:	8f9980d0 	lw	t9,-32560(gp) <open>
  410564:	00000000 	nop
  410568:	0320f809 	jalr	t9
  41056c:	00000000 	nop
  410570:	8fbc0010 	lw	gp,16(sp)
  410574:	00408021 	move	s0,v0
  410578:	0601000f 	bgez	s0,4105b8 <SetBtldBootState+0xa0>
  41057c:	00008821 	move	s1,zero
  410580:	8f84819c 	lw	a0,-32356(gp)
  410584:	00000000 	nop
  410588:	8c840000 	lw	a0,0(a0)
  41058c:	8f858020 	lw	a1,-32736(gp)
  410590:	00000000 	nop
  410594:	24a54f98 	addiu	a1,a1,20376		# "Can't open flash device file: %s !"
  410598:	02403021 	move	a2,s2
  41059c:	8f99822c 	lw	t9,-32212(gp) <fprintf>
  4105a0:	00000000 	nop
  4105a4:	0320f809 	jalr	t9
  4105a8:	00000000 	nop
  4105ac:	8fbc0010 	lw	gp,16(sp)
  4105b0:	1000001a 	b	41061c <SetBtldBootState+0x104>
  4105b4:	2411ffff 	li	s1,-1
  4105b8:	02002021 	move	a0,s0
  4105bc:	8f998020 	lw	t9,-32736(gp)
  4105c0:	00000000 	nop
  4105c4:	2739fa64 	addiu	t9,t9,-1436
  4105c8:	00000000 	nop
  4105cc:	0320f809 	jalr	t9
  4105d0:	00000000 	nop
  4105d4:	8fbc0010 	lw	gp,16(sp)
  4105d8:	1440000f 	bnez	v0,410618 <SetBtldBootState+0x100>
  4105dc:	02002021 	move	a0,s0
  4105e0:	8f858110 	lw	a1,-32496(gp)
  4105e4:	00000000 	nop
  4105e8:	24a500d4 	addiu	a1,a1,212
  4105ec:	acb30000 	sw	s3,0(a1)
  4105f0:	24a5ff2c 	addiu	a1,a1,-212
  4105f4:	8f998020 	lw	t9,-32736(gp)
  4105f8:	00000000 	nop
  4105fc:	2739f6d4 	addiu	t9,t9,-2348
  410600:	00000000 	nop
  410604:	0320f809 	jalr	t9
  410608:	00000000 	nop
  41060c:	8fbc0010 	lw	gp,16(sp)
  410610:	04410002 	bgez	v0,41061c <SetBtldBootState+0x104>
  410614:	00000000 	nop
  410618:	2411ffff 	li	s1,-1
  41061c:	06000006 	bltz	s0,410638 <SetBtldBootState+0x120>
  410620:	02002021 	move	a0,s0
  410624:	8f998238 	lw	t9,-32200(gp) <close>
  410628:	00000000 	nop
  41062c:	0320f809 	jalr	t9
  410630:	00000000 	nop
  410634:	8fbc0010 	lw	gp,16(sp)
  410638:	02201021 	move	v0,s1
  41063c:	8fbf002c 	lw	ra,44(sp)
  410640:	8fb30024 	lw	s3,36(sp)
  410644:	8fb20020 	lw	s2,32(sp)
  410648:	8fb1001c 	lw	s1,28(sp)
  41064c:	8fb00018 	lw	s0,24(sp)
  410650:	03e00008 	jr	ra
  410654:	27bd0030 	addiu	sp,sp,48

00410658 <GetBtldBootLanguage>:
  410658:	3c1c0fc0 	lui	gp,0xfc0
  41065c:	279c8c38 	addiu	gp,gp,-29640
  410660:	0399e021 	addu	gp,gp,t9
  410664:	27bdffd0 	addiu	sp,sp,-48
  410668:	afbc0010 	sw	gp,16(sp)
  41066c:	afbf002c 	sw	ra,44(sp)
  410670:	afbc0028 	sw	gp,40(sp)
  410674:	afb30024 	sw	s3,36(sp)
  410678:	afb20020 	sw	s2,32(sp)
  41067c:	afb1001c 	sw	s1,28(sp)
  410680:	afb00018 	sw	s0,24(sp)
  410684:	00809821 	move	s3,a0
  410688:	8f92801c 	lw	s2,-32740(gp)
  41068c:	00000000 	nop
  410690:	26521250 	addiu	s2,s2,4688
  410694:	00000000 	nop
  410698:	02402021 	move	a0,s2
  41069c:	00002821 	move	a1,zero
  4106a0:	8f9980d0 	lw	t9,-32560(gp) <open>
  4106a4:	00000000 	nop
  4106a8:	0320f809 	jalr	t9
  4106ac:	00000000 	nop
  4106b0:	8fbc0010 	lw	gp,16(sp)
  4106b4:	00408021 	move	s0,v0
  4106b8:	0601000f 	bgez	s0,4106f8 <GetBtldBootLanguage+0xa0>
  4106bc:	00008821 	move	s1,zero
  4106c0:	8f84819c 	lw	a0,-32356(gp)
  4106c4:	00000000 	nop
  4106c8:	8c840000 	lw	a0,0(a0)
  4106cc:	8f858020 	lw	a1,-32736(gp)
  4106d0:	00000000 	nop
  4106d4:	24a54f98 	addiu	a1,a1,20376		# "Can't open flash device file: %s !"
  4106d8:	02403021 	move	a2,s2
  4106dc:	8f99822c 	lw	t9,-32212(gp) <fprintf>
  4106e0:	00000000 	nop
  4106e4:	0320f809 	jalr	t9
  4106e8:	00000000 	nop
  4106ec:	8fbc0010 	lw	gp,16(sp)
  4106f0:	10000012 	b	41073c <GetBtldBootLanguage+0xe4>
  4106f4:	2411ffff 	li	s1,-1
  4106f8:	02002021 	move	a0,s0
  4106fc:	8f998020 	lw	t9,-32736(gp)
  410700:	00000000 	nop
  410704:	2739fa64 	addiu	t9,t9,-1436
  410708:	00000000 	nop
  41070c:	0320f809 	jalr	t9
  410710:	00000000 	nop
  410714:	8fbc0010 	lw	gp,16(sp)
  410718:	10400003 	beqz	v0,410728 <GetBtldBootLanguage+0xd0>
  41071c:	00000000 	nop
  410720:	10000006 	b	41073c <GetBtldBootLanguage+0xe4>
  410724:	2411ffff 	li	s1,-1
  410728:	8f828110 	lw	v0,-32496(gp)
  41072c:	00000000 	nop
  410730:	8c4200d8 	lw	v0,216(v0)
  410734:	00000000 	nop
  410738:	ae620000 	sw	v0,0(s3)
  41073c:	06000006 	bltz	s0,410758 <GetBtldBootLanguage+0x100>
  410740:	02002021 	move	a0,s0
  410744:	8f998238 	lw	t9,-32200(gp) <close>
  410748:	00000000 	nop
  41074c:	0320f809 	jalr	t9
  410750:	00000000 	nop
  410754:	8fbc0010 	lw	gp,16(sp)
  410758:	02201021 	move	v0,s1
  41075c:	8fbf002c 	lw	ra,44(sp)
  410760:	8fb30024 	lw	s3,36(sp)
  410764:	8fb20020 	lw	s2,32(sp)
  410768:	8fb1001c 	lw	s1,28(sp)
  41076c:	8fb00018 	lw	s0,24(sp)
  410770:	03e00008 	jr	ra
  410774:	27bd0030 	addiu	sp,sp,48
  410778:	3c1c0fc0 	lui	gp,0xfc0
  41077c:	279c8b18 	addiu	gp,gp,-29928
  410780:	0399e021 	addu	gp,gp,t9
  410784:	27bdffd0 	addiu	sp,sp,-48
  410788:	afbc0010 	sw	gp,16(sp)
  41078c:	afbf002c 	sw	ra,44(sp)
  410790:	afbc0028 	sw	gp,40(sp)
  410794:	afb30024 	sw	s3,36(sp)
  410798:	afb20020 	sw	s2,32(sp)
  41079c:	afb1001c 	sw	s1,28(sp)
  4107a0:	afb00018 	sw	s0,24(sp)
  4107a4:	00809821 	move	s3,a0
  4107a8:	8f92801c 	lw	s2,-32740(gp)
  4107ac:	00000000 	nop
  4107b0:	26521250 	addiu	s2,s2,4688
  4107b4:	00000000 	nop
  4107b8:	02402021 	move	a0,s2
  4107bc:	24050002 	li	a1,2
  4107c0:	8f9980d0 	lw	t9,-32560(gp) <open>
  4107c4:	00000000 	nop
  4107c8:	0320f809 	jalr	t9
  4107cc:	00000000 	nop
  4107d0:	8fbc0010 	lw	gp,16(sp)
  4107d4:	00408021 	move	s0,v0
  4107d8:	0601000f 	bgez	s0,410818 <GetBtldBootLanguage+0x1c0>
  4107dc:	00008821 	move	s1,zero
  4107e0:	8f84819c 	lw	a0,-32356(gp)
  4107e4:	00000000 	nop
  4107e8:	8c840000 	lw	a0,0(a0)
  4107ec:	8f858020 	lw	a1,-32736(gp)
  4107f0:	00000000 	nop
  4107f4:	24a54f98 	addiu	a1,a1,20376		# "Can't open flash device file: %s !"
  4107f8:	02403021 	move	a2,s2
  4107fc:	8f99822c 	lw	t9,-32212(gp) <fprintf>
  410800:	00000000 	nop
  410804:	0320f809 	jalr	t9
  410808:	00000000 	nop
  41080c:	8fbc0010 	lw	gp,16(sp)
  410810:	1000001a 	b	41087c <GetBtldBootLanguage+0x224>
  410814:	2411ffff 	li	s1,-1
  410818:	02002021 	move	a0,s0
  41081c:	8f998020 	lw	t9,-32736(gp)
  410820:	00000000 	nop
  410824:	2739fa64 	addiu	t9,t9,-1436
  410828:	00000000 	nop
  41082c:	0320f809 	jalr	t9
  410830:	00000000 	nop
  410834:	8fbc0010 	lw	gp,16(sp)
  410838:	1440000f 	bnez	v0,410878 <GetBtldBootLanguage+0x220>
  41083c:	02002021 	move	a0,s0
  410840:	8f858110 	lw	a1,-32496(gp)
  410844:	00000000 	nop
  410848:	24a500d8 	addiu	a1,a1,216
  41084c:	acb30000 	sw	s3,0(a1)
  410850:	24a5ff28 	addiu	a1,a1,-216
  410854:	8f998020 	lw	t9,-32736(gp)
  410858:	00000000 	nop
  41085c:	2739f6d4 	addiu	t9,t9,-2348
  410860:	00000000 	nop
  410864:	0320f809 	jalr	t9
  410868:	00000000 	nop
  41086c:	8fbc0010 	lw	gp,16(sp)
  410870:	04410002 	bgez	v0,41087c <GetBtldBootLanguage+0x224>
  410874:	00000000 	nop
  410878:	2411ffff 	li	s1,-1
  41087c:	06000006 	bltz	s0,410898 <GetBtldBootLanguage+0x240>
  410880:	02002021 	move	a0,s0
  410884:	8f998238 	lw	t9,-32200(gp) <close>
  410888:	00000000 	nop
  41088c:	0320f809 	jalr	t9
  410890:	00000000 	nop
  410894:	8fbc0010 	lw	gp,16(sp)
  410898:	02201021 	move	v0,s1
  41089c:	8fbf002c 	lw	ra,44(sp)
  4108a0:	8fb30024 	lw	s3,36(sp)
  4108a4:	8fb20020 	lw	s2,32(sp)
  4108a8:	8fb1001c 	lw	s1,28(sp)
  4108ac:	8fb00018 	lw	s0,24(sp)
  4108b0:	03e00008 	jr	ra
  4108b4:	27bd0030 	addiu	sp,sp,48
	...

004108c0 <LCDInit>:
  4108c0:	3c1c0fc0 	lui	gp,0xfc0
  4108c4:	279c89d0 	addiu	gp,gp,-30256
  4108c8:	0399e021 	addu	gp,gp,t9
  4108cc:	27bdffe0 	addiu	sp,sp,-32
  4108d0:	afbc0010 	sw	gp,16(sp)
  4108d4:	afbf001c 	sw	ra,28(sp)
  4108d8:	afbc0018 	sw	gp,24(sp)
  4108dc:	8f848020 	lw	a0,-32736(gp)
  4108e0:	00000000 	nop
  4108e4:	24844fc0 	addiu	a0,a0,20416		# "/dev/lcddev"
  4108e8:	24050002 	li	a1,2
  4108ec:	8f9980d0 	lw	t9,-32560(gp) <open>
  4108f0:	00000000 	nop
  4108f4:	0320f809 	jalr	t9
  4108f8:	00000000 	nop
  4108fc:	8fbc0010 	lw	gp,16(sp)
  410900:	00000000 	nop
  410904:	8f818220 	lw	at,-32224(gp)
  410908:	00000000 	nop
  41090c:	ac220000 	sw	v0,0(at)
  410910:	00021027 	nor	v0,zero,v0
  410914:	8fbf001c 	lw	ra,28(sp)
  410918:	000217c2 	srl	v0,v0,0x1f
  41091c:	03e00008 	jr	ra
  410920:	27bd0020 	addiu	sp,sp,32

00410924 <LCDFin>:
  410924:	3c1c0fc0 	lui	gp,0xfc0
  410928:	279c896c 	addiu	gp,gp,-30356
  41092c:	0399e021 	addu	gp,gp,t9
  410930:	27bdffe0 	addiu	sp,sp,-32
  410934:	afbc0010 	sw	gp,16(sp)
  410938:	afbf001c 	sw	ra,28(sp)
  41093c:	8f848220 	lw	a0,-32224(gp)
  410940:	00000000 	nop
  410944:	8c840000 	lw	a0,0(a0)
  410948:	afbc0018 	sw	gp,24(sp)
  41094c:	8f998238 	lw	t9,-32200(gp) <close>
  410950:	00000000 	nop
  410954:	0320f809 	jalr	t9
  410958:	00000000 	nop
  41095c:	8fbc0010 	lw	gp,16(sp)
  410960:	8fbf001c 	lw	ra,28(sp)
  410964:	00000000 	nop
  410968:	03e00008 	jr	ra
  41096c:	27bd0020 	addiu	sp,sp,32

00410970 <FontInit>:
  410970:	3c1c0fc0 	lui	gp,0xfc0
  410974:	279c8920 	addiu	gp,gp,-30432
  410978:	0399e021 	addu	gp,gp,t9
  41097c:	27bdfee8 	addiu	sp,sp,-280
  410980:	afbc0010 	sw	gp,16(sp)
  410984:	afbf0110 	sw	ra,272(sp)
  410988:	afbc010c 	sw	gp,268(sp)
  41098c:	afb40108 	sw	s4,264(sp)
  410990:	afb30104 	sw	s3,260(sp)
  410994:	afb20100 	sw	s2,256(sp)
  410998:	afb100fc 	sw	s1,252(sp)
  41099c:	afb000f8 	sw	s0,248(sp)
  4109a0:	8f818134 	lw	at,-32460(gp)
  4109a4:	00000000 	nop
  4109a8:	ac200000 	sw	zero,0(at)
  4109ac:	8f818174 	lw	at,-32396(gp)
  4109b0:	00000000 	nop
  4109b4:	ac200000 	sw	zero,0(at)
  4109b8:	8f8180a8 	lw	at,-32600(gp)
  4109bc:	00000000 	nop
  4109c0:	ac200000 	sw	zero,0(at)
  4109c4:	8f8181cc 	lw	at,-32308(gp)
  4109c8:	00000000 	nop
  4109cc:	ac200000 	sw	zero,0(at)
  4109d0:	8f8180c4 	lw	at,-32572(gp)
  4109d4:	00000000 	nop
  4109d8:	ac200000 	sw	zero,0(at)
  4109dc:	00809821 	move	s3,a0
  4109e0:	8f8181a8 	lw	at,-32344(gp)
  4109e4:	00000000 	nop
  4109e8:	ac330000 	sw	s3,0(at)
  4109ec:	8f848020 	lw	a0,-32736(gp)
  4109f0:	00000000 	nop
  4109f4:	24844fcc 	addiu	a0,a0,20428		# "/sip/asc12"
  4109f8:	00002821 	move	a1,zero
  4109fc:	8f9980d0 	lw	t9,-32560(gp) <open>
  410a00:	00000000 	nop
  410a04:	0320f809 	jalr	t9
  410a08:	00000000 	nop
  410a0c:	8fbc0010 	lw	gp,16(sp)
  410a10:	00408821 	move	s1,v0
  410a14:	1a200059 	blez	s1,410b7c <FontInit+0x20c>
  410a18:	24040003 	li	a0,3
  410a1c:	02202821 	move	a1,s1
  410a20:	27a60018 	addiu	a2,sp,24
  410a24:	8f99814c 	lw	t9,-32436(gp) <__fxstat>
  410a28:	00000000 	nop
  410a2c:	0320f809 	jalr	t9
  410a30:	00000000 	nop
  410a34:	8fbc0010 	lw	gp,16(sp)
  410a38:	8fb00048 	lw	s0,72(sp)
  410a3c:	00000000 	nop
  410a40:	1a000047 	blez	s0,410b60 <FontInit+0x1f0>
  410a44:	24040c00 	li	a0,3072
  410a48:	8f998138 	lw	t9,-32456(gp) <my_malloc>
  410a4c:	00000000 	nop
  410a50:	0320f809 	jalr	t9
  410a54:	00000000 	nop
  410a58:	8fbc0010 	lw	gp,16(sp)
  410a5c:	00000000 	nop
  410a60:	8f8381a8 	lw	v1,-32344(gp)
  410a64:	00000000 	nop
  410a68:	8c630000 	lw	v1,0(v1)
  410a6c:	8f8180c4 	lw	at,-32572(gp)
  410a70:	00000000 	nop
  410a74:	ac220000 	sw	v0,0(at)
  410a78:	2c620009 	sltiu	v0,v1,9
  410a7c:	1040000b 	beqz	v0,410aac <FontInit+0x13c>
  410a80:	24100600 	li	s0,1536
  410a84:	00031080 	sll	v0,v1,0x2
  410a88:	8f818020 	lw	at,-32736(gp)
  410a8c:	00000000 	nop
  410a90:	24215068 	addiu	at,at,20584
  410a94:	00220821 	addu	at,at,v0
  410a98:	8c220000 	lw	v0,0(at)
  410a9c:	00000000 	nop
  410aa0:	005c1021 	addu	v0,v0,gp
  410aa4:	00400008 	jr	v0
  410aa8:	00000000 	nop
  410aac:	02202021 	move	a0,s1
  410ab0:	8f8580c4 	lw	a1,-32572(gp)
  410ab4:	00000000 	nop
  410ab8:	8ca50000 	lw	a1,0(a1)
  410abc:	26060600 	addiu	a2,s0,1536
  410ac0:	8f998048 	lw	t9,-32696(gp) <read>
  410ac4:	00000000 	nop
  410ac8:	0320f809 	jalr	t9
  410acc:	00000000 	nop
  410ad0:	8fbc0010 	lw	gp,16(sp)
  410ad4:	1000001f 	b	410b54 <FontInit+0x1e4>
  410ad8:	00000000 	nop
  410adc:	02202021 	move	a0,s1
  410ae0:	8f8580c4 	lw	a1,-32572(gp)
  410ae4:	00000000 	nop
  410ae8:	8ca50000 	lw	a1,0(a1)
  410aec:	24060600 	li	a2,1536
  410af0:	8f998048 	lw	t9,-32696(gp) <read>
  410af4:	00000000 	nop
  410af8:	0320f809 	jalr	t9
  410afc:	00000000 	nop
  410b00:	8fbc0010 	lw	gp,16(sp)
  410b04:	02202021 	move	a0,s1
  410b08:	26050600 	addiu	a1,s0,1536
  410b0c:	00003021 	move	a2,zero
  410b10:	8f9980f4 	lw	t9,-32524(gp) <lseek>
  410b14:	00000000 	nop
  410b18:	0320f809 	jalr	t9
  410b1c:	00000000 	nop
  410b20:	8fbc0010 	lw	gp,16(sp)
  410b24:	02202021 	move	a0,s1
  410b28:	8f8580c4 	lw	a1,-32572(gp)
  410b2c:	00000000 	nop
  410b30:	8ca50000 	lw	a1,0(a1)
  410b34:	24060480 	li	a2,1152
  410b38:	24a50780 	addiu	a1,a1,1920
  410b3c:	8f998048 	lw	t9,-32696(gp) <read>
  410b40:	00000000 	nop
  410b44:	0320f809 	jalr	t9
  410b48:	00000000 	nop
  410b4c:	8fbc0010 	lw	gp,16(sp)
  410b50:	00000000 	nop
  410b54:	8f81817c 	lw	at,-32388(gp)
  410b58:	00000000 	nop
  410b5c:	ac200000 	sw	zero,0(at)
  410b60:	02202021 	move	a0,s1
  410b64:	8f998238 	lw	t9,-32200(gp) <close>
  410b68:	00000000 	nop
  410b6c:	0320f809 	jalr	t9
  410b70:	00000000 	nop
  410b74:	8fbc0010 	lw	gp,16(sp)
  410b78:	00000000 	nop
  410b7c:	8f848020 	lw	a0,-32736(gp)
  410b80:	00000000 	nop
  410b84:	24844fd8 	addiu	a0,a0,20440		# "/sip/asc16"
  410b88:	00002821 	move	a1,zero
  410b8c:	8f9980d0 	lw	t9,-32560(gp) <open>
  410b90:	00000000 	nop
  410b94:	0320f809 	jalr	t9
  410b98:	00000000 	nop
  410b9c:	8fbc0010 	lw	gp,16(sp)
  410ba0:	00408821 	move	s1,v0
  410ba4:	1a200058 	blez	s1,410d08 <FontInit+0x398>
  410ba8:	24040003 	li	a0,3
  410bac:	02202821 	move	a1,s1
  410bb0:	27a60018 	addiu	a2,sp,24
  410bb4:	8f99814c 	lw	t9,-32436(gp) <__fxstat>
  410bb8:	00000000 	nop
  410bbc:	0320f809 	jalr	t9
  410bc0:	00000000 	nop
  410bc4:	8fbc0010 	lw	gp,16(sp)
  410bc8:	8fb00048 	lw	s0,72(sp)
  410bcc:	00000000 	nop
  410bd0:	1a000047 	blez	s0,410cf0 <FontInit+0x380>
  410bd4:	24041000 	li	a0,4096
  410bd8:	8f998138 	lw	t9,-32456(gp) <my_malloc>
  410bdc:	00000000 	nop
  410be0:	0320f809 	jalr	t9
  410be4:	00000000 	nop
  410be8:	8fbc0010 	lw	gp,16(sp)
  410bec:	00000000 	nop
  410bf0:	8f8381a8 	lw	v1,-32344(gp)
  410bf4:	00000000 	nop
  410bf8:	8c630000 	lw	v1,0(v1)
  410bfc:	8f8181cc 	lw	at,-32308(gp)
  410c00:	00000000 	nop
  410c04:	ac220000 	sw	v0,0(at)
  410c08:	2c620009 	sltiu	v0,v1,9
  410c0c:	1040000b 	beqz	v0,410c3c <FontInit+0x2cc>
  410c10:	24100800 	li	s0,2048
  410c14:	00031080 	sll	v0,v1,0x2
  410c18:	8f818020 	lw	at,-32736(gp)
  410c1c:	00000000 	nop
  410c20:	24215090 	addiu	at,at,20624
  410c24:	00220821 	addu	at,at,v0
  410c28:	8c220000 	lw	v0,0(at)
  410c2c:	00000000 	nop
  410c30:	005c1021 	addu	v0,v0,gp
  410c34:	00400008 	jr	v0
  410c38:	00000000 	nop
  410c3c:	02202021 	move	a0,s1
  410c40:	8f8581cc 	lw	a1,-32308(gp)
  410c44:	00000000 	nop
  410c48:	8ca50000 	lw	a1,0(a1)
  410c4c:	26060800 	addiu	a2,s0,2048
  410c50:	8f998048 	lw	t9,-32696(gp) <read>
  410c54:	00000000 	nop
  410c58:	0320f809 	jalr	t9
  410c5c:	00000000 	nop
  410c60:	8fbc0010 	lw	gp,16(sp)
  410c64:	1000001f 	b	410ce4 <FontInit+0x374>
  410c68:	00000000 	nop
  410c6c:	02202021 	move	a0,s1
  410c70:	8f8581cc 	lw	a1,-32308(gp)
  410c74:	00000000 	nop
  410c78:	8ca50000 	lw	a1,0(a1)
  410c7c:	24060800 	li	a2,2048
  410c80:	8f998048 	lw	t9,-32696(gp) <read>
  410c84:	00000000 	nop
  410c88:	0320f809 	jalr	t9
  410c8c:	00000000 	nop
  410c90:	8fbc0010 	lw	gp,16(sp)
  410c94:	02202021 	move	a0,s1
  410c98:	26050800 	addiu	a1,s0,2048
  410c9c:	00003021 	move	a2,zero
  410ca0:	8f9980f4 	lw	t9,-32524(gp) <lseek>
  410ca4:	00000000 	nop
  410ca8:	0320f809 	jalr	t9
  410cac:	00000000 	nop
  410cb0:	8fbc0010 	lw	gp,16(sp)
  410cb4:	02202021 	move	a0,s1
  410cb8:	8f8581cc 	lw	a1,-32308(gp)
  410cbc:	00000000 	nop
  410cc0:	8ca50000 	lw	a1,0(a1)
  410cc4:	24060600 	li	a2,1536
  410cc8:	24a50a00 	addiu	a1,a1,2560
  410ccc:	8f998048 	lw	t9,-32696(gp) <read>
  410cd0:	00000000 	nop
  410cd4:	0320f809 	jalr	t9
  410cd8:	00000000 	nop
  410cdc:	8fbc0010 	lw	gp,16(sp)
  410ce0:	00000000 	nop
  410ce4:	8f81817c 	lw	at,-32388(gp)
  410ce8:	00000000 	nop
  410cec:	ac200000 	sw	zero,0(at)
  410cf0:	02202021 	move	a0,s1
  410cf4:	8f998238 	lw	t9,-32200(gp) <close>
  410cf8:	00000000 	nop
  410cfc:	0320f809 	jalr	t9
  410d00:	00000000 	nop
  410d04:	8fbc0010 	lw	gp,16(sp)
  410d08:	24020007 	li	v0,7
  410d0c:	1262000c 	beq	s3,v0,410d40 <FontInit+0x3d0>
  410d10:	2a620008 	slti	v0,s3,8
  410d14:	10400005 	beqz	v0,410d2c <FontInit+0x3bc>
  410d18:	24020001 	li	v0,1
  410d1c:	12620068 	beq	s3,v0,410ec0 <FontInit+0x550>
  410d20:	27b200a8 	addiu	s2,sp,168
  410d24:	1000013a 	b	411210 <FontInit+0x8a0>
  410d28:	00000000 	nop
  410d2c:	24020008 	li	v0,8
  410d30:	126200ce 	beq	s3,v0,41106c <FontInit+0x6fc>
  410d34:	27b200a8 	addiu	s2,sp,168
  410d38:	10000135 	b	411210 <FontInit+0x8a0>
  410d3c:	00000000 	nop
  410d40:	27b200a8 	addiu	s2,sp,168
  410d44:	02402021 	move	a0,s2
  410d48:	00002821 	move	a1,zero
  410d4c:	24060050 	li	a2,80
  410d50:	8f998090 	lw	t9,-32624(gp) <memset>
  410d54:	00000000 	nop
  410d58:	0320f809 	jalr	t9
  410d5c:	00000000 	nop
  410d60:	8fbc0010 	lw	gp,16(sp)
  410d64:	02402021 	move	a0,s2
  410d68:	8f858020 	lw	a1,-32736(gp)
  410d6c:	00000000 	nop
  410d70:	24a54fe4 	addiu	a1,a1,20452		# "cp /sip/%s /sbin;gunzip /sbin/%s"
  410d74:	8f868020 	lw	a2,-32736(gp)
  410d78:	00000000 	nop
  410d7c:	24c65008 	addiu	a2,a2,20488		# "hzx12.gz"
  410d80:	00000000 	nop
  410d84:	00c03821 	move	a3,a2
  410d88:	8f998060 	lw	t9,-32672(gp) <sprintf>
  410d8c:	00000000 	nop
  410d90:	0320f809 	jalr	t9
  410d94:	00000000 	nop
  410d98:	8fbc0010 	lw	gp,16(sp)
  410d9c:	02402021 	move	a0,s2
  410da0:	8f9981ec 	lw	t9,-32276(gp) <system>
  410da4:	00000000 	nop
  410da8:	0320f809 	jalr	t9
  410dac:	00000000 	nop
  410db0:	8fbc0010 	lw	gp,16(sp)
  410db4:	00000000 	nop
  410db8:	8f938020 	lw	s3,-32736(gp)
  410dbc:	00000000 	nop
  410dc0:	26735014 	addiu	s3,s3,20500		# "/sbin/hzx12"
  410dc4:	00000000 	nop
  410dc8:	02602021 	move	a0,s3
  410dcc:	00002821 	move	a1,zero
  410dd0:	8f9980d0 	lw	t9,-32560(gp) <open>
  410dd4:	00000000 	nop
  410dd8:	0320f809 	jalr	t9
  410ddc:	00000000 	nop
  410de0:	8fbc0010 	lw	gp,16(sp)
  410de4:	00408821 	move	s1,v0
  410de8:	1a200027 	blez	s1,410e88 <FontInit+0x518>
  410dec:	24040003 	li	a0,3
  410df0:	02202821 	move	a1,s1
  410df4:	27a60018 	addiu	a2,sp,24
  410df8:	8f99814c 	lw	t9,-32436(gp) <__fxstat>
  410dfc:	00000000 	nop
  410e00:	0320f809 	jalr	t9
  410e04:	00000000 	nop
  410e08:	8fbc0010 	lw	gp,16(sp)
  410e0c:	8fb00048 	lw	s0,72(sp)
  410e10:	00000000 	nop
  410e14:	1a000016 	blez	s0,410e70 <FontInit+0x500>
  410e18:	02002021 	move	a0,s0
  410e1c:	8f998138 	lw	t9,-32456(gp) <my_malloc>
  410e20:	00000000 	nop
  410e24:	0320f809 	jalr	t9
  410e28:	00000000 	nop
  410e2c:	8fbc0010 	lw	gp,16(sp)
  410e30:	00000000 	nop
  410e34:	8f8180a8 	lw	at,-32600(gp)
  410e38:	00000000 	nop
  410e3c:	ac220000 	sw	v0,0(at)
  410e40:	02202021 	move	a0,s1
  410e44:	00402821 	move	a1,v0
  410e48:	02003021 	move	a2,s0
  410e4c:	8f998048 	lw	t9,-32696(gp) <read>
  410e50:	00000000 	nop
  410e54:	0320f809 	jalr	t9
  410e58:	00000000 	nop
  410e5c:	8fbc0010 	lw	gp,16(sp)
  410e60:	24020001 	li	v0,1
  410e64:	8f81817c 	lw	at,-32388(gp)
  410e68:	00000000 	nop
  410e6c:	ac220000 	sw	v0,0(at)
  410e70:	02202021 	move	a0,s1
  410e74:	8f998238 	lw	t9,-32200(gp) <close>
  410e78:	00000000 	nop
  410e7c:	0320f809 	jalr	t9
  410e80:	00000000 	nop
  410e84:	8fbc0010 	lw	gp,16(sp)
  410e88:	02402021 	move	a0,s2
  410e8c:	00002821 	move	a1,zero
  410e90:	24060050 	li	a2,80
  410e94:	8f998090 	lw	t9,-32624(gp) <memset>
  410e98:	00000000 	nop
  410e9c:	0320f809 	jalr	t9
  410ea0:	00000000 	nop
  410ea4:	8fbc0010 	lw	gp,16(sp)
  410ea8:	02402021 	move	a0,s2
  410eac:	8f858020 	lw	a1,-32736(gp)
  410eb0:	00000000 	nop
  410eb4:	24a55020 	addiu	a1,a1,20512		# "rm %s"
  410eb8:	1000005f 	b	411038 <FontInit+0x6c8>
  410ebc:	02603021 	move	a2,s3
  410ec0:	02402021 	move	a0,s2
  410ec4:	00002821 	move	a1,zero
  410ec8:	24060050 	li	a2,80
  410ecc:	8f998090 	lw	t9,-32624(gp) <memset>
  410ed0:	00000000 	nop
  410ed4:	0320f809 	jalr	t9
  410ed8:	00000000 	nop
  410edc:	8fbc0010 	lw	gp,16(sp)
  410ee0:	02402021 	move	a0,s2
  410ee4:	8f858020 	lw	a1,-32736(gp)
  410ee8:	00000000 	nop
  410eec:	24a54fe4 	addiu	a1,a1,20452		# "cp /sip/%s /sbin;gunzip /sbin/%s"
  410ef0:	8f868020 	lw	a2,-32736(gp)
  410ef4:	00000000 	nop
  410ef8:	24c65028 	addiu	a2,a2,20520		# "k12x12.fnt.gz"
  410efc:	00000000 	nop
  410f00:	00c03821 	move	a3,a2
  410f04:	8f998060 	lw	t9,-32672(gp) <sprintf>
  410f08:	00000000 	nop
  410f0c:	0320f809 	jalr	t9
  410f10:	00000000 	nop
  410f14:	8fbc0010 	lw	gp,16(sp)
  410f18:	02402021 	move	a0,s2
  410f1c:	8f9981ec 	lw	t9,-32276(gp) <system>
  410f20:	00000000 	nop
  410f24:	0320f809 	jalr	t9
  410f28:	00000000 	nop
  410f2c:	8fbc0010 	lw	gp,16(sp)
  410f30:	00000000 	nop
  410f34:	8f948020 	lw	s4,-32736(gp)
  410f38:	00000000 	nop
  410f3c:	26945038 	addiu	s4,s4,20536		# "/sbin/k12x12.fnt"
  410f40:	00000000 	nop
  410f44:	02802021 	move	a0,s4
  410f48:	00002821 	move	a1,zero
  410f4c:	8f9980d0 	lw	t9,-32560(gp) <open>
  410f50:	00000000 	nop
  410f54:	0320f809 	jalr	t9
  410f58:	00000000 	nop
  410f5c:	8fbc0010 	lw	gp,16(sp)
  410f60:	00408821 	move	s1,v0
  410f64:	1a200027 	blez	s1,411004 <FontInit+0x694>
  410f68:	24040003 	li	a0,3
  410f6c:	02202821 	move	a1,s1
  410f70:	27a60018 	addiu	a2,sp,24
  410f74:	8f99814c 	lw	t9,-32436(gp) <__fxstat>
  410f78:	00000000 	nop
  410f7c:	0320f809 	jalr	t9
  410f80:	00000000 	nop
  410f84:	8fbc0010 	lw	gp,16(sp)
  410f88:	8fb00048 	lw	s0,72(sp)
  410f8c:	00000000 	nop
  410f90:	1a000016 	blez	s0,410fec <FontInit+0x67c>
  410f94:	02002021 	move	a0,s0
  410f98:	8f998138 	lw	t9,-32456(gp) <my_malloc>
  410f9c:	00000000 	nop
  410fa0:	0320f809 	jalr	t9
  410fa4:	00000000 	nop
  410fa8:	8fbc0010 	lw	gp,16(sp)
  410fac:	00000000 	nop
  410fb0:	8f818134 	lw	at,-32460(gp)
  410fb4:	00000000 	nop
  410fb8:	ac220000 	sw	v0,0(at)
  410fbc:	02202021 	move	a0,s1
  410fc0:	00402821 	move	a1,v0
  410fc4:	02003021 	move	a2,s0
  410fc8:	8f998048 	lw	t9,-32696(gp) <read>
  410fcc:	00000000 	nop
  410fd0:	0320f809 	jalr	t9
  410fd4:	00000000 	nop
  410fd8:	8fbc0010 	lw	gp,16(sp)
  410fdc:	00000000 	nop
  410fe0:	8f81817c 	lw	at,-32388(gp)
  410fe4:	00000000 	nop
  410fe8:	ac330000 	sw	s3,0(at)
  410fec:	02202021 	move	a0,s1
  410ff0:	8f998238 	lw	t9,-32200(gp) <close>
  410ff4:	00000000 	nop
  410ff8:	0320f809 	jalr	t9
  410ffc:	00000000 	nop
  411000:	8fbc0010 	lw	gp,16(sp)
  411004:	02402021 	move	a0,s2
  411008:	00002821 	move	a1,zero
  41100c:	24060050 	li	a2,80
  411010:	8f998090 	lw	t9,-32624(gp) <memset>
  411014:	00000000 	nop
  411018:	0320f809 	jalr	t9
  41101c:	00000000 	nop
  411020:	8fbc0010 	lw	gp,16(sp)
  411024:	02402021 	move	a0,s2
  411028:	8f858020 	lw	a1,-32736(gp)
  41102c:	00000000 	nop
  411030:	24a55020 	addiu	a1,a1,20512		# "rm %s"
  411034:	02803021 	move	a2,s4
  411038:	8f998060 	lw	t9,-32672(gp) <sprintf>
  41103c:	00000000 	nop
  411040:	0320f809 	jalr	t9
  411044:	00000000 	nop
  411048:	8fbc0010 	lw	gp,16(sp)
  41104c:	02402021 	move	a0,s2
  411050:	8f9981ec 	lw	t9,-32276(gp) <system>
  411054:	00000000 	nop
  411058:	0320f809 	jalr	t9
  41105c:	00000000 	nop
  411060:	8fbc0010 	lw	gp,16(sp)
  411064:	1000006a 	b	411210 <FontInit+0x8a0>
  411068:	00000000 	nop
  41106c:	02402021 	move	a0,s2
  411070:	00002821 	move	a1,zero
  411074:	24060050 	li	a2,80
  411078:	8f998090 	lw	t9,-32624(gp) <memset>
  41107c:	00000000 	nop
  411080:	0320f809 	jalr	t9
  411084:	00000000 	nop
  411088:	8fbc0010 	lw	gp,16(sp)
  41108c:	02402021 	move	a0,s2
  411090:	8f858020 	lw	a1,-32736(gp)
  411094:	00000000 	nop
  411098:	24a54fe4 	addiu	a1,a1,20452		# "cp /sip/%s /sbin;gunzip /sbin/%s"
  41109c:	8f868020 	lw	a2,-32736(gp)
  4110a0:	00000000 	nop
  4110a4:	24c6504c 	addiu	a2,a2,20556		# "hzk12.gz"
  4110a8:	00000000 	nop
  4110ac:	00c03821 	move	a3,a2
  4110b0:	8f998060 	lw	t9,-32672(gp) <sprintf>
  4110b4:	00000000 	nop
  4110b8:	0320f809 	jalr	t9
  4110bc:	00000000 	nop
  4110c0:	8fbc0010 	lw	gp,16(sp)
  4110c4:	02402021 	move	a0,s2
  4110c8:	8f9981ec 	lw	t9,-32276(gp) <system>
  4110cc:	00000000 	nop
  4110d0:	0320f809 	jalr	t9
  4110d4:	00000000 	nop
  4110d8:	8fbc0010 	lw	gp,16(sp)
  4110dc:	00000000 	nop
  4110e0:	8f938020 	lw	s3,-32736(gp)
  4110e4:	00000000 	nop
  4110e8:	26735058 	addiu	s3,s3,20568		# "/sbin/hzk12"
  4110ec:	00000000 	nop
  4110f0:	02602021 	move	a0,s3
  4110f4:	00002821 	move	a1,zero
  4110f8:	8f9980d0 	lw	t9,-32560(gp) <open>
  4110fc:	00000000 	nop
  411100:	0320f809 	jalr	t9
  411104:	00000000 	nop
  411108:	8fbc0010 	lw	gp,16(sp)
  41110c:	00408821 	move	s1,v0
  411110:	1a200027 	blez	s1,4111b0 <FontInit+0x840>
  411114:	24040003 	li	a0,3
  411118:	02202821 	move	a1,s1
  41111c:	27a60018 	addiu	a2,sp,24
  411120:	8f99814c 	lw	t9,-32436(gp) <__fxstat>
  411124:	00000000 	nop
  411128:	0320f809 	jalr	t9
  41112c:	00000000 	nop
  411130:	8fbc0010 	lw	gp,16(sp)
  411134:	8fb00048 	lw	s0,72(sp)
  411138:	00000000 	nop
  41113c:	1a000016 	blez	s0,411198 <FontInit+0x828>
  411140:	02002021 	move	a0,s0
  411144:	8f998138 	lw	t9,-32456(gp) <my_malloc>
  411148:	00000000 	nop
  41114c:	0320f809 	jalr	t9
  411150:	00000000 	nop
  411154:	8fbc0010 	lw	gp,16(sp)
  411158:	00000000 	nop
  41115c:	8f818174 	lw	at,-32396(gp)
  411160:	00000000 	nop
  411164:	ac220000 	sw	v0,0(at)
  411168:	02202021 	move	a0,s1
  41116c:	00402821 	move	a1,v0
  411170:	02003021 	move	a2,s0
  411174:	8f998048 	lw	t9,-32696(gp) <read>
  411178:	00000000 	nop
  41117c:	0320f809 	jalr	t9
  411180:	00000000 	nop
  411184:	8fbc0010 	lw	gp,16(sp)
  411188:	24020001 	li	v0,1
  41118c:	8f81817c 	lw	at,-32388(gp)
  411190:	00000000 	nop
  411194:	ac220000 	sw	v0,0(at)
  411198:	02202021 	move	a0,s1
  41119c:	8f998238 	lw	t9,-32200(gp) <close>
  4111a0:	00000000 	nop
  4111a4:	0320f809 	jalr	t9
  4111a8:	00000000 	nop
  4111ac:	8fbc0010 	lw	gp,16(sp)
  4111b0:	02402021 	move	a0,s2
  4111b4:	00002821 	move	a1,zero
  4111b8:	24060050 	li	a2,80
  4111bc:	8f998090 	lw	t9,-32624(gp) <memset>
  4111c0:	00000000 	nop
  4111c4:	0320f809 	jalr	t9
  4111c8:	00000000 	nop
  4111cc:	8fbc0010 	lw	gp,16(sp)
  4111d0:	02402021 	move	a0,s2
  4111d4:	8f858020 	lw	a1,-32736(gp)
  4111d8:	00000000 	nop
  4111dc:	24a55020 	addiu	a1,a1,20512		# "rm %s"
  4111e0:	02603021 	move	a2,s3
  4111e4:	8f998060 	lw	t9,-32672(gp) <sprintf>
  4111e8:	00000000 	nop
  4111ec:	0320f809 	jalr	t9
  4111f0:	00000000 	nop
  4111f4:	8fbc0010 	lw	gp,16(sp)
  4111f8:	02402021 	move	a0,s2
  4111fc:	8f9981ec 	lw	t9,-32276(gp) <system>
  411200:	00000000 	nop
  411204:	0320f809 	jalr	t9
  411208:	00000000 	nop
  41120c:	8fbc0010 	lw	gp,16(sp)
  411210:	8fbf0110 	lw	ra,272(sp)
  411214:	8fb40108 	lw	s4,264(sp)
  411218:	8fb30104 	lw	s3,260(sp)
  41121c:	8fb20100 	lw	s2,256(sp)
  411220:	8fb100fc 	lw	s1,252(sp)
  411224:	8fb000f8 	lw	s0,248(sp)
  411228:	03e00008 	jr	ra
  41122c:	27bd0118 	addiu	sp,sp,280

00411230 <FontFin>:
  411230:	3c1c0fc0 	lui	gp,0xfc0
  411234:	279c8060 	addiu	gp,gp,-32672
  411238:	0399e021 	addu	gp,gp,t9
  41123c:	27bdffe0 	addiu	sp,sp,-32
  411240:	afbc0010 	sw	gp,16(sp)
  411244:	afbf001c 	sw	ra,28(sp)
  411248:	8f8480c4 	lw	a0,-32572(gp)
  41124c:	00000000 	nop
  411250:	8c840000 	lw	a0,0(a0)
  411254:	00000000 	nop
  411258:	10800007 	beqz	a0,411278 <FontFin+0x48>
  41125c:	afbc0018 	sw	gp,24(sp)
  411260:	8f9981b4 	lw	t9,-32332(gp) <my_free>
  411264:	00000000 	nop
  411268:	0320f809 	jalr	t9
  41126c:	00000000 	nop
  411270:	8fbc0010 	lw	gp,16(sp)
  411274:	00000000 	nop
  411278:	8f8481cc 	lw	a0,-32308(gp)
  41127c:	00000000 	nop
  411280:	8c840000 	lw	a0,0(a0)
  411284:	00000000 	nop
  411288:	10800007 	beqz	a0,4112a8 <FontFin+0x78>
  41128c:	00000000 	nop
  411290:	8f9981b4 	lw	t9,-32332(gp) <my_free>
  411294:	00000000 	nop
  411298:	0320f809 	jalr	t9
  41129c:	00000000 	nop
  4112a0:	8fbc0010 	lw	gp,16(sp)
  4112a4:	00000000 	nop
  4112a8:	8f8480a8 	lw	a0,-32600(gp)
  4112ac:	00000000 	nop
  4112b0:	8c840000 	lw	a0,0(a0)
  4112b4:	00000000 	nop
  4112b8:	10800007 	beqz	a0,4112d8 <FontFin+0xa8>
  4112bc:	00000000 	nop
  4112c0:	8f9981b4 	lw	t9,-32332(gp) <my_free>
  4112c4:	00000000 	nop
  4112c8:	0320f809 	jalr	t9
  4112cc:	00000000 	nop
  4112d0:	8fbc0010 	lw	gp,16(sp)
  4112d4:	00000000 	nop
  4112d8:	8f848174 	lw	a0,-32396(gp)
  4112dc:	00000000 	nop
  4112e0:	8c840000 	lw	a0,0(a0)
  4112e4:	00000000 	nop
  4112e8:	10800007 	beqz	a0,411308 <FontFin+0xd8>
  4112ec:	00000000 	nop
  4112f0:	8f9981b4 	lw	t9,-32332(gp) <my_free>
  4112f4:	00000000 	nop
  4112f8:	0320f809 	jalr	t9
  4112fc:	00000000 	nop
  411300:	8fbc0010 	lw	gp,16(sp)
  411304:	00000000 	nop
  411308:	8f848134 	lw	a0,-32460(gp)
  41130c:	00000000 	nop
  411310:	8c840000 	lw	a0,0(a0)
  411314:	00000000 	nop
  411318:	10800006 	beqz	a0,411334 <FontFin+0x104>
  41131c:	00000000 	nop
  411320:	8f9981b4 	lw	t9,-32332(gp) <my_free>
  411324:	00000000 	nop
  411328:	0320f809 	jalr	t9
  41132c:	00000000 	nop
  411330:	8fbc0010 	lw	gp,16(sp)
  411334:	8fbf001c 	lw	ra,28(sp)
  411338:	00000000 	nop
  41133c:	03e00008 	jr	ra
  411340:	27bd0020 	addiu	sp,sp,32

00411344 <FillScreen>:
  411344:	3c1c0fbf 	lui	gp,0xfbf
  411348:	279c7f4c 	addiu	gp,gp,32588
  41134c:	0399e021 	addu	gp,gp,t9
  411350:	27bdffe0 	addiu	sp,sp,-32
  411354:	afbc0010 	sw	gp,16(sp)
  411358:	afbf001c 	sw	ra,28(sp)
  41135c:	afbc0018 	sw	gp,24(sp)
  411360:	00802821 	move	a1,a0
  411364:	8f848214 	lw	a0,-32236(gp)
  411368:	24060400 	li	a2,1024
  41136c:	8f998090 	lw	t9,-32624(gp) <memset>
  411370:	00000000 	nop
  411374:	0320f809 	jalr	t9
  411378:	00000000 	nop
  41137c:	8fbc0010 	lw	gp,16(sp)
  411380:	8fbf001c 	lw	ra,28(sp)
  411384:	00000000 	nop
  411388:	03e00008 	jr	ra
  41138c:	27bd0020 	addiu	sp,sp,32

00411390 <LCDDrawPoint>:
  411390:	3c1c0fbf 	lui	gp,0xfbf
  411394:	279c7f00 	addiu	gp,gp,32512
  411398:	0399e021 	addu	gp,gp,t9
  41139c:	00804021 	move	t0,a0
  4113a0:	2d020081 	sltiu	v0,t0,129
  4113a4:	10400029 	beqz	v0,41144c <LCDDrawPoint+0xbc>
  4113a8:	00a03821 	move	a3,a1
  4113ac:	04e00027 	bltz	a3,41144c <LCDDrawPoint+0xbc>
  4113b0:	28e20041 	slti	v0,a3,65
  4113b4:	10400025 	beqz	v0,41144c <LCDDrawPoint+0xbc>
  4113b8:	00000000 	nop
  4113bc:	10c00012 	beqz	a2,411408 <LCDDrawPoint+0x78>
  4113c0:	00000000 	nop
  4113c4:	04e10002 	bgez	a3,4113d0 <LCDDrawPoint+0x40>
  4113c8:	00e02021 	move	a0,a3
  4113cc:	24e40007 	addiu	a0,a3,7
  4113d0:	000420c3 	sra	a0,a0,0x3
  4113d4:	000429c0 	sll	a1,a0,0x7
  4113d8:	01052821 	addu	a1,t0,a1
  4113dc:	8f818214 	lw	at,-32236(gp)
  4113e0:	00000000 	nop
  4113e4:	00252821 	addu	a1,at,a1
  4113e8:	000420c0 	sll	a0,a0,0x3
  4113ec:	00e42023 	subu	a0,a3,a0
  4113f0:	24020001 	li	v0,1
  4113f4:	90a30000 	lbu	v1,0(a1)
  4113f8:	00821004 	sllv	v0,v0,a0
  4113fc:	00621825 	or	v1,v1,v0
  411400:	03e00008 	jr	ra
  411404:	a0a30000 	sb	v1,0(a1)
  411408:	04e10002 	bgez	a3,411414 <LCDDrawPoint+0x84>
  41140c:	00e01821 	move	v1,a3
  411410:	24e30007 	addiu	v1,a3,7
  411414:	000318c3 	sra	v1,v1,0x3
  411418:	000321c0 	sll	a0,v1,0x7
  41141c:	01042021 	addu	a0,t0,a0
  411420:	8f818214 	lw	at,-32236(gp)
  411424:	00000000 	nop
  411428:	00242021 	addu	a0,at,a0
  41142c:	000318c0 	sll	v1,v1,0x3
  411430:	00e31823 	subu	v1,a3,v1
  411434:	24020001 	li	v0,1
  411438:	00621004 	sllv	v0,v0,v1
  41143c:	90830000 	lbu	v1,0(a0)
  411440:	00021027 	nor	v0,zero,v0
  411444:	00621824 	and	v1,v1,v0
  411448:	a0830000 	sb	v1,0(a0)
  41144c:	03e00008 	jr	ra
  411450:	00000000 	nop

00411454 <LCDFlushScreen>:
  411454:	3c1c0fbf 	lui	gp,0xfbf
  411458:	279c7e3c 	addiu	gp,gp,32316
  41145c:	0399e021 	addu	gp,gp,t9
  411460:	27bdffe0 	addiu	sp,sp,-32
  411464:	afbc0010 	sw	gp,16(sp)
  411468:	afbf001c 	sw	ra,28(sp)
  41146c:	afbc0018 	sw	gp,24(sp)
  411470:	24051232 	li	a1,4658
  411474:	8f848220 	lw	a0,-32224(gp)
  411478:	00000000 	nop
  41147c:	8c840000 	lw	a0,0(a0)
  411480:	8f868214 	lw	a2,-32236(gp)
  411484:	8f998094 	lw	t9,-32620(gp) <ioctl>
  411488:	00000000 	nop
  41148c:	0320f809 	jalr	t9
  411490:	00000000 	nop
  411494:	8fbc0010 	lw	gp,16(sp)
  411498:	8fbf001c 	lw	ra,28(sp)
  41149c:	00000000 	nop
  4114a0:	03e00008 	jr	ra
  4114a4:	27bd0020 	addiu	sp,sp,32
  4114a8:	3c1c0fbf 	lui	gp,0xfbf
  4114ac:	279c7de8 	addiu	gp,gp,32232
  4114b0:	0399e021 	addu	gp,gp,t9
  4114b4:	27bdffc0 	addiu	sp,sp,-64
  4114b8:	afbc0010 	sw	gp,16(sp)
  4114bc:	afbf003c 	sw	ra,60(sp)
  4114c0:	afbc0038 	sw	gp,56(sp)
  4114c4:	afb70034 	sw	s7,52(sp)
  4114c8:	afb60030 	sw	s6,48(sp)
  4114cc:	afb5002c 	sw	s5,44(sp)
  4114d0:	afb40028 	sw	s4,40(sp)
  4114d4:	afb30024 	sw	s3,36(sp)
  4114d8:	afb20020 	sw	s2,32(sp)
  4114dc:	afb1001c 	sw	s1,28(sp)
  4114e0:	afb00018 	sw	s0,24(sp)
  4114e4:	0080b021 	move	s6,a0
  4114e8:	00a0b821 	move	s7,a1
  4114ec:	00e0a821 	move	s5,a3
  4114f0:	92a30002 	lbu	v1,2(s5)
  4114f4:	24020010 	li	v0,16
  4114f8:	1462000c 	bne	v1,v0,41152c <LCDFlushScreen+0xd8>
  4114fc:	00c02021 	move	a0,a2
  411500:	8f8381cc 	lw	v1,-32308(gp)
  411504:	00000000 	nop
  411508:	8c630000 	lw	v1,0(v1)
  41150c:	00000000 	nop
  411510:	1060006c 	beqz	v1,4116c4 <LCDFlushScreen+0x270>
  411514:	00001021 	move	v0,zero
  411518:	00041100 	sll	v0,a0,0x4
  41151c:	00629821 	addu	s3,v1,v0
  411520:	24120008 	li	s2,8
  411524:	1000000d 	b	41155c <LCDFlushScreen+0x108>
  411528:	24140010 	li	s4,16
  41152c:	8f8680c4 	lw	a2,-32572(gp)
  411530:	00000000 	nop
  411534:	8cc60000 	lw	a2,0(a2)
  411538:	00000000 	nop
  41153c:	10c00061 	beqz	a2,4116c4 <LCDFlushScreen+0x270>
  411540:	00001021 	move	v0,zero
  411544:	2402000c 	li	v0,12
  411548:	00820018 	mult	a0,v0
  41154c:	24120006 	li	s2,6
  411550:	2414000c 	li	s4,12
  411554:	00001012 	mflo	v0
  411558:	00c29821 	addu	s3,a2,v0
  41155c:	02d21021 	addu	v0,s6,s2
  411560:	28420081 	slti	v0,v0,129
  411564:	14400002 	bnez	v0,411570 <LCDFlushScreen+0x11c>
  411568:	24020080 	li	v0,128
  41156c:	00569023 	subu	s2,v0,s6
  411570:	92a20001 	lbu	v0,1(s5)
  411574:	00000000 	nop
  411578:	10400027 	beqz	v0,411618 <LCDFlushScreen+0x1c4>
  41157c:	00000000 	nop
  411580:	1280004f 	beqz	s4,4116c0 <LCDFlushScreen+0x26c>
  411584:	00008821 	move	s1,zero
  411588:	1a40001d 	blez	s2,411600 <LCDFlushScreen+0x1ac>
  41158c:	00008021 	move	s0,zero
  411590:	06010002 	bgez	s0,41159c <LCDFlushScreen+0x148>
  411594:	02001821 	move	v1,s0
  411598:	26030007 	addiu	v1,s0,7
  41159c:	000318c3 	sra	v1,v1,0x3
  4115a0:	02231021 	addu	v0,s1,v1
  4115a4:	02621021 	addu	v0,s3,v0
  4115a8:	90440000 	lbu	a0,0(v0)
  4115ac:	000318c0 	sll	v1,v1,0x3
  4115b0:	02031823 	subu	v1,s0,v1
  4115b4:	24020007 	li	v0,7
  4115b8:	00431023 	subu	v0,v0,v1
  4115bc:	00442007 	srav	a0,a0,v0
  4115c0:	30840001 	andi	a0,a0,0x1
  4115c4:	1080000a 	beqz	a0,4115f0 <LCDFlushScreen+0x19c>
  4115c8:	02d02021 	addu	a0,s6,s0
  4115cc:	92a60000 	lbu	a2,0(s5)
  4115d0:	02f12821 	addu	a1,s7,s1
  4115d4:	8f998020 	lw	t9,-32736(gp)
  4115d8:	00000000 	nop
  4115dc:	27391390 	addiu	t9,t9,5008
  4115e0:	00000000 	nop
  4115e4:	0320f809 	jalr	t9
  4115e8:	00000000 	nop
  4115ec:	8fbc0010 	lw	gp,16(sp)
  4115f0:	26100001 	addiu	s0,s0,1
  4115f4:	0212102a 	slt	v0,s0,s2
  4115f8:	1440ffe5 	bnez	v0,411590 <LCDFlushScreen+0x13c>
  4115fc:	00000000 	nop
  411600:	26310001 	addiu	s1,s1,1
  411604:	0234102a 	slt	v0,s1,s4
  411608:	1440ffdf 	bnez	v0,411588 <LCDFlushScreen+0x134>
  41160c:	02401021 	move	v0,s2
  411610:	1000002c 	b	4116c4 <LCDFlushScreen+0x270>
  411614:	00000000 	nop
  411618:	12800029 	beqz	s4,4116c0 <LCDFlushScreen+0x26c>
  41161c:	00008821 	move	s1,zero
  411620:	1a400023 	blez	s2,4116b0 <LCDFlushScreen+0x25c>
  411624:	00008021 	move	s0,zero
  411628:	02001821 	move	v1,s0
  41162c:	02d03821 	addu	a3,s6,s0
  411630:	06010002 	bgez	s0,41163c <LCDFlushScreen+0x1e8>
  411634:	02f12821 	addu	a1,s7,s1
  411638:	26030007 	addiu	v1,s0,7
  41163c:	000318c3 	sra	v1,v1,0x3
  411640:	02231021 	addu	v0,s1,v1
  411644:	02621021 	addu	v0,s3,v0
  411648:	90440000 	lbu	a0,0(v0)
  41164c:	000318c0 	sll	v1,v1,0x3
  411650:	02031823 	subu	v1,s0,v1
  411654:	24020007 	li	v0,7
  411658:	00431023 	subu	v0,v0,v1
  41165c:	00442007 	srav	a0,a0,v0
  411660:	30840001 	andi	a0,a0,0x1
  411664:	10800004 	beqz	a0,411678 <LCDFlushScreen+0x224>
  411668:	00e02021 	move	a0,a3
  41166c:	92a60000 	lbu	a2,0(s5)
  411670:	10000004 	b	411684 <LCDFlushScreen+0x230>
  411674:	00000000 	nop
  411678:	92a20000 	lbu	v0,0(s5)
  41167c:	00000000 	nop
  411680:	2c460001 	sltiu	a2,v0,1
  411684:	8f998020 	lw	t9,-32736(gp)
  411688:	00000000 	nop
  41168c:	27391390 	addiu	t9,t9,5008
  411690:	00000000 	nop
  411694:	0320f809 	jalr	t9
  411698:	00000000 	nop
  41169c:	8fbc0010 	lw	gp,16(sp)
  4116a0:	26100001 	addiu	s0,s0,1
  4116a4:	0212102a 	slt	v0,s0,s2
  4116a8:	1440ffe0 	bnez	v0,41162c <LCDFlushScreen+0x1d8>
  4116ac:	02001821 	move	v1,s0
  4116b0:	26310001 	addiu	s1,s1,1
  4116b4:	0234102a 	slt	v0,s1,s4
  4116b8:	1440ffd9 	bnez	v0,411620 <LCDFlushScreen+0x1cc>
  4116bc:	00000000 	nop
  4116c0:	02401021 	move	v0,s2
  4116c4:	8fbf003c 	lw	ra,60(sp)
  4116c8:	8fb70034 	lw	s7,52(sp)
  4116cc:	8fb60030 	lw	s6,48(sp)
  4116d0:	8fb5002c 	lw	s5,44(sp)
  4116d4:	8fb40028 	lw	s4,40(sp)
  4116d8:	8fb30024 	lw	s3,36(sp)
  4116dc:	8fb20020 	lw	s2,32(sp)
  4116e0:	8fb1001c 	lw	s1,28(sp)
  4116e4:	8fb00018 	lw	s0,24(sp)
  4116e8:	03e00008 	jr	ra
  4116ec:	27bd0040 	addiu	sp,sp,64
  4116f0:	3c1c0fbf 	lui	gp,0xfbf
  4116f4:	279c7ba0 	addiu	gp,gp,31648
  4116f8:	0399e021 	addu	gp,gp,t9
  4116fc:	27bdffb0 	addiu	sp,sp,-80
  411700:	afbc0010 	sw	gp,16(sp)
  411704:	afbf0048 	sw	ra,72(sp)
  411708:	afbe0044 	sw	s8,68(sp)
  41170c:	afbc0040 	sw	gp,64(sp)
  411710:	afb7003c 	sw	s7,60(sp)
  411714:	afb60038 	sw	s6,56(sp)
  411718:	afb50034 	sw	s5,52(sp)
  41171c:	afb40030 	sw	s4,48(sp)
  411720:	afb3002c 	sw	s3,44(sp)
  411724:	afb20028 	sw	s2,40(sp)
  411728:	afb10024 	sw	s1,36(sp)
  41172c:	afb00020 	sw	s0,32(sp)
  411730:	afa40050 	sw	a0,80(sp)
  411734:	00a0f021 	move	s8,a1
  411738:	8f8381a8 	lw	v1,-32344(gp)
  41173c:	00000000 	nop
  411740:	8c630000 	lw	v1,0(v1)
  411744:	24020007 	li	v0,7
  411748:	1062000d 	beq	v1,v0,411780 <LCDFlushScreen+0x32c>
  41174c:	00e0b021 	move	s6,a3
  411750:	28620008 	slti	v0,v1,8
  411754:	10400005 	beqz	v0,41176c <LCDFlushScreen+0x318>
  411758:	24020001 	li	v0,1
  41175c:	1062000d 	beq	v1,v0,411794 <LCDFlushScreen+0x340>
  411760:	00001021 	move	v0,zero
  411764:	10000014 	b	4117b8 <LCDFlushScreen+0x364>
  411768:	00000000 	nop
  41176c:	24020008 	li	v0,8
  411770:	1062000d 	beq	v1,v0,4117a8 <LCDFlushScreen+0x354>
  411774:	00001021 	move	v0,zero
  411778:	1000000f 	b	4117b8 <LCDFlushScreen+0x364>
  41177c:	00000000 	nop
  411780:	8f8880a8 	lw	t0,-32600(gp)
  411784:	00000000 	nop
  411788:	8d080000 	lw	t0,0(t0)
  41178c:	1000000a 	b	4117b8 <LCDFlushScreen+0x364>
  411790:	00001021 	move	v0,zero
  411794:	8f888134 	lw	t0,-32460(gp)
  411798:	00000000 	nop
  41179c:	8d080000 	lw	t0,0(t0)
  4117a0:	10000005 	b	4117b8 <LCDFlushScreen+0x364>
  4117a4:	00000000 	nop
  4117a8:	8f888174 	lw	t0,-32396(gp)
  4117ac:	00000000 	nop
  4117b0:	8d080000 	lw	t0,0(t0)
  4117b4:	00000000 	nop
  4117b8:	110000f1 	beqz	t0,411b80 <LCDFlushScreen+0x72c>
  4117bc:	2403000c 	li	v1,12
  4117c0:	24020012 	li	v0,18
  4117c4:	00c20018 	mult	a2,v0
  4117c8:	afa30018 	sw	v1,24(sp)
  4117cc:	8fa30050 	lw	v1,80(sp)
  4117d0:	00001012 	mflo	v0
  4117d4:	01029821 	addu	s3,t0,v0
  4117d8:	2462000c 	addiu	v0,v1,12
  4117dc:	28420081 	slti	v0,v0,129
  4117e0:	14400003 	bnez	v0,4117f0 <LCDFlushScreen+0x39c>
  4117e4:	24020080 	li	v0,128
  4117e8:	00431023 	subu	v0,v0,v1
  4117ec:	afa20018 	sw	v0,24(sp)
  4117f0:	92c20001 	lbu	v0,1(s6)
  4117f4:	00000000 	nop
  4117f8:	10400065 	beqz	v0,411990 <LCDFlushScreen+0x53c>
  4117fc:	0000b821 	move	s7,zero
  411800:	03c0a821 	move	s5,s8
  411804:	03c0a021 	move	s4,s8
  411808:	00008021 	move	s0,zero
  41180c:	92630000 	lbu	v1,0(s3)
  411810:	24020007 	li	v0,7
  411814:	00501023 	subu	v0,v0,s0
  411818:	00431807 	srav	v1,v1,v0
  41181c:	30630001 	andi	v1,v1,0x1
  411820:	1060000c 	beqz	v1,411854 <LCDFlushScreen+0x400>
  411824:	00172840 	sll	a1,s7,0x1
  411828:	03c52821 	addu	a1,s8,a1
  41182c:	8fa20050 	lw	v0,80(sp)
  411830:	92c60000 	lbu	a2,0(s6)
  411834:	00502021 	addu	a0,v0,s0
  411838:	8f998020 	lw	t9,-32736(gp)
  41183c:	00000000 	nop
  411840:	27391390 	addiu	t9,t9,5008
  411844:	00000000 	nop
  411848:	0320f809 	jalr	t9
  41184c:	00000000 	nop
  411850:	8fbc0010 	lw	gp,16(sp)
  411854:	26100001 	addiu	s0,s0,1
  411858:	2a020008 	slti	v0,s0,8
  41185c:	1440ffeb 	bnez	v0,41180c <LCDFlushScreen+0x3b8>
  411860:	00000000 	nop
  411864:	00008021 	move	s0,zero
  411868:	92630002 	lbu	v1,2(s3)
  41186c:	24020007 	li	v0,7
  411870:	00501023 	subu	v0,v0,s0
  411874:	00431807 	srav	v1,v1,v0
  411878:	30630001 	andi	v1,v1,0x1
  41187c:	1060000b 	beqz	v1,4118ac <LCDFlushScreen+0x458>
  411880:	26850001 	addiu	a1,s4,1
  411884:	8fa30050 	lw	v1,80(sp)
  411888:	92c60000 	lbu	a2,0(s6)
  41188c:	00702021 	addu	a0,v1,s0
  411890:	8f998020 	lw	t9,-32736(gp)
  411894:	00000000 	nop
  411898:	27391390 	addiu	t9,t9,5008
  41189c:	00000000 	nop
  4118a0:	0320f809 	jalr	t9
  4118a4:	00000000 	nop
  4118a8:	8fbc0010 	lw	gp,16(sp)
  4118ac:	26100001 	addiu	s0,s0,1
  4118b0:	2a020008 	slti	v0,s0,8
  4118b4:	1440ffec 	bnez	v0,411868 <LCDFlushScreen+0x414>
  4118b8:	00000000 	nop
  4118bc:	8fa20050 	lw	v0,80(sp)
  4118c0:	00008021 	move	s0,zero
  4118c4:	24520004 	addiu	s2,v0,4
  4118c8:	24510008 	addiu	s1,v0,8
  4118cc:	2a020004 	slti	v0,s0,4
  4118d0:	10400013 	beqz	v0,411920 <LCDFlushScreen+0x4cc>
  4118d4:	24020007 	li	v0,7
  4118d8:	92630001 	lbu	v1,1(s3)
  4118dc:	00501023 	subu	v0,v0,s0
  4118e0:	00431807 	srav	v1,v1,v0
  4118e4:	30630001 	andi	v1,v1,0x1
  4118e8:	1060001c 	beqz	v1,41195c <LCDFlushScreen+0x508>
  4118ec:	02202021 	move	a0,s1
  4118f0:	92c60000 	lbu	a2,0(s6)
  4118f4:	00172840 	sll	a1,s7,0x1
  4118f8:	03c52821 	addu	a1,s8,a1
  4118fc:	8f998020 	lw	t9,-32736(gp)
  411900:	00000000 	nop
  411904:	27391390 	addiu	t9,t9,5008
  411908:	00000000 	nop
  41190c:	0320f809 	jalr	t9
  411910:	00000000 	nop
  411914:	8fbc0010 	lw	gp,16(sp)
  411918:	10000011 	b	411960 <LCDFlushScreen+0x50c>
  41191c:	26520001 	addiu	s2,s2,1
  411920:	92630001 	lbu	v1,1(s3)
  411924:	00501023 	subu	v0,v0,s0
  411928:	00431807 	srav	v1,v1,v0
  41192c:	30630001 	andi	v1,v1,0x1
  411930:	1060000a 	beqz	v1,41195c <LCDFlushScreen+0x508>
  411934:	02402021 	move	a0,s2
  411938:	92c60000 	lbu	a2,0(s6)
  41193c:	26a50001 	addiu	a1,s5,1
  411940:	8f998020 	lw	t9,-32736(gp)
  411944:	00000000 	nop
  411948:	27391390 	addiu	t9,t9,5008
  41194c:	00000000 	nop
  411950:	0320f809 	jalr	t9
  411954:	00000000 	nop
  411958:	8fbc0010 	lw	gp,16(sp)
  41195c:	26520001 	addiu	s2,s2,1
  411960:	26100001 	addiu	s0,s0,1
  411964:	2a020008 	slti	v0,s0,8
  411968:	1440ffd8 	bnez	v0,4118cc <LCDFlushScreen+0x478>
  41196c:	26310001 	addiu	s1,s1,1
  411970:	26730003 	addiu	s3,s3,3
  411974:	26b50002 	addiu	s5,s5,2
  411978:	26f70001 	addiu	s7,s7,1
  41197c:	2ae20006 	slti	v0,s7,6
  411980:	1440ffa1 	bnez	v0,411808 <LCDFlushScreen+0x3b4>
  411984:	26940002 	addiu	s4,s4,2
  411988:	1000007c 	b	411b7c <LCDFlushScreen+0x728>
  41198c:	00000000 	nop
  411990:	27d50001 	addiu	s5,s8,1
  411994:	03c0a021 	move	s4,s8
  411998:	afb5001c 	sw	s5,28(sp)
  41199c:	00008021 	move	s0,zero
  4119a0:	8fa30050 	lw	v1,80(sp)
  4119a4:	24020007 	li	v0,7
  4119a8:	00702021 	addu	a0,v1,s0
  4119ac:	92630000 	lbu	v1,0(s3)
  4119b0:	00501023 	subu	v0,v0,s0
  4119b4:	00431807 	srav	v1,v1,v0
  4119b8:	30630001 	andi	v1,v1,0x1
  4119bc:	10600004 	beqz	v1,4119d0 <LCDFlushScreen+0x57c>
  4119c0:	03c02821 	move	a1,s8
  4119c4:	92c60000 	lbu	a2,0(s6)
  4119c8:	10000004 	b	4119dc <LCDFlushScreen+0x588>
  4119cc:	00000000 	nop
  4119d0:	92c20000 	lbu	v0,0(s6)
  4119d4:	00000000 	nop
  4119d8:	2c460001 	sltiu	a2,v0,1
  4119dc:	8f998020 	lw	t9,-32736(gp)
  4119e0:	00000000 	nop
  4119e4:	27391390 	addiu	t9,t9,5008
  4119e8:	00000000 	nop
  4119ec:	0320f809 	jalr	t9
  4119f0:	00000000 	nop
  4119f4:	8fbc0010 	lw	gp,16(sp)
  4119f8:	26100001 	addiu	s0,s0,1
  4119fc:	2a020008 	slti	v0,s0,8
  411a00:	1440ffe7 	bnez	v0,4119a0 <LCDFlushScreen+0x54c>
  411a04:	00000000 	nop
  411a08:	00008021 	move	s0,zero
  411a0c:	8fa20050 	lw	v0,80(sp)
  411a10:	8fa5001c 	lw	a1,28(sp)
  411a14:	92630002 	lbu	v1,2(s3)
  411a18:	00502021 	addu	a0,v0,s0
  411a1c:	24020007 	li	v0,7
  411a20:	00501023 	subu	v0,v0,s0
  411a24:	00431807 	srav	v1,v1,v0
  411a28:	30630001 	andi	v1,v1,0x1
  411a2c:	10600004 	beqz	v1,411a40 <LCDFlushScreen+0x5ec>
  411a30:	00000000 	nop
  411a34:	92c60000 	lbu	a2,0(s6)
  411a38:	10000004 	b	411a4c <LCDFlushScreen+0x5f8>
  411a3c:	00000000 	nop
  411a40:	92c20000 	lbu	v0,0(s6)
  411a44:	00000000 	nop
  411a48:	2c460001 	sltiu	a2,v0,1
  411a4c:	8f998020 	lw	t9,-32736(gp)
  411a50:	00000000 	nop
  411a54:	27391390 	addiu	t9,t9,5008
  411a58:	00000000 	nop
  411a5c:	0320f809 	jalr	t9
  411a60:	00000000 	nop
  411a64:	8fbc0010 	lw	gp,16(sp)
  411a68:	26100001 	addiu	s0,s0,1
  411a6c:	2a020008 	slti	v0,s0,8
  411a70:	1440ffe6 	bnez	v0,411a0c <LCDFlushScreen+0x5b8>
  411a74:	00000000 	nop
  411a78:	8fa30050 	lw	v1,80(sp)
  411a7c:	00008021 	move	s0,zero
  411a80:	24720004 	addiu	s2,v1,4
  411a84:	24710008 	addiu	s1,v1,8
  411a88:	2a020004 	slti	v0,s0,4
  411a8c:	10400017 	beqz	v0,411aec <LCDFlushScreen+0x698>
  411a90:	02202021 	move	a0,s1
  411a94:	92630001 	lbu	v1,1(s3)
  411a98:	24020007 	li	v0,7
  411a9c:	00501023 	subu	v0,v0,s0
  411aa0:	00431807 	srav	v1,v1,v0
  411aa4:	30630001 	andi	v1,v1,0x1
  411aa8:	10600004 	beqz	v1,411abc <LCDFlushScreen+0x668>
  411aac:	02802821 	move	a1,s4
  411ab0:	92c60000 	lbu	a2,0(s6)
  411ab4:	10000004 	b	411ac8 <LCDFlushScreen+0x674>
  411ab8:	00000000 	nop
  411abc:	92c20000 	lbu	v0,0(s6)
  411ac0:	00000000 	nop
  411ac4:	2c460001 	sltiu	a2,v0,1
  411ac8:	8f998020 	lw	t9,-32736(gp)
  411acc:	00000000 	nop
  411ad0:	27391390 	addiu	t9,t9,5008
  411ad4:	00000000 	nop
  411ad8:	0320f809 	jalr	t9
  411adc:	00000000 	nop
  411ae0:	8fbc0010 	lw	gp,16(sp)
  411ae4:	10000017 	b	411b44 <LCDFlushScreen+0x6f0>
  411ae8:	26520001 	addiu	s2,s2,1
  411aec:	02402021 	move	a0,s2
  411af0:	92630001 	lbu	v1,1(s3)
  411af4:	24020007 	li	v0,7
  411af8:	00501023 	subu	v0,v0,s0
  411afc:	00431807 	srav	v1,v1,v0
  411b00:	30630001 	andi	v1,v1,0x1
  411b04:	10600004 	beqz	v1,411b18 <LCDFlushScreen+0x6c4>
  411b08:	02a02821 	move	a1,s5
  411b0c:	92c60000 	lbu	a2,0(s6)
  411b10:	10000004 	b	411b24 <LCDFlushScreen+0x6d0>
  411b14:	00000000 	nop
  411b18:	92c20000 	lbu	v0,0(s6)
  411b1c:	00000000 	nop
  411b20:	2c460001 	sltiu	a2,v0,1
  411b24:	8f998020 	lw	t9,-32736(gp)
  411b28:	00000000 	nop
  411b2c:	27391390 	addiu	t9,t9,5008
  411b30:	00000000 	nop
  411b34:	0320f809 	jalr	t9
  411b38:	00000000 	nop
  411b3c:	8fbc0010 	lw	gp,16(sp)
  411b40:	26520001 	addiu	s2,s2,1
  411b44:	26100001 	addiu	s0,s0,1
  411b48:	2a020008 	slti	v0,s0,8
  411b4c:	1440ffce 	bnez	v0,411a88 <LCDFlushScreen+0x634>
  411b50:	26310001 	addiu	s1,s1,1
  411b54:	26730003 	addiu	s3,s3,3
  411b58:	26b50002 	addiu	s5,s5,2
  411b5c:	26940002 	addiu	s4,s4,2
  411b60:	8fa2001c 	lw	v0,28(sp)
  411b64:	26f70001 	addiu	s7,s7,1
  411b68:	24420002 	addiu	v0,v0,2
  411b6c:	afa2001c 	sw	v0,28(sp)
  411b70:	2ae20006 	slti	v0,s7,6
  411b74:	1440ff89 	bnez	v0,41199c <LCDFlushScreen+0x548>
  411b78:	27de0002 	addiu	s8,s8,2
  411b7c:	8fa20018 	lw	v0,24(sp)
  411b80:	8fbf0048 	lw	ra,72(sp)
  411b84:	8fbe0044 	lw	s8,68(sp)
  411b88:	8fb7003c 	lw	s7,60(sp)
  411b8c:	8fb60038 	lw	s6,56(sp)
  411b90:	8fb50034 	lw	s5,52(sp)
  411b94:	8fb40030 	lw	s4,48(sp)
  411b98:	8fb3002c 	lw	s3,44(sp)
  411b9c:	8fb20028 	lw	s2,40(sp)
  411ba0:	8fb10024 	lw	s1,36(sp)
  411ba4:	8fb00020 	lw	s0,32(sp)
  411ba8:	03e00008 	jr	ra
  411bac:	27bd0050 	addiu	sp,sp,80

00411bb0 <LCDDrawString>:
  411bb0:	3c1c0fbf 	lui	gp,0xfbf
  411bb4:	279c76e0 	addiu	gp,gp,30432
  411bb8:	0399e021 	addu	gp,gp,t9
  411bbc:	27bdffc0 	addiu	sp,sp,-64
  411bc0:	afbc0010 	sw	gp,16(sp)
  411bc4:	afbf0038 	sw	ra,56(sp)
  411bc8:	afbc0034 	sw	gp,52(sp)
  411bcc:	afb40030 	sw	s4,48(sp)
  411bd0:	afb3002c 	sw	s3,44(sp)
  411bd4:	afb20028 	sw	s2,40(sp)
  411bd8:	afb10024 	sw	s1,36(sp)
  411bdc:	afb00020 	sw	s0,32(sp)
  411be0:	00c08021 	move	s0,a2
  411be4:	00e08821 	move	s1,a3
  411be8:	00009021 	move	s2,zero
  411bec:	00809821 	move	s3,a0
  411bf0:	16200007 	bnez	s1,411c10 <LCDDrawString+0x60>
  411bf4:	00a0a021 	move	s4,a1
  411bf8:	24020001 	li	v0,1
  411bfc:	a3a20018 	sb	v0,24(sp)
  411c00:	a3a00019 	sb	zero,25(sp)
  411c04:	2402000c 	li	v0,12
  411c08:	a3a2001a 	sb	v0,26(sp)
  411c0c:	27b10018 	addiu	s1,sp,24
  411c10:	8f82817c 	lw	v0,-32388(gp)
  411c14:	00000000 	nop
  411c18:	8c420000 	lw	v0,0(v0)
  411c1c:	00000000 	nop
  411c20:	14400016 	bnez	v0,411c7c <LCDDrawString+0xcc>
  411c24:	24020001 	li	v0,1
  411c28:	92060000 	lbu	a2,0(s0)
  411c2c:	00000000 	nop
  411c30:	10c00036 	beqz	a2,411d0c <LCDDrawString+0x15c>
  411c34:	26100001 	addiu	s0,s0,1
  411c38:	02722021 	addu	a0,s3,s2
  411c3c:	02802821 	move	a1,s4
  411c40:	02203821 	move	a3,s1
  411c44:	8f998020 	lw	t9,-32736(gp)
  411c48:	00000000 	nop
  411c4c:	273914a8 	addiu	t9,t9,5288
  411c50:	00000000 	nop
  411c54:	0320f809 	jalr	t9
  411c58:	00000000 	nop
  411c5c:	8fbc0010 	lw	gp,16(sp)
  411c60:	02429021 	addu	s2,s2,v0
  411c64:	92060000 	lbu	a2,0(s0)
  411c68:	00000000 	nop
  411c6c:	14c0fff2 	bnez	a2,411c38 <LCDDrawString+0x88>
  411c70:	26100001 	addiu	s0,s0,1
  411c74:	10000026 	b	411d10 <LCDDrawString+0x160>
  411c78:	02401021 	move	v0,s2
  411c7c:	8f8381a8 	lw	v1,-32344(gp)
  411c80:	00000000 	nop
  411c84:	8c630000 	lw	v1,0(v1)
  411c88:	00000000 	nop
  411c8c:	10620014 	beq	v1,v0,411ce0 <LCDDrawString+0x130>
  411c90:	02602021 	move	a0,s3
  411c94:	1860001d 	blez	v1,411d0c <LCDDrawString+0x15c>
  411c98:	28620009 	slti	v0,v1,9
  411c9c:	1040001b 	beqz	v0,411d0c <LCDDrawString+0x15c>
  411ca0:	28620007 	slti	v0,v1,7
  411ca4:	1440001a 	bnez	v0,411d10 <LCDDrawString+0x160>
  411ca8:	02401021 	move	v0,s2
  411cac:	02602021 	move	a0,s3
  411cb0:	02802821 	move	a1,s4
  411cb4:	02003021 	move	a2,s0
  411cb8:	02203821 	move	a3,s1
  411cbc:	8f998020 	lw	t9,-32736(gp)
  411cc0:	00000000 	nop
  411cc4:	2739228c 	addiu	t9,t9,8844
  411cc8:	00000000 	nop
  411ccc:	0320f809 	jalr	t9
  411cd0:	00000000 	nop
  411cd4:	8fbc0010 	lw	gp,16(sp)
  411cd8:	1000000c 	b	411d0c <LCDDrawString+0x15c>
  411cdc:	00409021 	move	s2,v0
  411ce0:	02802821 	move	a1,s4
  411ce4:	02003021 	move	a2,s0
  411ce8:	02203821 	move	a3,s1
  411cec:	8f998020 	lw	t9,-32736(gp)
  411cf0:	00000000 	nop
  411cf4:	27392438 	addiu	t9,t9,9272
  411cf8:	00000000 	nop
  411cfc:	0320f809 	jalr	t9
  411d00:	00000000 	nop
  411d04:	8fbc0010 	lw	gp,16(sp)
  411d08:	00409021 	move	s2,v0
  411d0c:	02401021 	move	v0,s2
  411d10:	8fbf0038 	lw	ra,56(sp)
  411d14:	8fb40030 	lw	s4,48(sp)
  411d18:	8fb3002c 	lw	s3,44(sp)
  411d1c:	8fb20028 	lw	s2,40(sp)
  411d20:	8fb10024 	lw	s1,36(sp)
  411d24:	8fb00020 	lw	s0,32(sp)
  411d28:	03e00008 	jr	ra
  411d2c:	27bd0040 	addiu	sp,sp,64
  411d30:	3c1c0fbf 	lui	gp,0xfbf
  411d34:	279c7560 	addiu	gp,gp,30048
  411d38:	0399e021 	addu	gp,gp,t9
  411d3c:	1000001f 	b	411dbc <LCDDrawString+0x20c>
  411d40:	00000000 	nop
  411d44:	9082ffff 	lbu	v0,-1(a0)
  411d48:	00000000 	nop
  411d4c:	00021840 	sll	v1,v0,0x1
  411d50:	2ca2009f 	sltiu	v0,a1,159
  411d54:	1040000e 	beqz	v0,411d90 <LCDDrawString+0x1e0>
  411d58:	a083ffff 	sb	v1,-1(a0)
  411d5c:	306200fe 	andi	v0,v1,0xfe
  411d60:	2c42003f 	sltiu	v0,v0,63
  411d64:	14400002 	bnez	v0,411d70 <LCDDrawString+0x1c0>
  411d68:	2462ff9f 	addiu	v0,v1,-97
  411d6c:	2462001f 	addiu	v0,v1,31
  411d70:	a082ffff 	sb	v0,-1(a0)
  411d74:	90830000 	lbu	v1,0(a0)
  411d78:	00000000 	nop
  411d7c:	2c62007f 	sltiu	v0,v1,127
  411d80:	1440000c 	bnez	v0,411db4 <LCDDrawString+0x204>
  411d84:	24620061 	addiu	v0,v1,97
  411d88:	1000000a 	b	411db4 <LCDDrawString+0x204>
  411d8c:	24620060 	addiu	v0,v1,96
  411d90:	306200fe 	andi	v0,v1,0xfe
  411d94:	2c42003f 	sltiu	v0,v0,63
  411d98:	14400002 	bnez	v0,411da4 <LCDDrawString+0x1f4>
  411d9c:	2462ffa0 	addiu	v0,v1,-96
  411da0:	24620020 	addiu	v0,v1,32
  411da4:	a082ffff 	sb	v0,-1(a0)
  411da8:	90820000 	lbu	v0,0(a0)
  411dac:	00000000 	nop
  411db0:	24420002 	addiu	v0,v0,2
  411db4:	a0820000 	sb	v0,0(a0)
  411db8:	24840001 	addiu	a0,a0,1
  411dbc:	90820000 	lbu	v0,0(a0)
  411dc0:	00000000 	nop
  411dc4:	10400008 	beqz	v0,411de8 <LCDDrawString+0x238>
  411dc8:	00021600 	sll	v0,v0,0x18
  411dcc:	0441fffa 	bgez	v0,411db8 <LCDDrawString+0x208>
  411dd0:	00000000 	nop
  411dd4:	24840001 	addiu	a0,a0,1
  411dd8:	90850000 	lbu	a1,0(a0)
  411ddc:	00000000 	nop
  411de0:	14a0ffd8 	bnez	a1,411d44 <LCDDrawString+0x194>
  411de4:	00000000 	nop
  411de8:	03e00008 	jr	ra
  411dec:	00000000 	nop
  411df0:	3c1c0fbf 	lui	gp,0xfbf
  411df4:	279c74a0 	addiu	gp,gp,29856
  411df8:	0399e021 	addu	gp,gp,t9
  411dfc:	3c02ffff 	lui	v0,0xffff
  411e00:	34425ec0 	ori	v0,v0,0x5ec0
  411e04:	00441021 	addu	v0,v0,a0
  411e08:	2c420280 	sltiu	v0,v0,640
  411e0c:	14400013 	bnez	v0,411e5c <LCDDrawString+0x2ac>
  411e10:	00000000 	nop
  411e14:	3c02ffff 	lui	v0,0xffff
  411e18:	34425bc0 	ori	v0,v0,0x5bc0
  411e1c:	00441021 	addu	v0,v0,a0
  411e20:	2c42223f 	sltiu	v0,v0,8767
  411e24:	1440000d 	bnez	v0,411e5c <LCDDrawString+0x2ac>
  411e28:	00000000 	nop
  411e2c:	3c02ffff 	lui	v0,0xffff
  411e30:	3442395f 	ori	v0,v0,0x395f
  411e34:	00441021 	addu	v0,v0,a0
  411e38:	2c420233 	sltiu	v0,v0,563
  411e3c:	14400007 	bnez	v0,411e5c <LCDDrawString+0x2ac>
  411e40:	00000000 	nop
  411e44:	3c02ffff 	lui	v0,0xffff
  411e48:	344236c0 	ori	v0,v0,0x36c0
  411e4c:	00441021 	addu	v0,v0,a0
  411e50:	2c4230bf 	sltiu	v0,v0,12479
  411e54:	10400003 	beqz	v0,411e64 <LCDDrawString+0x2b4>
  411e58:	00000000 	nop
  411e5c:	03e00008 	jr	ra
  411e60:	24020001 	li	v0,1
  411e64:	03e00008 	jr	ra
  411e68:	00001021 	move	v0,zero
  411e6c:	3c1c0fbf 	lui	gp,0xfbf
  411e70:	279c7424 	addiu	gp,gp,29732
  411e74:	0399e021 	addu	gp,gp,t9
  411e78:	8f8a81a8 	lw	t2,-32344(gp)
  411e7c:	00000000 	nop
  411e80:	8d4a0000 	lw	t2,0(t2)
  411e84:	24020007 	li	v0,7
  411e88:	11420005 	beq	t2,v0,411ea0 <LCDDrawString+0x2f0>
  411e8c:	24020008 	li	v0,8
  411e90:	11420022 	beq	t2,v0,411f1c <LCDDrawString+0x36c>
  411e94:	00000000 	nop
  411e98:	10000034 	b	411f6c <LCDDrawString+0x3bc>
  411e9c:	00000000 	nop
  411ea0:	18a00032 	blez	a1,411f6c <LCDDrawString+0x3bc>
  411ea4:	00003821 	move	a3,zero
  411ea8:	00804021 	move	t0,a0
  411eac:	91020000 	lbu	v0,0(t0)
  411eb0:	00000000 	nop
  411eb4:	2442005f 	addiu	v0,v0,95
  411eb8:	304200ff 	andi	v0,v0,0xff
  411ebc:	2c420059 	sltiu	v0,v0,89
  411ec0:	1040000f 	beqz	v0,411f00 <LCDDrawString+0x350>
  411ec4:	00000000 	nop
  411ec8:	91030001 	lbu	v1,1(t0)
  411ecc:	00000000 	nop
  411ed0:	2462ffc0 	addiu	v0,v1,-64
  411ed4:	2c42003f 	sltiu	v0,v0,63
  411ed8:	14400005 	bnez	v0,411ef0 <LCDDrawString+0x340>
  411edc:	2462005f 	addiu	v0,v1,95
  411ee0:	304200ff 	andi	v0,v0,0xff
  411ee4:	2c42005e 	sltiu	v0,v0,94
  411ee8:	10400006 	beqz	v0,411f04 <LCDDrawString+0x354>
  411eec:	00004821 	move	t1,zero
  411ef0:	25080001 	addiu	t0,t0,1
  411ef4:	24e70001 	addiu	a3,a3,1
  411ef8:	10000002 	b	411f04 <LCDDrawString+0x354>
  411efc:	24090001 	li	t1,1
  411f00:	00004821 	move	t1,zero
  411f04:	24e70001 	addiu	a3,a3,1
  411f08:	00e5102a 	slt	v0,a3,a1
  411f0c:	1440ffe7 	bnez	v0,411eac <LCDDrawString+0x2fc>
  411f10:	25080001 	addiu	t0,t0,1
  411f14:	10000015 	b	411f6c <LCDDrawString+0x3bc>
  411f18:	00000000 	nop
  411f1c:	18a00013 	blez	a1,411f6c <LCDDrawString+0x3bc>
  411f20:	00003821 	move	a3,zero
  411f24:	00801821 	move	v1,a0
  411f28:	90620000 	lbu	v0,0(v1)
  411f2c:	00000000 	nop
  411f30:	2c4200a1 	sltiu	v0,v0,161
  411f34:	14400009 	bnez	v0,411f5c <LCDDrawString+0x3ac>
  411f38:	00004821 	move	t1,zero
  411f3c:	90620001 	lbu	v0,1(v1)
  411f40:	00000000 	nop
  411f44:	2c4200a1 	sltiu	v0,v0,161
  411f48:	14400004 	bnez	v0,411f5c <LCDDrawString+0x3ac>
  411f4c:	00000000 	nop
  411f50:	24630001 	addiu	v1,v1,1
  411f54:	24e70001 	addiu	a3,a3,1
  411f58:	24090001 	li	t1,1
  411f5c:	24e70001 	addiu	a3,a3,1
  411f60:	00e5102a 	slt	v0,a3,a1
  411f64:	1440fff0 	bnez	v0,411f28 <LCDDrawString+0x378>
  411f68:	24630001 	addiu	v1,v1,1
  411f6c:	14e50002 	bne	a3,a1,411f78 <LCDDrawString+0x3c8>
  411f70:	00000000 	nop
  411f74:	00004821 	move	t1,zero
  411f78:	14c00003 	bnez	a2,411f88 <LCDDrawString+0x3d8>
  411f7c:	24020007 	li	v0,7
  411f80:	03e00008 	jr	ra
  411f84:	01201021 	move	v0,t1
  411f88:	11420006 	beq	t2,v0,411fa4 <LCDDrawString+0x3f4>
  411f8c:	00a04021 	move	t0,a1
  411f90:	24020008 	li	v0,8
  411f94:	11420023 	beq	t2,v0,412024 <LCDDrawString+0x474>
  411f98:	01001021 	move	v0,t0
  411f9c:	1000003d 	b	412094 <LCDDrawString+0x4e4>
  411fa0:	00000000 	nop
  411fa4:	24020001 	li	v0,1
  411fa8:	11220021 	beq	t1,v0,412030 <LCDDrawString+0x480>
  411fac:	00000000 	nop
  411fb0:	05000037 	bltz	t0,412090 <LCDDrawString+0x4e0>
  411fb4:	01003021 	move	a2,t0
  411fb8:	01042021 	addu	a0,t0,a0
  411fbc:	24030020 	li	v1,32
  411fc0:	80820000 	lb	v0,0(a0)
  411fc4:	90870000 	lbu	a3,0(a0)
  411fc8:	1043002e 	beq	v0,v1,412084 <LCDDrawString+0x4d4>
  411fcc:	24e2ffc0 	addiu	v0,a3,-64
  411fd0:	2c42003f 	sltiu	v0,v0,63
  411fd4:	14400005 	bnez	v0,411fec <LCDDrawString+0x43c>
  411fd8:	24e2005f 	addiu	v0,a3,95
  411fdc:	304200ff 	andi	v0,v0,0xff
  411fe0:	2c42005e 	sltiu	v0,v0,94
  411fe4:	1040000a 	beqz	v0,412010 <LCDDrawString+0x460>
  411fe8:	00000000 	nop
  411fec:	9082ffff 	lbu	v0,-1(a0)
  411ff0:	00000000 	nop
  411ff4:	2442005f 	addiu	v0,v0,95
  411ff8:	304200ff 	andi	v0,v0,0xff
  411ffc:	2c420059 	sltiu	v0,v0,89
  412000:	10400003 	beqz	v0,412010 <LCDDrawString+0x460>
  412004:	24c2ffff 	addiu	v0,a2,-1
  412008:	1c40001e 	bgtz	v0,412084 <LCDDrawString+0x4d4>
  41200c:	00000000 	nop
  412010:	24c6ffff 	addiu	a2,a2,-1
  412014:	04c1ffe9 	bgez	a2,411fbc <LCDDrawString+0x40c>
  412018:	2484ffff 	addiu	a0,a0,-1
  41201c:	03e00008 	jr	ra
  412020:	01001021 	move	v0,t0
  412024:	24020001 	li	v0,1
  412028:	15220003 	bne	t1,v0,412038 <LCDDrawString+0x488>
  41202c:	01003021 	move	a2,t0
  412030:	10000017 	b	412090 <LCDDrawString+0x4e0>
  412034:	2508ffff 	addiu	t0,t0,-1
  412038:	10000003 	b	412048 <LCDDrawString+0x498>
  41203c:	01042021 	addu	a0,t0,a0
  412040:	2484ffff 	addiu	a0,a0,-1
  412044:	24c6ffff 	addiu	a2,a2,-1
  412048:	04c00011 	bltz	a2,412090 <LCDDrawString+0x4e0>
  41204c:	24030020 	li	v1,32
  412050:	80820000 	lb	v0,0(a0)
  412054:	90870000 	lbu	a3,0(a0)
  412058:	1043000a 	beq	v0,v1,412084 <LCDDrawString+0x4d4>
  41205c:	2ce200a1 	sltiu	v0,a3,161
  412060:	1440fff7 	bnez	v0,412040 <LCDDrawString+0x490>
  412064:	00000000 	nop
  412068:	9082ffff 	lbu	v0,-1(a0)
  41206c:	00000000 	nop
  412070:	2c4200a1 	sltiu	v0,v0,161
  412074:	1440fff2 	bnez	v0,412040 <LCDDrawString+0x490>
  412078:	24c2ffff 	addiu	v0,a2,-1
  41207c:	1840fff0 	blez	v0,412040 <LCDDrawString+0x490>
  412080:	00000000 	nop
  412084:	10c50003 	beq	a2,a1,412094 <LCDDrawString+0x4e4>
  412088:	01001021 	move	v0,t0
  41208c:	24c80001 	addiu	t0,a2,1
  412090:	01001021 	move	v0,t0
  412094:	03e00008 	jr	ra
  412098:	00000000 	nop
  41209c:	3c1c0fbf 	lui	gp,0xfbf
  4120a0:	279c71f4 	addiu	gp,gp,29172
  4120a4:	0399e021 	addu	gp,gp,t9
  4120a8:	18a00018 	blez	a1,41210c <LCDDrawString+0x55c>
  4120ac:	00003821 	move	a3,zero
  4120b0:	00801821 	move	v1,a0
  4120b4:	90620000 	lbu	v0,0(v1)
  4120b8:	00000000 	nop
  4120bc:	2442005f 	addiu	v0,v0,95
  4120c0:	304200ff 	andi	v0,v0,0xff
  4120c4:	2c42005e 	sltiu	v0,v0,94
  4120c8:	1040000c 	beqz	v0,4120fc <LCDDrawString+0x54c>
  4120cc:	00004821 	move	t1,zero
  4120d0:	90620001 	lbu	v0,1(v1)
  4120d4:	00000000 	nop
  4120d8:	2442005f 	addiu	v0,v0,95
  4120dc:	304200ff 	andi	v0,v0,0xff
  4120e0:	2c42005e 	sltiu	v0,v0,94
  4120e4:	10400004 	beqz	v0,4120f8 <LCDDrawString+0x548>
  4120e8:	24090001 	li	t1,1
  4120ec:	24630001 	addiu	v1,v1,1
  4120f0:	10000002 	b	4120fc <LCDDrawString+0x54c>
  4120f4:	24e70001 	addiu	a3,a3,1
  4120f8:	00004821 	move	t1,zero
  4120fc:	24e70001 	addiu	a3,a3,1
  412100:	00e5102a 	slt	v0,a3,a1
  412104:	1440ffeb 	bnez	v0,4120b4 <LCDDrawString+0x504>
  412108:	24630001 	addiu	v1,v1,1
  41210c:	14e50002 	bne	a3,a1,412118 <LCDDrawString+0x568>
  412110:	00000000 	nop
  412114:	00004821 	move	t1,zero
  412118:	14c00003 	bnez	a2,412128 <LCDDrawString+0x578>
  41211c:	24020001 	li	v0,1
  412120:	03e00008 	jr	ra
  412124:	01201021 	move	v0,t1
  412128:	15220003 	bne	t1,v0,412138 <LCDDrawString+0x588>
  41212c:	00a04021 	move	t0,a1
  412130:	1000001c 	b	4121a4 <LCDDrawString+0x5f4>
  412134:	2508ffff 	addiu	t0,t0,-1
  412138:	01003821 	move	a3,t0
  41213c:	10000003 	b	41214c <LCDDrawString+0x59c>
  412140:	01042021 	addu	a0,t0,a0
  412144:	2484ffff 	addiu	a0,a0,-1
  412148:	24e7ffff 	addiu	a3,a3,-1
  41214c:	04e00015 	bltz	a3,4121a4 <LCDDrawString+0x5f4>
  412150:	24030020 	li	v1,32
  412154:	80820000 	lb	v0,0(a0)
  412158:	90860000 	lbu	a2,0(a0)
  41215c:	1043000e 	beq	v0,v1,412198 <LCDDrawString+0x5e8>
  412160:	24c2005f 	addiu	v0,a2,95
  412164:	304200ff 	andi	v0,v0,0xff
  412168:	2c42005e 	sltiu	v0,v0,94
  41216c:	1040fff5 	beqz	v0,412144 <LCDDrawString+0x594>
  412170:	00000000 	nop
  412174:	9082ffff 	lbu	v0,-1(a0)
  412178:	00000000 	nop
  41217c:	2442005f 	addiu	v0,v0,95
  412180:	304200ff 	andi	v0,v0,0xff
  412184:	2c42005e 	sltiu	v0,v0,94
  412188:	1040ffee 	beqz	v0,412144 <LCDDrawString+0x594>
  41218c:	24e2ffff 	addiu	v0,a3,-1
  412190:	1840ffec 	blez	v0,412144 <LCDDrawString+0x594>
  412194:	00000000 	nop
  412198:	10e50002 	beq	a3,a1,4121a4 <LCDDrawString+0x5f4>
  41219c:	00000000 	nop
  4121a0:	24e80001 	addiu	t0,a3,1
  4121a4:	03e00008 	jr	ra
  4121a8:	01001021 	move	v0,t0
  4121ac:	3c1c0fbf 	lui	gp,0xfbf
  4121b0:	279c70e4 	addiu	gp,gp,28900
  4121b4:	0399e021 	addu	gp,gp,t9
  4121b8:	27bdffd8 	addiu	sp,sp,-40
  4121bc:	afbc0010 	sw	gp,16(sp)
  4121c0:	afbf0020 	sw	ra,32(sp)
  4121c4:	afbc001c 	sw	gp,28(sp)
  4121c8:	afb00018 	sw	s0,24(sp)
  4121cc:	00a08021 	move	s0,a1
  4121d0:	80820000 	lb	v0,0(a0)
  4121d4:	90850000 	lbu	a1,0(a0)
  4121d8:	14400003 	bnez	v0,4121e8 <LCDDrawString+0x638>
  4121dc:	24020007 	li	v0,7
  4121e0:	10000026 	b	41227c <LCDDrawString+0x6cc>
  4121e4:	00001021 	move	v0,zero
  4121e8:	a2050000 	sb	a1,0(s0)
  4121ec:	90840001 	lbu	a0,1(a0)
  4121f0:	00000000 	nop
  4121f4:	a2040001 	sb	a0,1(s0)
  4121f8:	8f8381a8 	lw	v1,-32344(gp)
  4121fc:	00000000 	nop
  412200:	8c630000 	lw	v1,0(v1)
  412204:	00000000 	nop
  412208:	10620005 	beq	v1,v0,412220 <LCDDrawString+0x670>
  41220c:	24020008 	li	v0,8
  412210:	10620012 	beq	v1,v0,41225c <LCDDrawString+0x6ac>
  412214:	30a200ff 	andi	v0,a1,0xff
  412218:	10000017 	b	412278 <LCDDrawString+0x6c8>
  41221c:	a2000001 	sb	zero,1(s0)
  412220:	92040000 	lbu	a0,0(s0)
  412224:	92020001 	lbu	v0,1(s0)
  412228:	00042200 	sll	a0,a0,0x8
  41222c:	00822025 	or	a0,a0,v0
  412230:	8f998020 	lw	t9,-32736(gp)
  412234:	00000000 	nop
  412238:	27391df0 	addiu	t9,t9,7664
  41223c:	00000000 	nop
  412240:	0320f809 	jalr	t9
  412244:	00000000 	nop
  412248:	8fbc0010 	lw	gp,16(sp)
  41224c:	10400009 	beqz	v0,412274 <LCDDrawString+0x6c4>
  412250:	24020001 	li	v0,1
  412254:	10000009 	b	41227c <LCDDrawString+0x6cc>
  412258:	00000000 	nop
  41225c:	2c4200a1 	sltiu	v0,v0,161
  412260:	14400004 	bnez	v0,412274 <LCDDrawString+0x6c4>
  412264:	308200ff 	andi	v0,a0,0xff
  412268:	2c4200a1 	sltiu	v0,v0,161
  41226c:	10400003 	beqz	v0,41227c <LCDDrawString+0x6cc>
  412270:	24020001 	li	v0,1
  412274:	a2000001 	sb	zero,1(s0)
  412278:	24020001 	li	v0,1
  41227c:	8fbf0020 	lw	ra,32(sp)
  412280:	8fb00018 	lw	s0,24(sp)
  412284:	03e00008 	jr	ra
  412288:	27bd0028 	addiu	sp,sp,40
  41228c:	3c1c0fbf 	lui	gp,0xfbf
  412290:	279c7004 	addiu	gp,gp,28676
  412294:	0399e021 	addu	gp,gp,t9
  412298:	27bdffc0 	addiu	sp,sp,-64
  41229c:	afbc0010 	sw	gp,16(sp)
  4122a0:	afbf0038 	sw	ra,56(sp)
  4122a4:	afbc0034 	sw	gp,52(sp)
  4122a8:	afb40030 	sw	s4,48(sp)
  4122ac:	afb3002c 	sw	s3,44(sp)
  4122b0:	afb20028 	sw	s2,40(sp)
  4122b4:	afb10024 	sw	s1,36(sp)
  4122b8:	afb00020 	sw	s0,32(sp)
  4122bc:	00c08021 	move	s0,a2
  4122c0:	00008821 	move	s1,zero
  4122c4:	0080a021 	move	s4,a0
  4122c8:	00a09821 	move	s3,a1
  4122cc:	10000047 	b	4123ec <LCDDrawString+0x83c>
  4122d0:	00e09021 	move	s2,a3
  4122d4:	93a20019 	lbu	v0,25(sp)
  4122d8:	00000000 	nop
  4122dc:	10400036 	beqz	v0,4123b8 <LCDDrawString+0x808>
  4122e0:	24020007 	li	v0,7
  4122e4:	93a30018 	lbu	v1,24(sp)
  4122e8:	8f8581a8 	lw	a1,-32344(gp)
  4122ec:	00000000 	nop
  4122f0:	8ca50000 	lw	a1,0(a1)
  4122f4:	93a40019 	lbu	a0,25(sp)
  4122f8:	10a20006 	beq	a1,v0,412314 <LCDDrawString+0x764>
  4122fc:	00003021 	move	a2,zero
  412300:	24020008 	li	v0,8
  412304:	10a2001a 	beq	a1,v0,412370 <LCDDrawString+0x7c0>
  412308:	2462ff5f 	addiu	v0,v1,-161
  41230c:	1000001e 	b	412388 <LCDDrawString+0x7d8>
  412310:	02912021 	addu	a0,s4,s1
  412314:	2882007f 	slti	v0,a0,127
  412318:	10400002 	beqz	v0,412324 <LCDDrawString+0x774>
  41231c:	2486ff9e 	addiu	a2,a0,-98
  412320:	2486ffc0 	addiu	a2,a0,-64
  412324:	286200a4 	slti	v0,v1,164
  412328:	1440000b 	bnez	v0,412358 <LCDDrawString+0x7a8>
  41232c:	2462ff5f 	addiu	v0,v1,-161
  412330:	2462ff5c 	addiu	v0,v1,-164
  412334:	2403009d 	li	v1,157
  412338:	00430018 	mult	v0,v1
  41233c:	00001012 	mflo	v0
  412340:	00463021 	addu	a2,v0,a2
  412344:	28c216b1 	slti	v0,a2,5809
  412348:	1440000f 	bnez	v0,412388 <LCDDrawString+0x7d8>
  41234c:	02912021 	addu	a0,s4,s1
  412350:	1000000d 	b	412388 <LCDDrawString+0x7d8>
  412354:	24c6fe68 	addiu	a2,a2,-408
  412358:	2403009d 	li	v1,157
  41235c:	00430018 	mult	v0,v1
  412360:	00001012 	mflo	v0
  412364:	00461021 	addu	v0,v0,a2
  412368:	10000006 	b	412384 <LCDDrawString+0x7d4>
  41236c:	24463326 	addiu	a2,v0,13094
  412370:	2403005e 	li	v1,94
  412374:	00430018 	mult	v0,v1
  412378:	00001012 	mflo	v0
  41237c:	00441021 	addu	v0,v0,a0
  412380:	2446ff5f 	addiu	a2,v0,-161
  412384:	02912021 	addu	a0,s4,s1
  412388:	02602821 	move	a1,s3
  41238c:	02403821 	move	a3,s2
  412390:	8f998020 	lw	t9,-32736(gp)
  412394:	00000000 	nop
  412398:	273916f0 	addiu	t9,t9,5872
  41239c:	00000000 	nop
  4123a0:	0320f809 	jalr	t9
  4123a4:	00000000 	nop
  4123a8:	8fbc0010 	lw	gp,16(sp)
  4123ac:	02228821 	addu	s1,s1,v0
  4123b0:	1000000e 	b	4123ec <LCDDrawString+0x83c>
  4123b4:	26100002 	addiu	s0,s0,2
  4123b8:	02912021 	addu	a0,s4,s1
  4123bc:	02602821 	move	a1,s3
  4123c0:	92060000 	lbu	a2,0(s0)
  4123c4:	02403821 	move	a3,s2
  4123c8:	8f998020 	lw	t9,-32736(gp)
  4123cc:	00000000 	nop
  4123d0:	273914a8 	addiu	t9,t9,5288
  4123d4:	00000000 	nop
  4123d8:	0320f809 	jalr	t9
  4123dc:	00000000 	nop
  4123e0:	8fbc0010 	lw	gp,16(sp)
  4123e4:	02228821 	addu	s1,s1,v0
  4123e8:	26100001 	addiu	s0,s0,1
  4123ec:	02002021 	move	a0,s0
  4123f0:	27a50018 	addiu	a1,sp,24
  4123f4:	8f998020 	lw	t9,-32736(gp)
  4123f8:	00000000 	nop
  4123fc:	273921ac 	addiu	t9,t9,8620
  412400:	00000000 	nop
  412404:	0320f809 	jalr	t9
  412408:	00000000 	nop
  41240c:	8fbc0010 	lw	gp,16(sp)
  412410:	1440ffb0 	bnez	v0,4122d4 <LCDDrawString+0x724>
  412414:	02201021 	move	v0,s1
  412418:	8fbf0038 	lw	ra,56(sp)
  41241c:	8fb40030 	lw	s4,48(sp)
  412420:	8fb3002c 	lw	s3,44(sp)
  412424:	8fb20028 	lw	s2,40(sp)
  412428:	8fb10024 	lw	s1,36(sp)
  41242c:	8fb00020 	lw	s0,32(sp)
  412430:	03e00008 	jr	ra
  412434:	27bd0040 	addiu	sp,sp,64
  412438:	3c1c0fbf 	lui	gp,0xfbf
  41243c:	279c6e58 	addiu	gp,gp,28248
  412440:	0399e021 	addu	gp,gp,t9
  412444:	27bdffc8 	addiu	sp,sp,-56
  412448:	afbc0010 	sw	gp,16(sp)
  41244c:	afbf0034 	sw	ra,52(sp)
  412450:	afbc0030 	sw	gp,48(sp)
  412454:	afb5002c 	sw	s5,44(sp)
  412458:	afb40028 	sw	s4,40(sp)
  41245c:	afb30024 	sw	s3,36(sp)
  412460:	afb20020 	sw	s2,32(sp)
  412464:	afb1001c 	sw	s1,28(sp)
  412468:	afb00018 	sw	s0,24(sp)
  41246c:	00c08021 	move	s0,a2
  412470:	00009021 	move	s2,zero
  412474:	0080a821 	move	s5,a0
  412478:	02002021 	move	a0,s0
  41247c:	00a0a021 	move	s4,a1
  412480:	00e09821 	move	s3,a3
  412484:	8f998144 	lw	t9,-32444(gp) <strlen>
  412488:	00000000 	nop
  41248c:	0320f809 	jalr	t9
  412490:	00000000 	nop
  412494:	8fbc0010 	lw	gp,16(sp)
  412498:	92030000 	lbu	v1,0(s0)
  41249c:	00000000 	nop
  4124a0:	10600042 	beqz	v1,4125ac <LCDDrawString+0x9fc>
  4124a4:	00408821 	move	s1,v0
  4124a8:	2462005f 	addiu	v0,v1,95
  4124ac:	304200ff 	andi	v0,v0,0xff
  4124b0:	2c42005e 	sltiu	v0,v0,94
  4124b4:	1040000f 	beqz	v0,4124f4 <LCDDrawString+0x944>
  4124b8:	24020001 	li	v0,1
  4124bc:	1222000d 	beq	s1,v0,4124f4 <LCDDrawString+0x944>
  4124c0:	00000000 	nop
  4124c4:	92030001 	lbu	v1,1(s0)
  4124c8:	00000000 	nop
  4124cc:	2c6200a1 	sltiu	v0,v1,161
  4124d0:	14400008 	bnez	v0,4124f4 <LCDDrawString+0x944>
  4124d4:	2c6200ff 	sltiu	v0,v1,255
  4124d8:	10400006 	beqz	v0,4124f4 <LCDDrawString+0x944>
  4124dc:	00000000 	nop
  4124e0:	92020000 	lbu	v0,0(s0)
  4124e4:	00000000 	nop
  4124e8:	00021200 	sll	v0,v0,0x8
  4124ec:	10000003 	b	4124fc <LCDDrawString+0x94c>
  4124f0:	00433025 	or	a2,v0,v1
  4124f4:	92060000 	lbu	a2,0(s0)
  4124f8:	00000000 	nop
  4124fc:	2cc20100 	sltiu	v0,a2,256
  412500:	1040000e 	beqz	v0,41253c <LCDDrawString+0x98c>
  412504:	02b22021 	addu	a0,s5,s2
  412508:	02802821 	move	a1,s4
  41250c:	02603821 	move	a3,s3
  412510:	8f998020 	lw	t9,-32736(gp)
  412514:	00000000 	nop
  412518:	273914a8 	addiu	t9,t9,5288
  41251c:	00000000 	nop
  412520:	0320f809 	jalr	t9
  412524:	00000000 	nop
  412528:	8fbc0010 	lw	gp,16(sp)
  41252c:	02429021 	addu	s2,s2,v0
  412530:	26100001 	addiu	s0,s0,1
  412534:	10000019 	b	41259c <LCDDrawString+0x9ec>
  412538:	2631ffff 	addiu	s1,s1,-1
  41253c:	00061202 	srl	v0,a2,0x8
  412540:	2442ff5f 	addiu	v0,v0,-161
  412544:	24030060 	li	v1,96
  412548:	00430018 	mult	v0,v1
  41254c:	30c300ff 	andi	v1,a2,0xff
  412550:	00001012 	mflo	v0
  412554:	2442ff60 	addiu	v0,v0,-160
  412558:	00433021 	addu	a2,v0,v1
  41255c:	2cc21f40 	sltiu	v0,a2,8000
  412560:	14400003 	bnez	v0,412570 <LCDDrawString+0x9c0>
  412564:	02802821 	move	a1,s4
  412568:	00003021 	move	a2,zero
  41256c:	02b22021 	addu	a0,s5,s2
  412570:	02603821 	move	a3,s3
  412574:	8f998020 	lw	t9,-32736(gp)
  412578:	00000000 	nop
  41257c:	273916f0 	addiu	t9,t9,5872
  412580:	00000000 	nop
  412584:	0320f809 	jalr	t9
  412588:	00000000 	nop
  41258c:	8fbc0010 	lw	gp,16(sp)
  412590:	02429021 	addu	s2,s2,v0
  412594:	26100002 	addiu	s0,s0,2
  412598:	2631fffe 	addiu	s1,s1,-2
  41259c:	92030000 	lbu	v1,0(s0)
  4125a0:	00000000 	nop
  4125a4:	1460ffc1 	bnez	v1,4124ac <LCDDrawString+0x8fc>
  4125a8:	2462005f 	addiu	v0,v1,95
  4125ac:	02401021 	move	v0,s2
  4125b0:	8fbf0034 	lw	ra,52(sp)
  4125b4:	8fb5002c 	lw	s5,44(sp)
  4125b8:	8fb40028 	lw	s4,40(sp)
  4125bc:	8fb30024 	lw	s3,36(sp)
  4125c0:	8fb20020 	lw	s2,32(sp)
  4125c4:	8fb1001c 	lw	s1,28(sp)
  4125c8:	8fb00018 	lw	s0,24(sp)
  4125cc:	03e00008 	jr	ra
  4125d0:	27bd0038 	addiu	sp,sp,56
	...

004125e0 <LEDSwitch>:
  4125e0:	3c1c0fbf 	lui	gp,0xfbf
  4125e4:	279c6cb0 	addiu	gp,gp,27824
  4125e8:	0399e021 	addu	gp,gp,t9
  4125ec:	27bdffe0 	addiu	sp,sp,-32
  4125f0:	afbc0010 	sw	gp,16(sp)
  4125f4:	afbf001c 	sw	ra,28(sp)
  4125f8:	8f828220 	lw	v0,-32224(gp)
  4125fc:	00000000 	nop
  412600:	8c420000 	lw	v0,0(v0)
  412604:	00000000 	nop
  412608:	1040003a 	beqz	v0,4126f4 <LEDSwitch+0x114>
  41260c:	afbc0018 	sw	gp,24(sp)
  412610:	2482ffff 	addiu	v0,a0,-1
  412614:	00021040 	sll	v0,v0,0x1
  412618:	24030001 	li	v1,1
  41261c:	8f868020 	lw	a2,-32736(gp)
  412620:	00000000 	nop
  412624:	24c650c0 	addiu	a2,a2,20672
  412628:	00c23021 	addu	a2,a2,v0
  41262c:	90c60001 	lbu	a2,1(a2)
  412630:	8f848020 	lw	a0,-32736(gp)
  412634:	00000000 	nop
  412638:	248450c0 	addiu	a0,a0,20672
  41263c:	00822021 	addu	a0,a0,v0
  412640:	90840000 	lbu	a0,0(a0)
  412644:	14a30008 	bne	a1,v1,412668 <LEDSwitch+0x88>
  412648:	00041027 	nor	v0,zero,a0
  41264c:	8f83801c 	lw	v1,-32740(gp)
  412650:	00000000 	nop
  412654:	24631260 	addiu	v1,v1,4704
  412658:	00661821 	addu	v1,v1,a2
  41265c:	90630000 	lbu	v1,0(v1)
  412660:	10000008 	b	412684 <LEDSwitch+0xa4>
  412664:	00431024 	and	v0,v0,v1
  412668:	8f82801c 	lw	v0,-32740(gp)
  41266c:	00000000 	nop
  412670:	24421260 	addiu	v0,v0,4704
  412674:	00461021 	addu	v0,v0,a2
  412678:	90420000 	lbu	v0,0(v0)
  41267c:	00000000 	nop
  412680:	00821025 	or	v0,a0,v0
  412684:	8f81801c 	lw	at,-32740(gp)
  412688:	00000000 	nop
  41268c:	24211260 	addiu	at,at,4704
  412690:	00260821 	addu	at,at,a2
  412694:	a0220000 	sb	v0,0(at)
  412698:	24c60001 	addiu	a2,a2,1
  41269c:	8f848220 	lw	a0,-32224(gp)
  4126a0:	00000000 	nop
  4126a4:	8c840000 	lw	a0,0(a0)
  4126a8:	3c058004 	lui	a1,0x8004
  4126ac:	34a56405 	ori	a1,a1,0x6405
  4126b0:	00063200 	sll	a2,a2,0x8
  4126b4:	00463025 	or	a2,v0,a2
  4126b8:	8f998094 	lw	t9,-32620(gp) <ioctl>
  4126bc:	00000000 	nop
  4126c0:	0320f809 	jalr	t9
  4126c4:	00000000 	nop
  4126c8:	8fbc0010 	lw	gp,16(sp)
  4126cc:	04410009 	bgez	v0,4126f4 <LEDSwitch+0x114>
  4126d0:	00402821 	move	a1,v0
  4126d4:	8f848020 	lw	a0,-32736(gp)
  4126d8:	00000000 	nop
  4126dc:	248450e0 	addiu	a0,a0,20704		# "IOCTL_LED_MSG failed:%d"
  4126e0:	8f998100 	lw	t9,-32512(gp) <printf>
  4126e4:	00000000 	nop
  4126e8:	0320f809 	jalr	t9
  4126ec:	00000000 	nop
  4126f0:	8fbc0010 	lw	gp,16(sp)
  4126f4:	8fbf001c 	lw	ra,28(sp)
  4126f8:	00000000 	nop
  4126fc:	03e00008 	jr	ra
  412700:	27bd0020 	addiu	sp,sp,32

00412704 <LED_Switch_all>:
  412704:	3c1c0fbf 	lui	gp,0xfbf
  412708:	279c6b8c 	addiu	gp,gp,27532
  41270c:	0399e021 	addu	gp,gp,t9
  412710:	27bdffe0 	addiu	sp,sp,-32
  412714:	afbc0010 	sw	gp,16(sp)
  412718:	afbf001c 	sw	ra,28(sp)
  41271c:	afbc0018 	sw	gp,24(sp)
  412720:	8f828220 	lw	v0,-32224(gp)
  412724:	00000000 	nop
  412728:	8c420000 	lw	v0,0(v0)
  41272c:	00000000 	nop
  412730:	10400013 	beqz	v0,412780 <LED_Switch_all+0x7c>
  412734:	00803021 	move	a2,a0
  412738:	00402021 	move	a0,v0
  41273c:	3c058004 	lui	a1,0x8004
  412740:	34a56406 	ori	a1,a1,0x6406
  412744:	8f998094 	lw	t9,-32620(gp) <ioctl>
  412748:	00000000 	nop
  41274c:	0320f809 	jalr	t9
  412750:	00000000 	nop
  412754:	8fbc0010 	lw	gp,16(sp)
  412758:	04410009 	bgez	v0,412780 <LED_Switch_all+0x7c>
  41275c:	00402821 	move	a1,v0
  412760:	8f848020 	lw	a0,-32736(gp)
  412764:	00000000 	nop
  412768:	248450fc 	addiu	a0,a0,20732		# "IOCTL_nCS_Clear failed:%d"
  41276c:	8f998100 	lw	t9,-32512(gp) <printf>
  412770:	00000000 	nop
  412774:	0320f809 	jalr	t9
  412778:	00000000 	nop
  41277c:	8fbc0010 	lw	gp,16(sp)
  412780:	8fbf001c 	lw	ra,28(sp)
  412784:	00000000 	nop
  412788:	03e00008 	jr	ra
  41278c:	27bd0020 	addiu	sp,sp,32

00412790 <LEDInit>:
  412790:	3c1c0fbf 	lui	gp,0xfbf
  412794:	279c6b00 	addiu	gp,gp,27392
  412798:	0399e021 	addu	gp,gp,t9
  41279c:	27bdffe0 	addiu	sp,sp,-32
  4127a0:	afbc0010 	sw	gp,16(sp)
  4127a4:	afbf001c 	sw	ra,28(sp)
  4127a8:	afbc0018 	sw	gp,24(sp)
  4127ac:	00002021 	move	a0,zero
  4127b0:	8f998020 	lw	t9,-32736(gp)
  4127b4:	00000000 	nop
  4127b8:	27392704 	addiu	t9,t9,9988
  4127bc:	00000000 	nop
  4127c0:	0320f809 	jalr	t9
  4127c4:	00000000 	nop
  4127c8:	8fbc0010 	lw	gp,16(sp)
  4127cc:	8fbf001c 	lw	ra,28(sp)
  4127d0:	00000000 	nop
  4127d4:	03e00008 	jr	ra
  4127d8:	27bd0020 	addiu	sp,sp,32
  4127dc:	3c1c0fbf 	lui	gp,0xfbf
  4127e0:	279c6ab4 	addiu	gp,gp,27316
  4127e4:	0399e021 	addu	gp,gp,t9
  4127e8:	10800005 	beqz	a0,412800 <LEDInit+0x70>
  4127ec:	24020001 	li	v0,1
  4127f0:	10820009 	beq	a0,v0,412818 <LEDInit+0x88>
  4127f4:	00000000 	nop
  4127f8:	03e00008 	jr	ra
  4127fc:	00000000 	nop
  412800:	8f82801c 	lw	v0,-32740(gp)
  412804:	00000000 	nop
  412808:	24421260 	addiu	v0,v0,4704
  41280c:	90420000 	lbu	v0,0(v0)
  412810:	03e00008 	jr	ra
  412814:	00000000 	nop
  412818:	8f82801c 	lw	v0,-32740(gp)
  41281c:	00000000 	nop
  412820:	24421260 	addiu	v0,v0,4704
  412824:	90420001 	lbu	v0,1(v0)
  412828:	03e00008 	jr	ra
  41282c:	00000000 	nop
  412830:	3c1c0fbf 	lui	gp,0xfbf
  412834:	279c6a60 	addiu	gp,gp,27232
  412838:	0399e021 	addu	gp,gp,t9
  41283c:	27bdffe0 	addiu	sp,sp,-32
  412840:	afbc0010 	sw	gp,16(sp)
  412844:	afbf001c 	sw	ra,28(sp)
  412848:	afbc0018 	sw	gp,24(sp)
  41284c:	8f848220 	lw	a0,-32224(gp)
  412850:	00000000 	nop
  412854:	8c840000 	lw	a0,0(a0)
  412858:	3c058004 	lui	a1,0x8004
  41285c:	34a56407 	ori	a1,a1,0x6407
  412860:	00003021 	move	a2,zero
  412864:	8f998094 	lw	t9,-32620(gp) <ioctl>
  412868:	00000000 	nop
  41286c:	0320f809 	jalr	t9
  412870:	00000000 	nop
  412874:	8fbc0010 	lw	gp,16(sp)
  412878:	04410009 	bgez	v0,4128a0 <LEDInit+0x110>
  41287c:	00000000 	nop
  412880:	8f848020 	lw	a0,-32736(gp)
  412884:	00000000 	nop
  412888:	24845118 	addiu	a0,a0,20760		# "IOCTL_WD_START"
  41288c:	8f998100 	lw	t9,-32512(gp) <printf>
  412890:	00000000 	nop
  412894:	0320f809 	jalr	t9
  412898:	00000000 	nop
  41289c:	8fbc0010 	lw	gp,16(sp)
  4128a0:	8fbf001c 	lw	ra,28(sp)
  4128a4:	00000000 	nop
  4128a8:	03e00008 	jr	ra
  4128ac:	27bd0020 	addiu	sp,sp,32
  4128b0:	3c1c0fbf 	lui	gp,0xfbf
  4128b4:	279c69e0 	addiu	gp,gp,27104
  4128b8:	0399e021 	addu	gp,gp,t9
  4128bc:	27bdffe0 	addiu	sp,sp,-32
  4128c0:	afbc0010 	sw	gp,16(sp)
  4128c4:	afbf001c 	sw	ra,28(sp)
  4128c8:	afbc0018 	sw	gp,24(sp)
  4128cc:	8f848220 	lw	a0,-32224(gp)
  4128d0:	00000000 	nop
  4128d4:	8c840000 	lw	a0,0(a0)
  4128d8:	3c058004 	lui	a1,0x8004
  4128dc:	34a56408 	ori	a1,a1,0x6408
  4128e0:	00003021 	move	a2,zero
  4128e4:	8f998094 	lw	t9,-32620(gp) <ioctl>
  4128e8:	00000000 	nop
  4128ec:	0320f809 	jalr	t9
  4128f0:	00000000 	nop
  4128f4:	8fbc0010 	lw	gp,16(sp)
  4128f8:	04410009 	bgez	v0,412920 <LEDInit+0x190>
  4128fc:	00000000 	nop
  412900:	8f848020 	lw	a0,-32736(gp)
  412904:	00000000 	nop
  412908:	24845128 	addiu	a0,a0,20776		# "IOCTL_WD_RESET"
  41290c:	8f998100 	lw	t9,-32512(gp) <printf>
  412910:	00000000 	nop
  412914:	0320f809 	jalr	t9
  412918:	00000000 	nop
  41291c:	8fbc0010 	lw	gp,16(sp)
  412920:	8fbf001c 	lw	ra,28(sp)
  412924:	00000000 	nop
  412928:	03e00008 	jr	ra
  41292c:	27bd0020 	addiu	sp,sp,32
  412930:	3c1c0fbf 	lui	gp,0xfbf
  412934:	279c6960 	addiu	gp,gp,26976
  412938:	0399e021 	addu	gp,gp,t9
  41293c:	27bdffe0 	addiu	sp,sp,-32
  412940:	afbc0010 	sw	gp,16(sp)
  412944:	afbf001c 	sw	ra,28(sp)
  412948:	afbc0018 	sw	gp,24(sp)
  41294c:	8f848220 	lw	a0,-32224(gp)
  412950:	00000000 	nop
  412954:	8c840000 	lw	a0,0(a0)
  412958:	3c058004 	lui	a1,0x8004
  41295c:	34a56409 	ori	a1,a1,0x6409
  412960:	00003021 	move	a2,zero
  412964:	8f998094 	lw	t9,-32620(gp) <ioctl>
  412968:	00000000 	nop
  41296c:	0320f809 	jalr	t9
  412970:	00000000 	nop
  412974:	8fbc0010 	lw	gp,16(sp)
  412978:	04410009 	bgez	v0,4129a0 <LEDInit+0x210>
  41297c:	00000000 	nop
  412980:	8f848020 	lw	a0,-32736(gp)
  412984:	00000000 	nop
  412988:	24845138 	addiu	a0,a0,20792		# "IOCTL_WD_STOP"
  41298c:	8f998100 	lw	t9,-32512(gp) <printf>
  412990:	00000000 	nop
  412994:	0320f809 	jalr	t9
  412998:	00000000 	nop
  41299c:	8fbc0010 	lw	gp,16(sp)
  4129a0:	8fbf001c 	lw	ra,28(sp)
  4129a4:	00000000 	nop
  4129a8:	03e00008 	jr	ra
  4129ac:	27bd0020 	addiu	sp,sp,32
  4129b0:	3c1c0fbf 	lui	gp,0xfbf
  4129b4:	279c68e0 	addiu	gp,gp,26848
  4129b8:	0399e021 	addu	gp,gp,t9
  4129bc:	27bdffe0 	addiu	sp,sp,-32
  4129c0:	afbc0010 	sw	gp,16(sp)
  4129c4:	afbf001c 	sw	ra,28(sp)
  4129c8:	afbc0018 	sw	gp,24(sp)
  4129cc:	24040002 	li	a0,2
  4129d0:	24050001 	li	a1,1
  4129d4:	00003021 	move	a2,zero
  4129d8:	8f998050 	lw	t9,-32688(gp) <socket>
  4129dc:	00000000 	nop
  4129e0:	0320f809 	jalr	t9
  4129e4:	00000000 	nop
  4129e8:	8fbc0010 	lw	gp,16(sp)
  4129ec:	00000000 	nop
  4129f0:	8f81801c 	lw	at,-32740(gp)
  4129f4:	00000000 	nop
  4129f8:	24211274 	addiu	at,at,4724
  4129fc:	ac220000 	sw	v0,0(at)
  412a00:	0441000e 	bgez	v0,412a3c <LEDInit+0x2ac>
  412a04:	00000000 	nop
  412a08:	8f848020 	lw	a0,-32736(gp)
  412a0c:	00000000 	nop
  412a10:	24845158 	addiu	a0,a0,20824
  412a14:	8f998100 	lw	t9,-32512(gp) <printf>
  412a18:	00000000 	nop
  412a1c:	0320f809 	jalr	t9
  412a20:	00000000 	nop
  412a24:	8fbc0010 	lw	gp,16(sp)
  412a28:	00000000 	nop
  412a2c:	8f81801c 	lw	at,-32740(gp)
  412a30:	00000000 	nop
  412a34:	24211274 	addiu	at,at,4724
  412a38:	ac200000 	sw	zero,0(at)
  412a3c:	8f82801c 	lw	v0,-32740(gp)
  412a40:	00000000 	nop
  412a44:	24421274 	addiu	v0,v0,4724
  412a48:	8c420000 	lw	v0,0(v0)
  412a4c:	8fbf001c 	lw	ra,28(sp)
  412a50:	00000000 	nop
  412a54:	03e00008 	jr	ra
  412a58:	27bd0020 	addiu	sp,sp,32
  412a5c:	3c1c0fbf 	lui	gp,0xfbf
  412a60:	279c6834 	addiu	gp,gp,26676
  412a64:	0399e021 	addu	gp,gp,t9
  412a68:	27bdffe0 	addiu	sp,sp,-32
  412a6c:	afbc0010 	sw	gp,16(sp)
  412a70:	afbf001c 	sw	ra,28(sp)
  412a74:	8f84801c 	lw	a0,-32740(gp)
  412a78:	00000000 	nop
  412a7c:	24841274 	addiu	a0,a0,4724
  412a80:	8c840000 	lw	a0,0(a0)
  412a84:	00000000 	nop
  412a88:	10800006 	beqz	a0,412aa4 <LEDInit+0x314>
  412a8c:	afbc0018 	sw	gp,24(sp)
  412a90:	8f998238 	lw	t9,-32200(gp) <close>
  412a94:	00000000 	nop
  412a98:	0320f809 	jalr	t9
  412a9c:	00000000 	nop
  412aa0:	8fbc0010 	lw	gp,16(sp)
  412aa4:	8fbf001c 	lw	ra,28(sp)
  412aa8:	00000000 	nop
  412aac:	03e00008 	jr	ra
  412ab0:	27bd0020 	addiu	sp,sp,32

00412ab4 <p125_mii_write>:
  412ab4:	3c1c0fbf 	lui	gp,0xfbf
  412ab8:	279c67dc 	addiu	gp,gp,26588
  412abc:	0399e021 	addu	gp,gp,t9
  412ac0:	27bdffb0 	addiu	sp,sp,-80
  412ac4:	afbc0010 	sw	gp,16(sp)
  412ac8:	afbf004c 	sw	ra,76(sp)
  412acc:	afbc0048 	sw	gp,72(sp)
  412ad0:	afb30044 	sw	s3,68(sp)
  412ad4:	afb20040 	sw	s2,64(sp)
  412ad8:	afb1003c 	sw	s1,60(sp)
  412adc:	afb00038 	sw	s0,56(sp)
  412ae0:	00808821 	move	s1,a0
  412ae4:	00a09021 	move	s2,a1
  412ae8:	00c09821 	move	s3,a2
  412aec:	8f82801c 	lw	v0,-32740(gp)
  412af0:	00000000 	nop
  412af4:	24421274 	addiu	v0,v0,4724
  412af8:	8c420000 	lw	v0,0(v0)
  412afc:	00000000 	nop
  412b00:	1440000c 	bnez	v0,412b34 <p125_mii_write+0x80>
  412b04:	27b00028 	addiu	s0,sp,40
  412b08:	8f998020 	lw	t9,-32736(gp)
  412b0c:	00000000 	nop
  412b10:	273929b0 	addiu	t9,t9,10672
  412b14:	00000000 	nop
  412b18:	0320f809 	jalr	t9
  412b1c:	00000000 	nop
  412b20:	8fbc0010 	lw	gp,16(sp)
  412b24:	14400004 	bnez	v0,412b38 <p125_mii_write+0x84>
  412b28:	27a40018 	addiu	a0,sp,24
  412b2c:	10000029 	b	412bd4 <p125_mii_write+0x120>
  412b30:	2402ffff 	li	v0,-1
  412b34:	27a40018 	addiu	a0,sp,24
  412b38:	8f85801c 	lw	a1,-32740(gp)
  412b3c:	00000000 	nop
  412b40:	24a51270 	addiu	a1,a1,4720
  412b44:	8ca50000 	lw	a1,0(a1)
  412b48:	24060010 	li	a2,16
  412b4c:	8f998078 	lw	t9,-32648(gp) <strncpy>
  412b50:	00000000 	nop
  412b54:	0320f809 	jalr	t9
  412b58:	00000000 	nop
  412b5c:	8fbc0010 	lw	gp,16(sp)
  412b60:	a6110000 	sh	s1,0(s0)
  412b64:	a6120002 	sh	s2,2(s0)
  412b68:	a6130004 	sh	s3,4(s0)
  412b6c:	340589f2 	li	a1,0x89f2
  412b70:	8f84801c 	lw	a0,-32740(gp)
  412b74:	00000000 	nop
  412b78:	24841274 	addiu	a0,a0,4724
  412b7c:	8c840000 	lw	a0,0(a0)
  412b80:	27a60018 	addiu	a2,sp,24
  412b84:	8f998094 	lw	t9,-32620(gp) <ioctl>
  412b88:	00000000 	nop
  412b8c:	0320f809 	jalr	t9
  412b90:	00000000 	nop
  412b94:	8fbc0010 	lw	gp,16(sp)
  412b98:	0441000e 	bgez	v0,412bd4 <p125_mii_write+0x120>
  412b9c:	24020001 	li	v0,1
  412ba0:	8f85801c 	lw	a1,-32740(gp)
  412ba4:	00000000 	nop
  412ba8:	24a51270 	addiu	a1,a1,4720
  412bac:	8ca50000 	lw	a1,0(a1)
  412bb0:	8f848020 	lw	a0,-32736(gp)
  412bb4:	00000000 	nop
  412bb8:	24845178 	addiu	a0,a0,20856		# "SIOCSMIIREG on %s failed!"
  412bbc:	8f998100 	lw	t9,-32512(gp) <printf>
  412bc0:	00000000 	nop
  412bc4:	0320f809 	jalr	t9
  412bc8:	00000000 	nop
  412bcc:	8fbc0010 	lw	gp,16(sp)
  412bd0:	2402fffd 	li	v0,-3
  412bd4:	8fbf004c 	lw	ra,76(sp)
  412bd8:	8fb30044 	lw	s3,68(sp)
  412bdc:	8fb20040 	lw	s2,64(sp)
  412be0:	8fb1003c 	lw	s1,60(sp)
  412be4:	8fb00038 	lw	s0,56(sp)
  412be8:	03e00008 	jr	ra
  412bec:	27bd0050 	addiu	sp,sp,80
  412bf0:	3c1c0fbf 	lui	gp,0xfbf
  412bf4:	279c66a0 	addiu	gp,gp,26272
  412bf8:	0399e021 	addu	gp,gp,t9
  412bfc:	27bdffb0 	addiu	sp,sp,-80
  412c00:	afbc0010 	sw	gp,16(sp)
  412c04:	afbf0048 	sw	ra,72(sp)
  412c08:	afbc0044 	sw	gp,68(sp)
  412c0c:	afb20040 	sw	s2,64(sp)
  412c10:	afb1003c 	sw	s1,60(sp)
  412c14:	afb00038 	sw	s0,56(sp)
  412c18:	00808821 	move	s1,a0
  412c1c:	00a09021 	move	s2,a1
  412c20:	8f82801c 	lw	v0,-32740(gp)
  412c24:	00000000 	nop
  412c28:	24421274 	addiu	v0,v0,4724
  412c2c:	8c420000 	lw	v0,0(v0)
  412c30:	00000000 	nop
  412c34:	1440000c 	bnez	v0,412c68 <p125_mii_write+0x1b4>
  412c38:	27b00028 	addiu	s0,sp,40
  412c3c:	8f998020 	lw	t9,-32736(gp)
  412c40:	00000000 	nop
  412c44:	273929b0 	addiu	t9,t9,10672
  412c48:	00000000 	nop
  412c4c:	0320f809 	jalr	t9
  412c50:	00000000 	nop
  412c54:	8fbc0010 	lw	gp,16(sp)
  412c58:	14400004 	bnez	v0,412c6c <p125_mii_write+0x1b8>
  412c5c:	27a40018 	addiu	a0,sp,24
  412c60:	1000002b 	b	412d10 <p125_mii_write+0x25c>
  412c64:	2402ffff 	li	v0,-1
  412c68:	27a40018 	addiu	a0,sp,24
  412c6c:	8f85801c 	lw	a1,-32740(gp)
  412c70:	00000000 	nop
  412c74:	24a51270 	addiu	a1,a1,4720
  412c78:	8ca50000 	lw	a1,0(a1)
  412c7c:	24060010 	li	a2,16
  412c80:	8f998078 	lw	t9,-32648(gp) <strncpy>
  412c84:	00000000 	nop
  412c88:	0320f809 	jalr	t9
  412c8c:	00000000 	nop
  412c90:	8fbc0010 	lw	gp,16(sp)
  412c94:	a6110000 	sh	s1,0(s0)
  412c98:	a6120002 	sh	s2,2(s0)
  412c9c:	340589f1 	li	a1,0x89f1
  412ca0:	8f84801c 	lw	a0,-32740(gp)
  412ca4:	00000000 	nop
  412ca8:	24841274 	addiu	a0,a0,4724
  412cac:	8c840000 	lw	a0,0(a0)
  412cb0:	27a60018 	addiu	a2,sp,24
  412cb4:	8f998094 	lw	t9,-32620(gp) <ioctl>
  412cb8:	00000000 	nop
  412cbc:	0320f809 	jalr	t9
  412cc0:	00000000 	nop
  412cc4:	8fbc0010 	lw	gp,16(sp)
  412cc8:	04400004 	bltz	v0,412cdc <p125_mii_write+0x228>
  412ccc:	00000000 	nop
  412cd0:	96020006 	lhu	v0,6(s0)
  412cd4:	1000000e 	b	412d10 <p125_mii_write+0x25c>
  412cd8:	00000000 	nop
  412cdc:	8f85801c 	lw	a1,-32740(gp)
  412ce0:	00000000 	nop
  412ce4:	24a51270 	addiu	a1,a1,4720
  412ce8:	8ca50000 	lw	a1,0(a1)
  412cec:	8f848020 	lw	a0,-32736(gp)
  412cf0:	00000000 	nop
  412cf4:	24845178 	addiu	a0,a0,20856		# "SIOCSMIIREG on %s failed!"
  412cf8:	8f998100 	lw	t9,-32512(gp) <printf>
  412cfc:	00000000 	nop
  412d00:	0320f809 	jalr	t9
  412d04:	00000000 	nop
  412d08:	8fbc0010 	lw	gp,16(sp)
  412d0c:	2402fffd 	li	v0,-3
  412d10:	8fbf0048 	lw	ra,72(sp)
  412d14:	8fb20040 	lw	s2,64(sp)
  412d18:	8fb1003c 	lw	s1,60(sp)
  412d1c:	8fb00038 	lw	s0,56(sp)
  412d20:	03e00008 	jr	ra
  412d24:	27bd0050 	addiu	sp,sp,80
  412d28:	3c1c0fbf 	lui	gp,0xfbf
  412d2c:	279c6568 	addiu	gp,gp,25960
  412d30:	0399e021 	addu	gp,gp,t9
  412d34:	27bdffd8 	addiu	sp,sp,-40
  412d38:	afbc0010 	sw	gp,16(sp)
  412d3c:	afbf0020 	sw	ra,32(sp)
  412d40:	afbc001c 	sw	gp,28(sp)
  412d44:	afb00018 	sw	s0,24(sp)
  412d48:	00c08021 	move	s0,a2
  412d4c:	8f998020 	lw	t9,-32736(gp)
  412d50:	00000000 	nop
  412d54:	27392bf0 	addiu	t9,t9,11248
  412d58:	00000000 	nop
  412d5c:	0320f809 	jalr	t9
  412d60:	00000000 	nop
  412d64:	8fbc0010 	lw	gp,16(sp)
  412d68:	04400003 	bltz	v0,412d78 <p125_mii_write+0x2c4>
  412d6c:	02021007 	srav	v0,v0,s0
  412d70:	1000000a 	b	412d9c <p125_mii_write+0x2e8>
  412d74:	30420001 	andi	v0,v0,0x1
  412d78:	8f848020 	lw	a0,-32736(gp)
  412d7c:	00000000 	nop
  412d80:	24845194 	addiu	a0,a0,20884		# "Read Error !!!"
  412d84:	8f998100 	lw	t9,-32512(gp) <printf>
  412d88:	00000000 	nop
  412d8c:	0320f809 	jalr	t9
  412d90:	00000000 	nop
  412d94:	8fbc0010 	lw	gp,16(sp)
  412d98:	2402ffff 	li	v0,-1
  412d9c:	8fbf0020 	lw	ra,32(sp)
  412da0:	8fb00018 	lw	s0,24(sp)
  412da4:	03e00008 	jr	ra
  412da8:	27bd0028 	addiu	sp,sp,40

00412dac <p125_mii_write_bit>:
  412dac:	3c1c0fbf 	lui	gp,0xfbf
  412db0:	279c64e4 	addiu	gp,gp,25828
  412db4:	0399e021 	addu	gp,gp,t9
  412db8:	27bdffd0 	addiu	sp,sp,-48
  412dbc:	afbc0010 	sw	gp,16(sp)
  412dc0:	afbf0028 	sw	ra,40(sp)
  412dc4:	afbc0024 	sw	gp,36(sp)
  412dc8:	afb20020 	sw	s2,32(sp)
  412dcc:	afb1001c 	sw	s1,28(sp)
  412dd0:	afb00018 	sw	s0,24(sp)
  412dd4:	00808021 	move	s0,a0
  412dd8:	00a08821 	move	s1,a1
  412ddc:	10e00016 	beqz	a3,412e38 <p125_mii_write_bit+0x8c>
  412de0:	00c09021 	move	s2,a2
  412de4:	8f998020 	lw	t9,-32736(gp)
  412de8:	00000000 	nop
  412dec:	27392bf0 	addiu	t9,t9,11248
  412df0:	00000000 	nop
  412df4:	0320f809 	jalr	t9
  412df8:	00000000 	nop
  412dfc:	8fbc0010 	lw	gp,16(sp)
  412e00:	02002021 	move	a0,s0
  412e04:	02202821 	move	a1,s1
  412e08:	24060001 	li	a2,1
  412e0c:	02463004 	sllv	a2,a2,s2
  412e10:	00463025 	or	a2,v0,a2
  412e14:	8f998020 	lw	t9,-32736(gp)
  412e18:	00000000 	nop
  412e1c:	27392ab4 	addiu	t9,t9,10932
  412e20:	00000000 	nop
  412e24:	0320f809 	jalr	t9
  412e28:	00000000 	nop
  412e2c:	8fbc0010 	lw	gp,16(sp)
  412e30:	10000017 	b	412e90 <p125_mii_write_bit+0xe4>
  412e34:	00000000 	nop
  412e38:	02002021 	move	a0,s0
  412e3c:	02202821 	move	a1,s1
  412e40:	8f998020 	lw	t9,-32736(gp)
  412e44:	00000000 	nop
  412e48:	27392bf0 	addiu	t9,t9,11248
  412e4c:	00000000 	nop
  412e50:	0320f809 	jalr	t9
  412e54:	00000000 	nop
  412e58:	8fbc0010 	lw	gp,16(sp)
  412e5c:	02002021 	move	a0,s0
  412e60:	02202821 	move	a1,s1
  412e64:	24060001 	li	a2,1
  412e68:	02463004 	sllv	a2,a2,s2
  412e6c:	00063027 	nor	a2,zero,a2
  412e70:	00463024 	and	a2,v0,a2
  412e74:	8f998020 	lw	t9,-32736(gp)
  412e78:	00000000 	nop
  412e7c:	27392ab4 	addiu	t9,t9,10932
  412e80:	00000000 	nop
  412e84:	0320f809 	jalr	t9
  412e88:	00000000 	nop
  412e8c:	8fbc0010 	lw	gp,16(sp)
  412e90:	8fbf0028 	lw	ra,40(sp)
  412e94:	8fb20020 	lw	s2,32(sp)
  412e98:	8fb1001c 	lw	s1,28(sp)
  412e9c:	8fb00018 	lw	s0,24(sp)
  412ea0:	00001021 	move	v0,zero
  412ea4:	03e00008 	jr	ra
  412ea8:	27bd0030 	addiu	sp,sp,48
  412eac:	00000000 	nop
  412eb0:	3c1c0fbf 	lui	gp,0xfbf
  412eb4:	279c63e0 	addiu	gp,gp,25568
  412eb8:	0399e021 	addu	gp,gp,t9
  412ebc:	27bdffd8 	addiu	sp,sp,-40
  412ec0:	afbc0010 	sw	gp,16(sp)
  412ec4:	afbf0024 	sw	ra,36(sp)
  412ec8:	afbc0020 	sw	gp,32(sp)
  412ecc:	afb1001c 	sw	s1,28(sp)
  412ed0:	afb00018 	sw	s0,24(sp)
  412ed4:	8f90801c 	lw	s0,-32740(gp)
  412ed8:	00000000 	nop
  412edc:	26101288 	addiu	s0,s0,4744
  412ee0:	8e030000 	lw	v1,0(s0)
  412ee4:	2402ffff 	li	v0,-1
  412ee8:	1062000b 	beq	v1,v0,412f18 <p125_mii_write_bit+0x16c>
  412eec:	2411ffff 	li	s1,-1
  412ef0:	8e030000 	lw	v1,0(s0)
  412ef4:	2610fffc 	addiu	s0,s0,-4
  412ef8:	0060c821 	move	t9,v1
  412efc:	0320f809 	jalr	t9
  412f00:	00000000 	nop
  412f04:	8fbc0010 	lw	gp,16(sp)
  412f08:	8e020000 	lw	v0,0(s0)
  412f0c:	00000000 	nop
  412f10:	1451fff7 	bne	v0,s1,412ef0 <p125_mii_write_bit+0x144>
  412f14:	00000000 	nop
  412f18:	8fbf0024 	lw	ra,36(sp)
  412f1c:	8fb1001c 	lw	s1,28(sp)
  412f20:	8fb00018 	lw	s0,24(sp)
  412f24:	03e00008 	jr	ra
  412f28:	27bd0028 	addiu	sp,sp,40
  412f2c:	3c1c0fbf 	lui	gp,0xfbf
  412f30:	279c6364 	addiu	gp,gp,25444
  412f34:	0399e021 	addu	gp,gp,t9
  412f38:	27bdffe0 	addiu	sp,sp,-32
  412f3c:	afbc0010 	sw	gp,16(sp)
  412f40:	afbf001c 	sw	ra,28(sp)
  412f44:	afbc0018 	sw	gp,24(sp)
  412f48:	8fbf001c 	lw	ra,28(sp)
  412f4c:	00000000 	nop
  412f50:	03e00008 	jr	ra
  412f54:	27bd0020 	addiu	sp,sp,32
	...
